   1               		.file	"layer_state_reader.c"
   2               	__SP_H__ = 0x3e
   3               	__SP_L__ = 0x3d
   4               	__SREG__ = 0x3f
   5               	__tmp_reg__ = 0
   6               	__zero_reg__ = 1
   7               		.text
   8               	.Ltext0:
   9               		.cfi_sections	.debug_frame
  10               		.section	.rodata.read_layer_state.str1.1,"aMS",@progbits,1
  11               	.LC0:
  12 0000 4C61 7965 		.string	"Layer: Default"
  12      723A 2044 
  12      6566 6175 
  12      6C74 00
  13               	.LC1:
  14 000f 4C61 7965 		.string	"Layer: Raise"
  14      723A 2052 
  14      6169 7365 
  14      00
  15               	.LC2:
  16 001c 4C61 7965 		.string	"Layer: Lower"
  16      723A 204C 
  16      6F77 6572 
  16      00
  17               	.LC3:
  18 0029 4C61 7965 		.string	"Layer: Adjust"
  18      723A 2041 
  18      646A 7573 
  18      7400 
  19               	.LC4:
  20 0037 4C61 7965 		.string	"Layer: Undef-%ld"
  20      723A 2055 
  20      6E64 6566 
  20      2D25 6C64 
  20      00
  21               		.section	.text.read_layer_state,"ax",@progbits
  22               	.global	read_layer_state
  24               	read_layer_state:
  25               	.LFB119:
  26               		.file 1 "keyboards/crkbd/lib/layer_state_reader.c"
   1:keyboards/crkbd/lib/layer_state_reader.c **** 
   2:keyboards/crkbd/lib/layer_state_reader.c **** #include QMK_KEYBOARD_H
   3:keyboards/crkbd/lib/layer_state_reader.c **** #include <stdio.h>
   4:keyboards/crkbd/lib/layer_state_reader.c **** #include "crkbd.h"
   5:keyboards/crkbd/lib/layer_state_reader.c **** 
   6:keyboards/crkbd/lib/layer_state_reader.c **** // in the future, should use (1U<<_LAYER_NAME) instead, but needs to be moved to keymap,c
   7:keyboards/crkbd/lib/layer_state_reader.c **** #define L_BASE 0
   8:keyboards/crkbd/lib/layer_state_reader.c **** #define L_LOWER 2
   9:keyboards/crkbd/lib/layer_state_reader.c **** #define L_RAISE 4
  10:keyboards/crkbd/lib/layer_state_reader.c **** #define L_ADJUST 8
  11:keyboards/crkbd/lib/layer_state_reader.c **** #define L_ADJUST_TRI 14
  12:keyboards/crkbd/lib/layer_state_reader.c **** 
  13:keyboards/crkbd/lib/layer_state_reader.c **** char layer_state_str[24];
  14:keyboards/crkbd/lib/layer_state_reader.c **** 
  15:keyboards/crkbd/lib/layer_state_reader.c **** const char *read_layer_state(void) {
  27               		.loc 1 15 36 view -0
  28               		.cfi_startproc
  29               	/* prologue: function */
  30               	/* frame size = 0 */
  31               	/* stack size = 0 */
  32               	.L__stack_usage = 0
  16:keyboards/crkbd/lib/layer_state_reader.c ****   switch (layer_state)
  33               		.loc 1 16 3 view .LVU1
  34 0000 8091 0000 		lds r24,layer_state
  35 0004 9091 0000 		lds r25,layer_state+1
  36 0008 A091 0000 		lds r26,layer_state+2
  37 000c B091 0000 		lds r27,layer_state+3
  38 0010 8430      		cpi r24,4
  39 0012 9105      		cpc r25,__zero_reg__
  40 0014 A105      		cpc r26,__zero_reg__
  41 0016 B105      		cpc r27,__zero_reg__
  42 0018 01F0      		breq .L2
  43 001a 00F4      		brsh .L3
  44 001c 0097      		sbiw r24,0
  45 001e A105      		cpc r26,__zero_reg__
  46 0020 B105      		cpc r27,__zero_reg__
  47 0022 01F0      		breq .L4
  17:keyboards/crkbd/lib/layer_state_reader.c ****   {
  18:keyboards/crkbd/lib/layer_state_reader.c ****   case L_BASE:
  19:keyboards/crkbd/lib/layer_state_reader.c ****     snprintf(layer_state_str, sizeof(layer_state_str), "Layer: Default");
  20:keyboards/crkbd/lib/layer_state_reader.c ****     break;
  21:keyboards/crkbd/lib/layer_state_reader.c ****   case L_RAISE:
  22:keyboards/crkbd/lib/layer_state_reader.c ****     snprintf(layer_state_str, sizeof(layer_state_str), "Layer: Raise");
  23:keyboards/crkbd/lib/layer_state_reader.c ****     break;
  24:keyboards/crkbd/lib/layer_state_reader.c ****   case L_LOWER:
  25:keyboards/crkbd/lib/layer_state_reader.c ****     snprintf(layer_state_str, sizeof(layer_state_str), "Layer: Lower");
  48               		.loc 1 25 5 is_stmt 0 view .LVU2
  49 0024 60E0      		ldi r22,lo8(.LC2)
  50 0026 70E0      		ldi r23,hi8(.LC2)
  16:keyboards/crkbd/lib/layer_state_reader.c ****   switch (layer_state)
  51               		.loc 1 16 3 view .LVU3
  52 0028 8230      		cpi r24,2
  53 002a 9105      		cpc r25,__zero_reg__
  54 002c A105      		cpc r26,__zero_reg__
  55 002e B105      		cpc r27,__zero_reg__
  56 0030 01F0      		breq .L15
  57               	.L6:
  26:keyboards/crkbd/lib/layer_state_reader.c ****     break;
  27:keyboards/crkbd/lib/layer_state_reader.c ****   case L_ADJUST:
  28:keyboards/crkbd/lib/layer_state_reader.c ****   case L_ADJUST_TRI:
  29:keyboards/crkbd/lib/layer_state_reader.c ****     snprintf(layer_state_str, sizeof(layer_state_str), "Layer: Adjust");
  30:keyboards/crkbd/lib/layer_state_reader.c ****     break;
  31:keyboards/crkbd/lib/layer_state_reader.c ****   default:
  32:keyboards/crkbd/lib/layer_state_reader.c ****     snprintf(layer_state_str, sizeof(layer_state_str), "Layer: Undef-%ld", layer_state);
  58               		.loc 1 32 5 is_stmt 1 view .LVU4
  59 0032 BF93      		push r27
  60               	.LCFI0:
  61               		.cfi_def_cfa_offset 3
  62 0034 AF93      		push r26
  63               	.LCFI1:
  64               		.cfi_def_cfa_offset 4
  65 0036 9F93      		push r25
  66               	.LCFI2:
  67               		.cfi_def_cfa_offset 5
  68 0038 8F93      		push r24
  69               	.LCFI3:
  70               		.cfi_def_cfa_offset 6
  71 003a 80E0      		ldi r24,lo8(.LC4)
  72 003c 90E0      		ldi r25,hi8(.LC4)
  73 003e 9F93      		push r25
  74               	.LCFI4:
  75               		.cfi_def_cfa_offset 7
  76 0040 8F93      		push r24
  77               	.LCFI5:
  78               		.cfi_def_cfa_offset 8
  79 0042 1F92      		push __zero_reg__
  80               	.LCFI6:
  81               		.cfi_def_cfa_offset 9
  82 0044 88E1      		ldi r24,lo8(24)
  83 0046 8F93      		push r24
  84               	.LCFI7:
  85               		.cfi_def_cfa_offset 10
  86 0048 80E0      		ldi r24,lo8(layer_state_str)
  87 004a 90E0      		ldi r25,hi8(layer_state_str)
  88 004c 9F93      		push r25
  89               	.LCFI8:
  90               		.cfi_def_cfa_offset 11
  91 004e 8F93      		push r24
  92               	.LCFI9:
  93               		.cfi_def_cfa_offset 12
  94 0050 0E94 0000 		call snprintf
  95 0054 8DB7      		in r24,__SP_L__
  96 0056 9EB7      		in r25,__SP_H__
  97 0058 0A96      		adiw r24,10
  98 005a 0FB6      		in __tmp_reg__,__SREG__
  99 005c F894      		cli
 100 005e 9EBF      		out __SP_H__,r25
 101 0060 0FBE      		out __SREG__,__tmp_reg__
 102 0062 8DBF      		out __SP_L__,r24
 103               	.LCFI10:
 104               		.cfi_def_cfa_offset 2
 105 0064 00C0      		rjmp .L8
 106               	.L3:
  16:keyboards/crkbd/lib/layer_state_reader.c ****   {
 107               		.loc 1 16 3 is_stmt 0 view .LVU5
 108 0066 8830      		cpi r24,8
 109 0068 9105      		cpc r25,__zero_reg__
 110 006a A105      		cpc r26,__zero_reg__
 111 006c B105      		cpc r27,__zero_reg__
 112 006e 01F0      		breq .L7
 113 0070 8E30      		cpi r24,14
 114 0072 9105      		cpc r25,__zero_reg__
 115 0074 A105      		cpc r26,__zero_reg__
 116 0076 B105      		cpc r27,__zero_reg__
 117 0078 01F4      		brne .L6
 118               	.L7:
  29:keyboards/crkbd/lib/layer_state_reader.c ****     break;
 119               		.loc 1 29 5 is_stmt 1 view .LVU6
 120 007a 60E0      		ldi r22,lo8(.LC3)
 121 007c 70E0      		ldi r23,hi8(.LC3)
 122 007e 00C0      		rjmp .L15
 123               	.L4:
  19:keyboards/crkbd/lib/layer_state_reader.c ****     break;
 124               		.loc 1 19 5 view .LVU7
 125 0080 60E0      		ldi r22,lo8(.LC0)
 126 0082 70E0      		ldi r23,hi8(.LC0)
 127               	.L15:
  22:keyboards/crkbd/lib/layer_state_reader.c ****     break;
 128               		.loc 1 22 5 is_stmt 0 view .LVU8
 129 0084 80E0      		ldi r24,lo8(layer_state_str)
 130 0086 90E0      		ldi r25,hi8(layer_state_str)
 131 0088 0E94 0000 		call strcpy
  23:keyboards/crkbd/lib/layer_state_reader.c ****   case L_LOWER:
 132               		.loc 1 23 5 is_stmt 1 view .LVU9
 133               	.L8:
  33:keyboards/crkbd/lib/layer_state_reader.c ****   }
  34:keyboards/crkbd/lib/layer_state_reader.c **** 
  35:keyboards/crkbd/lib/layer_state_reader.c ****   return layer_state_str;
 134               		.loc 1 35 3 view .LVU10
  36:keyboards/crkbd/lib/layer_state_reader.c **** }
 135               		.loc 1 36 1 is_stmt 0 view .LVU11
 136 008c 80E0      		ldi r24,lo8(layer_state_str)
 137 008e 90E0      		ldi r25,hi8(layer_state_str)
 138               	/* epilogue start */
 139 0090 0895      		ret
 140               	.L2:
  22:keyboards/crkbd/lib/layer_state_reader.c ****     break;
 141               		.loc 1 22 5 is_stmt 1 view .LVU12
 142 0092 60E0      		ldi r22,lo8(.LC1)
 143 0094 70E0      		ldi r23,hi8(.LC1)
 144 0096 00C0      		rjmp .L15
 145               		.cfi_endproc
 146               	.LFE119:
 148               		.comm	layer_state_str,24,1
 149               		.text
 150               	.Letext0:
 151               		.file 2 "c:\\users\\nonej\\documents\\keyboard\\msys64\\home\\nonej\\qmk_utils\\avr8-gnu-toolchain
 152               		.file 3 "c:\\users\\nonej\\documents\\keyboard\\msys64\\home\\nonej\\qmk_utils\\avr8-gnu-toolchain
 153               		.file 4 "lib/lufa/LUFA/Drivers/USB/Core/AVR8/../StdRequestType.h"
 154               		.file 5 "tmk_core/common/action.h"
 155               		.file 6 "lib/lufa/LUFA/Drivers/USB/Core/AVR8/../DeviceStandardReq.h"
 156               		.file 7 "lib/lufa/LUFA/Drivers/USB/Core/USBTask.h"
 157               		.file 8 "lib/lufa/LUFA/Drivers/USB/Core/HostStandardReq.h"
 158               		.file 9 "c:\\users\\nonej\\documents\\keyboard\\msys64\\home\\nonej\\qmk_utils\\avr8-gnu-toolchain
 159               		.file 10 "tmk_core/common/report.h"
 160               		.file 11 "tmk_core/common/host_driver.h"
 161               		.file 12 "tmk_core/common/host.h"
 162               		.file 13 "tmk_core/common/debug.h"
 163               		.file 14 "quantum/keycode_config.h"
 164               		.file 15 "quantum/keymap.h"
 165               		.file 16 "tmk_core/common/action_layer.h"
 166               		.file 17 "tmk_core/common/timer.h"
 167               		.file 18 "tmk_core/common/action_util.h"
 168               		.file 19 "c:\\users\\nonej\\documents\\keyboard\\msys64\\home\\nonej\\qmk_utils\\avr8-gnu-toolchai
 169               		.file 20 "quantum/process_keycode/process_tap_dance.h"
 170               		.file 21 "quantum/quantum.h"
 171               		.file 22 "tmk_core/protocol/lufa/lufa.h"
 172               		.file 23 "keyboards/crkbd/rev1/split_util.h"