Archive member included to satisfy reference by file (symbol)

c:/users/nonej/documents/keyboard/msys64/home/nonej/qmk_utils/avr8-gnu-toolchain/bin/../lib/gcc/avr/8.3.0/avr35\libgcc.a(_mulqi3.o)
                              .build/obj_ut472_th3v3gas/quantum/rgblight.o (__mulqi3)
c:/users/nonej/documents/keyboard/msys64/home/nonej/qmk_utils/avr8-gnu-toolchain/bin/../lib/gcc/avr/8.3.0/avr35\libgcc.a(_mulhi3.o)
                              .build/obj_ut472_th3v3gas/quantum/keymap_common.o (__mulhi3)
c:/users/nonej/documents/keyboard/msys64/home/nonej/qmk_utils/avr8-gnu-toolchain/bin/../lib/gcc/avr/8.3.0/avr35\libgcc.a(_udivmodhi4.o)
                              .build/obj_ut472_th3v3gas/quantum/color.o (__udivmodhi4)
c:/users/nonej/documents/keyboard/msys64/home/nonej/qmk_utils/avr8-gnu-toolchain/bin/../lib/gcc/avr/8.3.0/avr35\libgcc.a(_divmodhi4.o)
                              .build/obj_ut472_th3v3gas/quantum/quantum.o (__divmodhi4)
c:/users/nonej/documents/keyboard/msys64/home/nonej/qmk_utils/avr8-gnu-toolchain/bin/../lib/gcc/avr/8.3.0/avr35\libgcc.a(_exit.o)
                              c:/users/nonej/documents/keyboard/msys64/home/nonej/qmk_utils/avr8-gnu-toolchain/bin/../lib/gcc/avr/8.3.0/../../../../avr/lib/avr35/crtatmega32u2.o (exit)
c:/users/nonej/documents/keyboard/msys64/home/nonej/qmk_utils/avr8-gnu-toolchain/bin/../lib/gcc/avr/8.3.0/avr35\libgcc.a(_tablejump2.o)
                              .build/obj_ut472_th3v3gas/quantum/process_keycode/process_rgb.o (__tablejump2__)
c:/users/nonej/documents/keyboard/msys64/home/nonej/qmk_utils/avr8-gnu-toolchain/bin/../lib/gcc/avr/8.3.0/avr35\libgcc.a(_copy_data.o)
                              .build/obj_ut472_th3v3gas/keyboards/ut472/keymaps/th3v3gas/keymap.o (__do_copy_data)
c:/users/nonej/documents/keyboard/msys64/home/nonej/qmk_utils/avr8-gnu-toolchain/bin/../lib/gcc/avr/8.3.0/avr35\libgcc.a(_clear_bss.o)
                              .build/obj_ut472_th3v3gas/keyboards/ut472/keymaps/th3v3gas/keymap.o (__do_clear_bss)
c:/users/nonej/documents/keyboard/msys64/home/nonej/qmk_utils/avr8-gnu-toolchain/bin/../lib/gcc/avr/8.3.0/../../../../avr/lib/avr35\libc.a(rand.o)
                              .build/obj_ut472_th3v3gas/quantum/quantum.o (rand)
c:/users/nonej/documents/keyboard/msys64/home/nonej/qmk_utils/avr8-gnu-toolchain/bin/../lib/gcc/avr/8.3.0/../../../../avr/lib/avr35\libc.a(tolower.o)
                              .build/obj_ut472_th3v3gas/quantum/process_keycode/process_unicode_common.o (tolower)
c:/users/nonej/documents/keyboard/msys64/home/nonej/qmk_utils/avr8-gnu-toolchain/bin/../lib/gcc/avr/8.3.0/../../../../avr/lib/avr35\libc.a(memchr.o)
                              .build/obj_ut472_th3v3gas/quantum/rgblight.o (memchr)
c:/users/nonej/documents/keyboard/msys64/home/nonej/qmk_utils/avr8-gnu-toolchain/bin/../lib/gcc/avr/8.3.0/../../../../avr/lib/avr35\libc.a(strcspn.o)
                              .build/obj_ut472_th3v3gas/quantum/process_keycode/process_unicode_common.o (strcspn)
c:/users/nonej/documents/keyboard/msys64/home/nonej/qmk_utils/avr8-gnu-toolchain/bin/../lib/gcc/avr/8.3.0/../../../../avr/lib/avr35\libc.a(strncpy.o)
                              .build/obj_ut472_th3v3gas/quantum/process_keycode/process_unicode_common.o (strncpy)
c:/users/nonej/documents/keyboard/msys64/home/nonej/qmk_utils/avr8-gnu-toolchain/bin/../lib/gcc/avr/8.3.0/../../../../avr/lib/avr35\libatmega32u2.a(eerd_byte.o)
                              .build/obj_ut472_th3v3gas/quantum/process_keycode/process_unicode_common.o (eeprom_read_byte)
c:/users/nonej/documents/keyboard/msys64/home/nonej/qmk_utils/avr8-gnu-toolchain/bin/../lib/gcc/avr/8.3.0/../../../../avr/lib/avr35\libatmega32u2.a(eerd_dword.o)
                              .build/obj_ut472_th3v3gas/quantum/rgblight.o (eeprom_read_dword)
c:/users/nonej/documents/keyboard/msys64/home/nonej/qmk_utils/avr8-gnu-toolchain/bin/../lib/gcc/avr/8.3.0/../../../../avr/lib/avr35\libatmega32u2.a(eerd_word.o)
                              .build/obj_ut472_th3v3gas/common/eeconfig.o (eeprom_read_word)
c:/users/nonej/documents/keyboard/msys64/home/nonej/qmk_utils/avr8-gnu-toolchain/bin/../lib/gcc/avr/8.3.0/../../../../avr/lib/avr35\libatmega32u2.a(eeupd_byte.o)
                              .build/obj_ut472_th3v3gas/quantum/process_keycode/process_unicode_common.o (eeprom_update_byte)
c:/users/nonej/documents/keyboard/msys64/home/nonej/qmk_utils/avr8-gnu-toolchain/bin/../lib/gcc/avr/8.3.0/../../../../avr/lib/avr35\libatmega32u2.a(eeupd_dword.o)
                              .build/obj_ut472_th3v3gas/quantum/rgblight.o (eeprom_update_dword)
c:/users/nonej/documents/keyboard/msys64/home/nonej/qmk_utils/avr8-gnu-toolchain/bin/../lib/gcc/avr/8.3.0/../../../../avr/lib/avr35\libatmega32u2.a(eeupd_word.o)
                              .build/obj_ut472_th3v3gas/common/eeconfig.o (eeprom_update_word)
c:/users/nonej/documents/keyboard/msys64/home/nonej/qmk_utils/avr8-gnu-toolchain/bin/../lib/gcc/avr/8.3.0/../../../../avr/lib/avr35\libatmega32u2.a(eerd_block.o)
                              c:/users/nonej/documents/keyboard/msys64/home/nonej/qmk_utils/avr8-gnu-toolchain/bin/../lib/gcc/avr/8.3.0/../../../../avr/lib/avr35\libatmega32u2.a(eerd_dword.o) (eeprom_read_blraw)
c:/users/nonej/documents/keyboard/msys64/home/nonej/qmk_utils/avr8-gnu-toolchain/bin/../lib/gcc/avr/8.3.0/avr35\libgcc.a(_mulsi3.o)
                              c:/users/nonej/documents/keyboard/msys64/home/nonej/qmk_utils/avr8-gnu-toolchain/bin/../lib/gcc/avr/8.3.0/../../../../avr/lib/avr35\libc.a(rand.o) (__mulsi3)
c:/users/nonej/documents/keyboard/msys64/home/nonej/qmk_utils/avr8-gnu-toolchain/bin/../lib/gcc/avr/8.3.0/avr35\libgcc.a(_divmodsi4.o)
                              c:/users/nonej/documents/keyboard/msys64/home/nonej/qmk_utils/avr8-gnu-toolchain/bin/../lib/gcc/avr/8.3.0/../../../../avr/lib/avr35\libc.a(rand.o) (__divmodsi4)
c:/users/nonej/documents/keyboard/msys64/home/nonej/qmk_utils/avr8-gnu-toolchain/bin/../lib/gcc/avr/8.3.0/avr35\libgcc.a(_negsi2.o)
                              c:/users/nonej/documents/keyboard/msys64/home/nonej/qmk_utils/avr8-gnu-toolchain/bin/../lib/gcc/avr/8.3.0/avr35\libgcc.a(_divmodsi4.o) (__negsi2)
c:/users/nonej/documents/keyboard/msys64/home/nonej/qmk_utils/avr8-gnu-toolchain/bin/../lib/gcc/avr/8.3.0/avr35\libgcc.a(_udivmodsi4.o)
                              c:/users/nonej/documents/keyboard/msys64/home/nonej/qmk_utils/avr8-gnu-toolchain/bin/../lib/gcc/avr/8.3.0/avr35\libgcc.a(_divmodsi4.o) (__udivmodsi4)

Allocating common symbols
Common symbol       size              file

rgblight_config     0x5               .build/obj_ut472_th3v3gas/quantum/rgblight.o
USB_IsInitialized   0x1               .build/obj_ut472_th3v3gas/lib/lufa/LUFA/Drivers/USB/Core/USBTask.o
keymap_config       0x2               .build/obj_ut472_th3v3gas/common/bootmagic.o
unicode_config      0x4               .build/obj_ut472_th3v3gas/quantum/process_keycode/process_unicode_common.o
USB_DeviceState     0x1               .build/obj_ut472_th3v3gas/lib/lufa/LUFA/Drivers/USB/Core/USBTask.o
unicode_saved_mods  0x1               .build/obj_ut472_th3v3gas/quantum/process_keycode/process_unicode_common.o
USB_Device_ConfigurationNumber
                    0x1               .build/obj_ut472_th3v3gas/lib/lufa/LUFA/Drivers/USB/Core/DeviceStandardReq.o
led                 0x18              .build/obj_ut472_th3v3gas/quantum/rgblight.o
raw_matrix          0x8               .build/obj_ut472_th3v3gas/quantum/matrix_common.o
USB_Device_CurrentlySelfPowered
                    0x1               .build/obj_ut472_th3v3gas/lib/lufa/LUFA/Drivers/USB/Core/DeviceStandardReq.o
matrix              0x8               .build/obj_ut472_th3v3gas/quantum/matrix_common.o
USB_ControlRequest  0x8               .build/obj_ut472_th3v3gas/lib/lufa/LUFA/Drivers/USB/Core/USBTask.o
tp_buttons          0x2               .build/obj_ut472_th3v3gas/common/action.o
USB_Device_RemoteWakeupEnabled
                    0x1               .build/obj_ut472_th3v3gas/lib/lufa/LUFA/Drivers/USB/Core/DeviceStandardReq.o
timer_count         0x4               .build/obj_ut472_th3v3gas/common/avr/timer.o

Discarded input sections

 .data          0x00000000        0x0 c:/users/nonej/documents/keyboard/msys64/home/nonej/qmk_utils/avr8-gnu-toolchain/bin/../lib/gcc/avr/8.3.0/../../../../avr/lib/avr35/crtatmega32u2.o
 .bss           0x00000000        0x0 c:/users/nonej/documents/keyboard/msys64/home/nonej/qmk_utils/avr8-gnu-toolchain/bin/../lib/gcc/avr/8.3.0/../../../../avr/lib/avr35/crtatmega32u2.o
 .text          0x00000000        0x0 .build/obj_ut472_th3v3gas/keyboards/ut472/ut472.o
 .data          0x00000000        0x0 .build/obj_ut472_th3v3gas/keyboards/ut472/ut472.o
 .bss           0x00000000        0x0 .build/obj_ut472_th3v3gas/keyboards/ut472/ut472.o
 .text          0x00000000        0x0 .build/obj_ut472_th3v3gas/keyboards/ut472/keymaps/th3v3gas/keymap.o
 .data          0x00000000        0x0 .build/obj_ut472_th3v3gas/keyboards/ut472/keymaps/th3v3gas/keymap.o
 .bss           0x00000000        0x0 .build/obj_ut472_th3v3gas/keyboards/ut472/keymaps/th3v3gas/keymap.o
 .text          0x00000000        0x0 .build/obj_ut472_th3v3gas/quantum/quantum.o
 .data          0x00000000        0x0 .build/obj_ut472_th3v3gas/quantum/quantum.o
 .bss           0x00000000        0x0 .build/obj_ut472_th3v3gas/quantum/quantum.o
 .text.process_record_user
                0x00000000        0x4 .build/obj_ut472_th3v3gas/quantum/quantum.o
 .text.send_string_with_delay_P
                0x00000000       0x74 .build/obj_ut472_th3v3gas/quantum/quantum.o
 .text.send_string_P
                0x00000000        0x6 .build/obj_ut472_th3v3gas/quantum/quantum.o
 .text.set_single_persistent_default_layer
                0x00000000       0x26 .build/obj_ut472_th3v3gas/quantum/quantum.o
 .text.update_tri_layer_state
                0x00000000       0xa8 .build/obj_ut472_th3v3gas/quantum/quantum.o
 .text.update_tri_layer
                0x00000000       0x24 .build/obj_ut472_th3v3gas/quantum/quantum.o
 .text.tap_random_base64
                0x00000000       0x84 .build/obj_ut472_th3v3gas/quantum/quantum.o
 .text.bootmagic_lite
                0x00000000       0x28 .build/obj_ut472_th3v3gas/quantum/quantum.o
 .text.send_nibble
                0x00000000       0x30 .build/obj_ut472_th3v3gas/quantum/quantum.o
 .text.send_byte
                0x00000000       0x16 .build/obj_ut472_th3v3gas/quantum/quantum.o
 .text.send_word
                0x00000000       0x12 .build/obj_ut472_th3v3gas/quantum/quantum.o
 .text.send_dword
                0x00000000       0x1c .build/obj_ut472_th3v3gas/quantum/quantum.o
 .text.api_send_unicode
                0x00000000        0x2 .build/obj_ut472_th3v3gas/quantum/quantum.o
 .text.led_init_ports
                0x00000000        0x2 .build/obj_ut472_th3v3gas/quantum/quantum.o
 .text.startup_user
                0x00000000        0x2 .build/obj_ut472_th3v3gas/quantum/quantum.o
 .text          0x00000000        0x0 .build/obj_ut472_th3v3gas/quantum/keymap_common.o
 .data          0x00000000        0x0 .build/obj_ut472_th3v3gas/quantum/keymap_common.o
 .bss           0x00000000        0x0 .build/obj_ut472_th3v3gas/quantum/keymap_common.o
 .text          0x00000000        0x0 .build/obj_ut472_th3v3gas/quantum/keycode_config.o
 .data          0x00000000        0x0 .build/obj_ut472_th3v3gas/quantum/keycode_config.o
 .bss           0x00000000        0x0 .build/obj_ut472_th3v3gas/quantum/keycode_config.o
 .text          0x00000000        0x0 .build/obj_ut472_th3v3gas/quantum/matrix_common.o
 .data          0x00000000        0x0 .build/obj_ut472_th3v3gas/quantum/matrix_common.o
 .bss           0x00000000        0x0 .build/obj_ut472_th3v3gas/quantum/matrix_common.o
 .text.matrix_init_user
                0x00000000        0x2 .build/obj_ut472_th3v3gas/quantum/matrix_common.o
 .text.matrix_init_kb
                0x00000000        0x4 .build/obj_ut472_th3v3gas/quantum/matrix_common.o
 .text.matrix_scan_kb
                0x00000000        0x4 .build/obj_ut472_th3v3gas/quantum/matrix_common.o
 .text.matrix_rows
                0x00000000        0x4 .build/obj_ut472_th3v3gas/quantum/matrix_common.o
 .text.matrix_cols
                0x00000000        0x4 .build/obj_ut472_th3v3gas/quantum/matrix_common.o
 .text.matrix_is_on
                0x00000000       0x2c .build/obj_ut472_th3v3gas/quantum/matrix_common.o
 .text.matrix_is_modified
                0x00000000        0xa .build/obj_ut472_th3v3gas/quantum/matrix_common.o
 .text.matrix_key_count
                0x00000000       0x2c .build/obj_ut472_th3v3gas/quantum/matrix_common.o
 .text.matrix_init_custom
                0x00000000        0x2 .build/obj_ut472_th3v3gas/quantum/matrix_common.o
 .text.matrix_scan_custom
                0x00000000        0x4 .build/obj_ut472_th3v3gas/quantum/matrix_common.o
 .text.matrix_init
                0x00000000       0x44 .build/obj_ut472_th3v3gas/quantum/matrix_common.o
 .text.matrix_scan
                0x00000000       0x26 .build/obj_ut472_th3v3gas/quantum/matrix_common.o
 .text          0x00000000        0x0 .build/obj_ut472_th3v3gas/quantum/matrix.o
 .data          0x00000000        0x0 .build/obj_ut472_th3v3gas/quantum/matrix.o
 .bss           0x00000000        0x0 .build/obj_ut472_th3v3gas/quantum/matrix.o
 .text          0x00000000        0x0 .build/obj_ut472_th3v3gas/quantum/debounce/sym_g.o
 .data          0x00000000        0x0 .build/obj_ut472_th3v3gas/quantum/debounce/sym_g.o
 .bss           0x00000000        0x0 .build/obj_ut472_th3v3gas/quantum/debounce/sym_g.o
 .text.debounce_active
                0x00000000        0x6 .build/obj_ut472_th3v3gas/quantum/debounce/sym_g.o
 .text          0x00000000        0x0 .build/obj_ut472_th3v3gas/quantum/process_keycode/process_combo.o
 .data          0x00000000        0x0 .build/obj_ut472_th3v3gas/quantum/process_keycode/process_combo.o
 .bss           0x00000000        0x0 .build/obj_ut472_th3v3gas/quantum/process_keycode/process_combo.o
 .text.combo_enable
                0x00000000        0x8 .build/obj_ut472_th3v3gas/quantum/process_keycode/process_combo.o
 .text.is_combo_enabled
                0x00000000        0x6 .build/obj_ut472_th3v3gas/quantum/process_keycode/process_combo.o
 .bss.key_combos
                0x00000000        0xa .build/obj_ut472_th3v3gas/quantum/process_keycode/process_combo.o
 .text          0x00000000        0x0 .build/obj_ut472_th3v3gas/quantum/process_keycode/process_unicode.o
 .data          0x00000000        0x0 .build/obj_ut472_th3v3gas/quantum/process_keycode/process_unicode.o
 .bss           0x00000000        0x0 .build/obj_ut472_th3v3gas/quantum/process_keycode/process_unicode.o
 .text          0x00000000        0x0 .build/obj_ut472_th3v3gas/quantum/process_keycode/process_unicode_common.o
 .data          0x00000000        0x0 .build/obj_ut472_th3v3gas/quantum/process_keycode/process_unicode_common.o
 .bss           0x00000000        0x0 .build/obj_ut472_th3v3gas/quantum/process_keycode/process_unicode_common.o
 .text.get_unicode_input_mode
                0x00000000        0x6 .build/obj_ut472_th3v3gas/quantum/process_keycode/process_unicode_common.o
 .text.cycle_unicode_input_mode
                0x00000000        0x2 .build/obj_ut472_th3v3gas/quantum/process_keycode/process_unicode_common.o
 .text.unicode_input_cancel
                0x00000000       0x2a .build/obj_ut472_th3v3gas/quantum/process_keycode/process_unicode_common.o
 .text.hex_to_keycode
                0x00000000       0x18 .build/obj_ut472_th3v3gas/quantum/process_keycode/process_unicode_common.o
 .rodata.send_unicode_hex_string.str1.1
                0x00000000        0x2 .build/obj_ut472_th3v3gas/quantum/process_keycode/process_unicode_common.o
 .text.send_unicode_hex_string
                0x00000000       0xd8 .build/obj_ut472_th3v3gas/quantum/process_keycode/process_unicode_common.o
 .text.decode_utf8
                0x00000000      0x10a .build/obj_ut472_th3v3gas/quantum/process_keycode/process_unicode_common.o
 .text.send_unicode_string
                0x00000000       0x64 .build/obj_ut472_th3v3gas/quantum/process_keycode/process_unicode_common.o
 .text          0x00000000        0x0 .build/obj_ut472_th3v3gas/quantum/color.o
 .data          0x00000000        0x0 .build/obj_ut472_th3v3gas/quantum/color.o
 .bss           0x00000000        0x0 .build/obj_ut472_th3v3gas/quantum/color.o
 .text          0x00000000        0x0 .build/obj_ut472_th3v3gas/quantum/rgblight.o
 .data          0x00000000        0x0 .build/obj_ut472_th3v3gas/quantum/rgblight.o
 .bss           0x00000000        0x0 .build/obj_ut472_th3v3gas/quantum/rgblight.o
 .text.rgblight_set_clipping_range
                0x00000000        0xa .build/obj_ut472_th3v3gas/quantum/rgblight.o
 .text.rgblight_set_effect_range
                0x00000000       0x22 .build/obj_ut472_th3v3gas/quantum/rgblight.o
 .text.sethsv   0x00000000        0x4 .build/obj_ut472_th3v3gas/quantum/rgblight.o
 .text.setrgb   0x00000000        0xa .build/obj_ut472_th3v3gas/quantum/rgblight.o
 .text.eeconfig_update_rgblight_current
                0x00000000       0x14 .build/obj_ut472_th3v3gas/quantum/rgblight.o
 .text.eeconfig_debug_rgblight
                0x00000000        0x2 .build/obj_ut472_th3v3gas/quantum/rgblight.o
 .text.rgblight_read_dword
                0x00000000       0x12 .build/obj_ut472_th3v3gas/quantum/rgblight.o
 .text.rgblight_get_speed
                0x00000000        0x6 .build/obj_ut472_th3v3gas/quantum/rgblight.o
 .text.rgblight_set_speed_eeprom_helper
                0x00000000       0x1e .build/obj_ut472_th3v3gas/quantum/rgblight.o
 .text.rgblight_set_speed
                0x00000000        0x6 .build/obj_ut472_th3v3gas/quantum/rgblight.o
 .text.rgblight_set_speed_noeeprom
                0x00000000        0x6 .build/obj_ut472_th3v3gas/quantum/rgblight.o
 .text.rgblight_get_hue
                0x00000000        0x6 .build/obj_ut472_th3v3gas/quantum/rgblight.o
 .text.rgblight_get_sat
                0x00000000        0x6 .build/obj_ut472_th3v3gas/quantum/rgblight.o
 .text.rgblight_get_val
                0x00000000        0x6 .build/obj_ut472_th3v3gas/quantum/rgblight.o
 .text.rgblight_increase_hue_noeeprom
                0x00000000        0x6 .build/obj_ut472_th3v3gas/quantum/rgblight.o
 .text.rgblight_decrease_hue_noeeprom
                0x00000000        0x6 .build/obj_ut472_th3v3gas/quantum/rgblight.o
 .text.rgblight_increase_sat_noeeprom
                0x00000000        0x6 .build/obj_ut472_th3v3gas/quantum/rgblight.o
 .text.rgblight_decrease_sat_noeeprom
                0x00000000        0x6 .build/obj_ut472_th3v3gas/quantum/rgblight.o
 .text.rgblight_increase_val_noeeprom
                0x00000000        0x6 .build/obj_ut472_th3v3gas/quantum/rgblight.o
 .text.rgblight_decrease_val_noeeprom
                0x00000000        0x6 .build/obj_ut472_th3v3gas/quantum/rgblight.o
 .text.rgblight_sethsv
                0x00000000        0x6 .build/obj_ut472_th3v3gas/quantum/rgblight.o
 .text.rgblight_setrgb_at
                0x00000000       0x2e .build/obj_ut472_th3v3gas/quantum/rgblight.o
 .text.rgblight_sethsv_at
                0x00000000       0x3c .build/obj_ut472_th3v3gas/quantum/rgblight.o
 .text.rgblight_setrgb_range
                0x00000000       0x4a .build/obj_ut472_th3v3gas/quantum/rgblight.o
 .text.rgblight_sethsv_range
                0x00000000       0x40 .build/obj_ut472_th3v3gas/quantum/rgblight.o
 .text.rgblight_sethsv_master
                0x00000000        0xe .build/obj_ut472_th3v3gas/quantum/rgblight.o
 .text.rgblight_sethsv_slave
                0x00000000        0xe .build/obj_ut472_th3v3gas/quantum/rgblight.o
 .text.rgblight_setrgb_master
                0x00000000        0xe .build/obj_ut472_th3v3gas/quantum/rgblight.o
 .text.rgblight_setrgb_slave
                0x00000000        0xe .build/obj_ut472_th3v3gas/quantum/rgblight.o
 .text.rgblight_disable_noeeprom
                0x00000000       0x24 .build/obj_ut472_th3v3gas/quantum/rgblight.o
 .text.rgblight_timer_init
                0x00000000        0x6 .build/obj_ut472_th3v3gas/quantum/rgblight.o
 .text.rgblight_step_noeeprom
                0x00000000        0x6 .build/obj_ut472_th3v3gas/quantum/rgblight.o
 .text.rgblight_step_reverse_noeeprom
                0x00000000        0x6 .build/obj_ut472_th3v3gas/quantum/rgblight.o
 .text.rgblight_increase
                0x00000000       0x14 .build/obj_ut472_th3v3gas/quantum/rgblight.o
 .text.rgblight_decrease
                0x00000000       0x14 .build/obj_ut472_th3v3gas/quantum/rgblight.o
 .text.rgblight_enable_noeeprom
                0x00000000       0x10 .build/obj_ut472_th3v3gas/quantum/rgblight.o
 .text.rgblight_toggle_noeeprom
                0x00000000        0xe .build/obj_ut472_th3v3gas/quantum/rgblight.o
 .text.rgblight_update_dword
                0x00000000       0x24 .build/obj_ut472_th3v3gas/quantum/rgblight.o
 .text.rgblight_timer_disable
                0x00000000        0x6 .build/obj_ut472_th3v3gas/quantum/rgblight.o
 .text.rgblight_timer_toggle
                0x00000000       0x12 .build/obj_ut472_th3v3gas/quantum/rgblight.o
 .text.rgblight_show_solid_color
                0x00000000       0x26 .build/obj_ut472_th3v3gas/quantum/rgblight.o
 .text          0x00000000        0x0 .build/obj_ut472_th3v3gas/quantum/process_keycode/process_rgb.o
 .data          0x00000000        0x0 .build/obj_ut472_th3v3gas/quantum/process_keycode/process_rgb.o
 .bss           0x00000000        0x0 .build/obj_ut472_th3v3gas/quantum/process_keycode/process_rgb.o
 .text.rgblight_step
                0x00000000        0x2 .build/obj_ut472_th3v3gas/quantum/process_keycode/process_rgb.o
 .text.rgblight_step_reverse
                0x00000000        0x2 .build/obj_ut472_th3v3gas/quantum/process_keycode/process_rgb.o
 .text.rgblight_increase_hue
                0x00000000        0x2 .build/obj_ut472_th3v3gas/quantum/process_keycode/process_rgb.o
 .text.rgblight_decrease_hue
                0x00000000        0x2 .build/obj_ut472_th3v3gas/quantum/process_keycode/process_rgb.o
 .text.rgblight_increase_sat
                0x00000000        0x2 .build/obj_ut472_th3v3gas/quantum/process_keycode/process_rgb.o
 .text.rgblight_decrease_sat
                0x00000000        0x2 .build/obj_ut472_th3v3gas/quantum/process_keycode/process_rgb.o
 .text.rgblight_increase_val
                0x00000000        0x2 .build/obj_ut472_th3v3gas/quantum/process_keycode/process_rgb.o
 .text.rgblight_decrease_val
                0x00000000        0x2 .build/obj_ut472_th3v3gas/quantum/process_keycode/process_rgb.o
 .text.rgblight_increase_speed
                0x00000000        0x2 .build/obj_ut472_th3v3gas/quantum/process_keycode/process_rgb.o
 .text.rgblight_decrease_speed
                0x00000000        0x2 .build/obj_ut472_th3v3gas/quantum/process_keycode/process_rgb.o
 .text.rgblight_toggle
                0x00000000        0x2 .build/obj_ut472_th3v3gas/quantum/process_keycode/process_rgb.o
 .text          0x00000000        0x0 .build/obj_ut472_th3v3gas/quantum/process_keycode/process_tap_dance.o
 .data          0x00000000        0x0 .build/obj_ut472_th3v3gas/quantum/process_keycode/process_tap_dance.o
 .bss           0x00000000        0x0 .build/obj_ut472_th3v3gas/quantum/process_keycode/process_tap_dance.o
 .text.qk_tap_dance_dual_role_on_each_tap
                0x00000000       0x1e .build/obj_ut472_th3v3gas/quantum/process_keycode/process_tap_dance.o
 .text.qk_tap_dance_dual_role_finished
                0x00000000       0x26 .build/obj_ut472_th3v3gas/quantum/process_keycode/process_tap_dance.o
 .text.qk_tap_dance_dual_role_reset
                0x00000000       0x14 .build/obj_ut472_th3v3gas/quantum/process_keycode/process_tap_dance.o
 .text          0x00000000        0x0 .build/obj_ut472_th3v3gas/ws2812.o
 .data          0x00000000        0x0 .build/obj_ut472_th3v3gas/ws2812.o
 .bss           0x00000000        0x0 .build/obj_ut472_th3v3gas/ws2812.o
 .text.ws2812_sendarray
                0x00000000        0x6 .build/obj_ut472_th3v3gas/ws2812.o
 .text          0x00000000        0x0 .build/obj_ut472_th3v3gas/quantum/led_tables.o
 .data          0x00000000        0x0 .build/obj_ut472_th3v3gas/quantum/led_tables.o
 .bss           0x00000000        0x0 .build/obj_ut472_th3v3gas/quantum/led_tables.o
 .progmem.data.LED_BREATHING_TABLE
                0x00000000      0x100 .build/obj_ut472_th3v3gas/quantum/led_tables.o
 .text          0x00000000        0x0 .build/obj_ut472_th3v3gas/quantum/process_keycode/process_space_cadet.o
 .data          0x00000000        0x0 .build/obj_ut472_th3v3gas/quantum/process_keycode/process_space_cadet.o
 .bss           0x00000000        0x0 .build/obj_ut472_th3v3gas/quantum/process_keycode/process_space_cadet.o
 .text          0x00000000        0x0 .build/obj_ut472_th3v3gas/quantum/process_keycode/process_magic.o
 .data          0x00000000        0x0 .build/obj_ut472_th3v3gas/quantum/process_keycode/process_magic.o
 .bss           0x00000000        0x0 .build/obj_ut472_th3v3gas/quantum/process_keycode/process_magic.o
 .text          0x00000000        0x0 .build/obj_ut472_th3v3gas/quantum/process_keycode/process_grave_esc.o
 .data          0x00000000        0x0 .build/obj_ut472_th3v3gas/quantum/process_keycode/process_grave_esc.o
 .bss           0x00000000        0x0 .build/obj_ut472_th3v3gas/quantum/process_keycode/process_grave_esc.o
 .text          0x00000000        0x0 .build/obj_ut472_th3v3gas/common/host.o
 .data          0x00000000        0x0 .build/obj_ut472_th3v3gas/common/host.o
 .bss           0x00000000        0x0 .build/obj_ut472_th3v3gas/common/host.o
 .text.host_get_driver
                0x00000000        0xa .build/obj_ut472_th3v3gas/common/host.o
 .text.host_keyboard_led_state
                0x00000000       0x1a .build/obj_ut472_th3v3gas/common/host.o
 .text.host_last_system_report
                0x00000000        0xa .build/obj_ut472_th3v3gas/common/host.o
 .text.host_last_consumer_report
                0x00000000        0xa .build/obj_ut472_th3v3gas/common/host.o
 .text          0x00000000        0x0 .build/obj_ut472_th3v3gas/common/keyboard.o
 .data          0x00000000        0x0 .build/obj_ut472_th3v3gas/common/keyboard.o
 .bss           0x00000000        0x0 .build/obj_ut472_th3v3gas/common/keyboard.o
 .text.disable_jtag
                0x00000000        0x2 .build/obj_ut472_th3v3gas/common/keyboard.o
 .text.keyboard_set_leds
                0x00000000        0x4 .build/obj_ut472_th3v3gas/common/keyboard.o
 .text          0x00000000        0x0 .build/obj_ut472_th3v3gas/common/action.o
 .data          0x00000000        0x0 .build/obj_ut472_th3v3gas/common/action.o
 .bss           0x00000000        0x0 .build/obj_ut472_th3v3gas/common/action.o
 .text.process_record_quantum
                0x00000000        0x4 .build/obj_ut472_th3v3gas/common/action.o
 .text.process_record_nocache
                0x00000000       0x10 .build/obj_ut472_th3v3gas/common/action.o
 .text.debug_action
                0x00000000        0x2 .build/obj_ut472_th3v3gas/common/action.o
 .text          0x00000000        0x0 .build/obj_ut472_th3v3gas/common/action_tapping.o
 .data          0x00000000        0x0 .build/obj_ut472_th3v3gas/common/action_tapping.o
 .bss           0x00000000        0x0 .build/obj_ut472_th3v3gas/common/action_tapping.o
 .text.get_tapping_term
                0x00000000        0x6 .build/obj_ut472_th3v3gas/common/action_tapping.o
 .text          0x00000000        0x0 .build/obj_ut472_th3v3gas/common/action_macro.o
 .data          0x00000000        0x0 .build/obj_ut472_th3v3gas/common/action_macro.o
 .bss           0x00000000        0x0 .build/obj_ut472_th3v3gas/common/action_macro.o
 .text          0x00000000        0x0 .build/obj_ut472_th3v3gas/common/action_layer.o
 .data          0x00000000        0x0 .build/obj_ut472_th3v3gas/common/action_layer.o
 .bss           0x00000000        0x0 .build/obj_ut472_th3v3gas/common/action_layer.o
 .text.layer_state_cmp
                0x00000000       0x2a .build/obj_ut472_th3v3gas/common/action_layer.o
 .text.layer_state_is
                0x00000000       0x16 .build/obj_ut472_th3v3gas/common/action_layer.o
 .text          0x00000000        0x0 .build/obj_ut472_th3v3gas/common/action_util.o
 .data          0x00000000        0x0 .build/obj_ut472_th3v3gas/common/action_util.o
 .bss           0x00000000        0x0 .build/obj_ut472_th3v3gas/common/action_util.o
 .text.get_oneshot_locked_mods
                0x00000000        0x6 .build/obj_ut472_th3v3gas/common/action_util.o
 .text.has_oneshot_mods_timed_out
                0x00000000        0x4 .build/obj_ut472_th3v3gas/common/action_util.o
 .text.set_weak_mods
                0x00000000        0x6 .build/obj_ut472_th3v3gas/common/action_util.o
 .text.get_macro_mods
                0x00000000        0x6 .build/obj_ut472_th3v3gas/common/action_util.o
 .text.set_macro_mods
                0x00000000        0x6 .build/obj_ut472_th3v3gas/common/action_util.o
 .text.oneshot_locked_mods_changed_user
                0x00000000        0x2 .build/obj_ut472_th3v3gas/common/action_util.o
 .text.oneshot_locked_mods_changed_kb
                0x00000000        0x4 .build/obj_ut472_th3v3gas/common/action_util.o
 .text.set_oneshot_locked_mods
                0x00000000       0x12 .build/obj_ut472_th3v3gas/common/action_util.o
 .text.clear_oneshot_locked_mods
                0x00000000       0x14 .build/obj_ut472_th3v3gas/common/action_util.o
 .text.has_anymod
                0x00000000        0x8 .build/obj_ut472_th3v3gas/common/action_util.o
 .bss.oneshot_locked_mods
                0x00000000        0x1 .build/obj_ut472_th3v3gas/common/action_util.o
 .text          0x00000000        0x0 .build/obj_ut472_th3v3gas/common/print.o
 .data          0x00000000        0x0 .build/obj_ut472_th3v3gas/common/print.o
 .bss           0x00000000        0x0 .build/obj_ut472_th3v3gas/common/print.o
 .debug_info    0x00000000       0x56 .build/obj_ut472_th3v3gas/common/print.o
 .debug_abbrev  0x00000000       0x26 .build/obj_ut472_th3v3gas/common/print.o
 .debug_aranges
                0x00000000       0x18 .build/obj_ut472_th3v3gas/common/print.o
 .debug_line    0x00000000       0x1d .build/obj_ut472_th3v3gas/common/print.o
 .debug_str     0x00000000      0x1a3 .build/obj_ut472_th3v3gas/common/print.o
 .comment       0x00000000       0x12 .build/obj_ut472_th3v3gas/common/print.o
 .text          0x00000000        0x0 .build/obj_ut472_th3v3gas/common/debug.o
 .data          0x00000000        0x0 .build/obj_ut472_th3v3gas/common/debug.o
 .bss           0x00000000        0x0 .build/obj_ut472_th3v3gas/common/debug.o
 .text          0x00000000        0x0 .build/obj_ut472_th3v3gas/common/util.o
 .data          0x00000000        0x0 .build/obj_ut472_th3v3gas/common/util.o
 .bss           0x00000000        0x0 .build/obj_ut472_th3v3gas/common/util.o
 .text.bitpop   0x00000000       0x14 .build/obj_ut472_th3v3gas/common/util.o
 .text.bitpop16
                0x00000000       0x18 .build/obj_ut472_th3v3gas/common/util.o
 .text.bitpop32
                0x00000000       0x3a .build/obj_ut472_th3v3gas/common/util.o
 .text.biton    0x00000000       0x22 .build/obj_ut472_th3v3gas/common/util.o
 .text.biton16  0x00000000       0x48 .build/obj_ut472_th3v3gas/common/util.o
 .text.biton32  0x00000000       0x9a .build/obj_ut472_th3v3gas/common/util.o
 .text.bitrev   0x00000000       0x30 .build/obj_ut472_th3v3gas/common/util.o
 .text.bitrev16
                0x00000000       0x1a .build/obj_ut472_th3v3gas/common/util.o
 .text.bitrev32
                0x00000000       0x4c .build/obj_ut472_th3v3gas/common/util.o
 .debug_info    0x00000000      0x2f9 .build/obj_ut472_th3v3gas/common/util.o
 .debug_abbrev  0x00000000       0xdd .build/obj_ut472_th3v3gas/common/util.o
 .debug_loc     0x00000000      0x58d .build/obj_ut472_th3v3gas/common/util.o
 .debug_aranges
                0x00000000       0x60 .build/obj_ut472_th3v3gas/common/util.o
 .debug_ranges  0x00000000       0x50 .build/obj_ut472_th3v3gas/common/util.o
 .debug_line    0x00000000      0x67d .build/obj_ut472_th3v3gas/common/util.o
 .debug_str     0x00000000      0x209 .build/obj_ut472_th3v3gas/common/util.o
 .comment       0x00000000       0x12 .build/obj_ut472_th3v3gas/common/util.o
 .debug_frame   0x00000000      0x110 .build/obj_ut472_th3v3gas/common/util.o
 .text          0x00000000        0x0 .build/obj_ut472_th3v3gas/common/eeconfig.o
 .data          0x00000000        0x0 .build/obj_ut472_th3v3gas/common/eeconfig.o
 .bss           0x00000000        0x0 .build/obj_ut472_th3v3gas/common/eeconfig.o
 .text.eeconfig_enable
                0x00000000        0xc .build/obj_ut472_th3v3gas/common/eeconfig.o
 .text.eeconfig_disable
                0x00000000        0xc .build/obj_ut472_th3v3gas/common/eeconfig.o
 .text.eeconfig_is_disabled
                0x00000000       0x14 .build/obj_ut472_th3v3gas/common/eeconfig.o
 .text.eeconfig_read_backlight
                0x00000000        0x8 .build/obj_ut472_th3v3gas/common/eeconfig.o
 .text.eeconfig_update_backlight
                0x00000000        0xa .build/obj_ut472_th3v3gas/common/eeconfig.o
 .text.eeconfig_read_audio
                0x00000000        0x8 .build/obj_ut472_th3v3gas/common/eeconfig.o
 .text.eeconfig_update_audio
                0x00000000        0xa .build/obj_ut472_th3v3gas/common/eeconfig.o
 .text.eeconfig_read_kb
                0x00000000        0x8 .build/obj_ut472_th3v3gas/common/eeconfig.o
 .text.eeconfig_read_user
                0x00000000        0x8 .build/obj_ut472_th3v3gas/common/eeconfig.o
 .text.eeconfig_read_haptic
                0x00000000        0x8 .build/obj_ut472_th3v3gas/common/eeconfig.o
 .text.eeconfig_update_haptic
                0x00000000        0xc .build/obj_ut472_th3v3gas/common/eeconfig.o
 .text.eeconfig_read_handedness
                0x00000000       0x14 .build/obj_ut472_th3v3gas/common/eeconfig.o
 .text          0x00000000        0x0 .build/obj_ut472_th3v3gas/common/report.o
 .data          0x00000000        0x0 .build/obj_ut472_th3v3gas/common/report.o
 .bss           0x00000000        0x0 .build/obj_ut472_th3v3gas/common/report.o
 .text.get_first_key
                0x00000000       0x4a .build/obj_ut472_th3v3gas/common/report.o
 .text          0x00000000        0x0 .build/obj_ut472_th3v3gas/common/avr/suspend.o
 .data          0x00000000        0x0 .build/obj_ut472_th3v3gas/common/avr/suspend.o
 .bss           0x00000000        0x0 .build/obj_ut472_th3v3gas/common/avr/suspend.o
 .text.suspend_idle
                0x00000000       0x1a .build/obj_ut472_th3v3gas/common/avr/suspend.o
 .text          0x00000000        0x0 .build/obj_ut472_th3v3gas/common/avr/timer.o
 .data          0x00000000        0x0 .build/obj_ut472_th3v3gas/common/avr/timer.o
 .bss           0x00000000        0x0 .build/obj_ut472_th3v3gas/common/avr/timer.o
 .text.timer_clear
                0x00000000       0x18 .build/obj_ut472_th3v3gas/common/avr/timer.o
 .text.timer_read32
                0x00000000       0x18 .build/obj_ut472_th3v3gas/common/avr/timer.o
 .text.timer_elapsed32
                0x00000000       0x3a .build/obj_ut472_th3v3gas/common/avr/timer.o
 .text          0x00000000        0x0 .build/obj_ut472_th3v3gas/common/avr/bootloader.o
 .data          0x00000000        0x0 .build/obj_ut472_th3v3gas/common/avr/bootloader.o
 .bss           0x00000000        0x0 .build/obj_ut472_th3v3gas/common/avr/bootloader.o
 .text          0x00000000      0x15c .build/obj_ut472_th3v3gas/common/avr/xprintf.o
 .data          0x00000000        0x0 .build/obj_ut472_th3v3gas/common/avr/xprintf.o
 .bss           0x00000000        0x2 .build/obj_ut472_th3v3gas/common/avr/xprintf.o
 .stab          0x00000000      0x8b8 .build/obj_ut472_th3v3gas/common/avr/xprintf.o
 .text          0x00000000        0x0 .build/obj_ut472_th3v3gas/common/bootmagic.o
 .data          0x00000000        0x0 .build/obj_ut472_th3v3gas/common/bootmagic.o
 .bss           0x00000000        0x0 .build/obj_ut472_th3v3gas/common/bootmagic.o
 .text          0x00000000        0x0 .build/obj_ut472_th3v3gas/common/mousekey.o
 .data          0x00000000        0x0 .build/obj_ut472_th3v3gas/common/mousekey.o
 .bss           0x00000000        0x0 .build/obj_ut472_th3v3gas/common/mousekey.o
 .text          0x00000000        0x0 .build/obj_ut472_th3v3gas/lufa.o
 .data          0x00000000        0x0 .build/obj_ut472_th3v3gas/lufa.o
 .bss           0x00000000        0x0 .build/obj_ut472_th3v3gas/lufa.o
 .text.EVENT_USB_Device_Connect
                0x00000000       0x1c .build/obj_ut472_th3v3gas/lufa.o
 .text.EVENT_USB_Device_Disconnect
                0x00000000        0x6 .build/obj_ut472_th3v3gas/lufa.o
 .text.sendchar
                0x00000000        0x4 .build/obj_ut472_th3v3gas/lufa.o
 .text          0x00000000        0x0 .build/obj_ut472_th3v3gas/usb_descriptor.o
 .data          0x00000000        0x0 .build/obj_ut472_th3v3gas/usb_descriptor.o
 .bss           0x00000000        0x0 .build/obj_ut472_th3v3gas/usb_descriptor.o
 .text          0x00000000        0x0 .build/obj_ut472_th3v3gas/outputselect.o
 .data          0x00000000        0x0 .build/obj_ut472_th3v3gas/outputselect.o
 .bss           0x00000000        0x0 .build/obj_ut472_th3v3gas/outputselect.o
 .text.set_output_user
                0x00000000        0x2 .build/obj_ut472_th3v3gas/outputselect.o
 .text.set_output
                0x00000000       0x10 .build/obj_ut472_th3v3gas/outputselect.o
 .text          0x00000000        0x0 .build/obj_ut472_th3v3gas/lib/lufa/LUFA/Drivers/USB/Class/Common/HIDParser.o
 .data          0x00000000        0x0 .build/obj_ut472_th3v3gas/lib/lufa/LUFA/Drivers/USB/Class/Common/HIDParser.o
 .bss           0x00000000        0x0 .build/obj_ut472_th3v3gas/lib/lufa/LUFA/Drivers/USB/Class/Common/HIDParser.o
 .text.USB_ProcessHIDReport
                0x00000000      0x6d0 .build/obj_ut472_th3v3gas/lib/lufa/LUFA/Drivers/USB/Class/Common/HIDParser.o
 .text.USB_GetHIDReportItemInfo
                0x00000000       0xc0 .build/obj_ut472_th3v3gas/lib/lufa/LUFA/Drivers/USB/Class/Common/HIDParser.o
 .text.USB_SetHIDReportItemInfo
                0x00000000       0xb6 .build/obj_ut472_th3v3gas/lib/lufa/LUFA/Drivers/USB/Class/Common/HIDParser.o
 .text.USB_GetHIDReportSize
                0x00000000       0x52 .build/obj_ut472_th3v3gas/lib/lufa/LUFA/Drivers/USB/Class/Common/HIDParser.o
 .debug_info    0x00000000      0x804 .build/obj_ut472_th3v3gas/lib/lufa/LUFA/Drivers/USB/Class/Common/HIDParser.o
 .debug_abbrev  0x00000000      0x253 .build/obj_ut472_th3v3gas/lib/lufa/LUFA/Drivers/USB/Class/Common/HIDParser.o
 .debug_loc     0x00000000      0xcda .build/obj_ut472_th3v3gas/lib/lufa/LUFA/Drivers/USB/Class/Common/HIDParser.o
 .debug_aranges
                0x00000000       0x38 .build/obj_ut472_th3v3gas/lib/lufa/LUFA/Drivers/USB/Class/Common/HIDParser.o
 .debug_ranges  0x00000000      0x100 .build/obj_ut472_th3v3gas/lib/lufa/LUFA/Drivers/USB/Class/Common/HIDParser.o
 .debug_line    0x00000000      0xdf6 .build/obj_ut472_th3v3gas/lib/lufa/LUFA/Drivers/USB/Class/Common/HIDParser.o
 .debug_str     0x00000000      0x6d7 .build/obj_ut472_th3v3gas/lib/lufa/LUFA/Drivers/USB/Class/Common/HIDParser.o
 .comment       0x00000000       0x12 .build/obj_ut472_th3v3gas/lib/lufa/LUFA/Drivers/USB/Class/Common/HIDParser.o
 .debug_frame   0x00000000      0x134 .build/obj_ut472_th3v3gas/lib/lufa/LUFA/Drivers/USB/Class/Common/HIDParser.o
 .text          0x00000000        0x0 .build/obj_ut472_th3v3gas/lib/lufa/LUFA/Drivers/USB/Core/AVR8/Device_AVR8.o
 .data          0x00000000        0x0 .build/obj_ut472_th3v3gas/lib/lufa/LUFA/Drivers/USB/Core/AVR8/Device_AVR8.o
 .bss           0x00000000        0x0 .build/obj_ut472_th3v3gas/lib/lufa/LUFA/Drivers/USB/Core/AVR8/Device_AVR8.o
 .text          0x00000000        0x0 .build/obj_ut472_th3v3gas/lib/lufa/LUFA/Drivers/USB/Core/AVR8/EndpointStream_AVR8.o
 .data          0x00000000        0x0 .build/obj_ut472_th3v3gas/lib/lufa/LUFA/Drivers/USB/Core/AVR8/EndpointStream_AVR8.o
 .bss           0x00000000        0x0 .build/obj_ut472_th3v3gas/lib/lufa/LUFA/Drivers/USB/Core/AVR8/EndpointStream_AVR8.o
 .text.Endpoint_Discard_Stream
                0x00000000       0x78 .build/obj_ut472_th3v3gas/lib/lufa/LUFA/Drivers/USB/Core/AVR8/EndpointStream_AVR8.o
 .text.Endpoint_Null_Stream
                0x00000000       0x78 .build/obj_ut472_th3v3gas/lib/lufa/LUFA/Drivers/USB/Core/AVR8/EndpointStream_AVR8.o
 .text.Endpoint_Write_Stream_BE
                0x00000000       0xa8 .build/obj_ut472_th3v3gas/lib/lufa/LUFA/Drivers/USB/Core/AVR8/EndpointStream_AVR8.o
 .text.Endpoint_Read_Stream_LE
                0x00000000       0x9e .build/obj_ut472_th3v3gas/lib/lufa/LUFA/Drivers/USB/Core/AVR8/EndpointStream_AVR8.o
 .text.Endpoint_Read_Stream_BE
                0x00000000       0xa8 .build/obj_ut472_th3v3gas/lib/lufa/LUFA/Drivers/USB/Core/AVR8/EndpointStream_AVR8.o
 .text.Endpoint_Write_PStream_LE
                0x00000000       0xa0 .build/obj_ut472_th3v3gas/lib/lufa/LUFA/Drivers/USB/Core/AVR8/EndpointStream_AVR8.o
 .text.Endpoint_Write_PStream_BE
                0x00000000       0xaa .build/obj_ut472_th3v3gas/lib/lufa/LUFA/Drivers/USB/Core/AVR8/EndpointStream_AVR8.o
 .text.Endpoint_Write_EStream_LE
                0x00000000       0xa2 .build/obj_ut472_th3v3gas/lib/lufa/LUFA/Drivers/USB/Core/AVR8/EndpointStream_AVR8.o
 .text.Endpoint_Write_EStream_BE
                0x00000000       0xac .build/obj_ut472_th3v3gas/lib/lufa/LUFA/Drivers/USB/Core/AVR8/EndpointStream_AVR8.o
 .text.Endpoint_Read_EStream_LE
                0x00000000       0xa2 .build/obj_ut472_th3v3gas/lib/lufa/LUFA/Drivers/USB/Core/AVR8/EndpointStream_AVR8.o
 .text.Endpoint_Read_EStream_BE
                0x00000000       0xac .build/obj_ut472_th3v3gas/lib/lufa/LUFA/Drivers/USB/Core/AVR8/EndpointStream_AVR8.o
 .text.Endpoint_Write_Control_Stream_BE
                0x00000000       0xc4 .build/obj_ut472_th3v3gas/lib/lufa/LUFA/Drivers/USB/Core/AVR8/EndpointStream_AVR8.o
 .text.Endpoint_Read_Control_Stream_LE
                0x00000000       0x6e .build/obj_ut472_th3v3gas/lib/lufa/LUFA/Drivers/USB/Core/AVR8/EndpointStream_AVR8.o
 .text.Endpoint_Read_Control_Stream_BE
                0x00000000       0x7a .build/obj_ut472_th3v3gas/lib/lufa/LUFA/Drivers/USB/Core/AVR8/EndpointStream_AVR8.o
 .text.Endpoint_Write_Control_PStream_BE
                0x00000000       0xc0 .build/obj_ut472_th3v3gas/lib/lufa/LUFA/Drivers/USB/Core/AVR8/EndpointStream_AVR8.o
 .text.Endpoint_Write_Control_EStream_LE
                0x00000000       0xd4 .build/obj_ut472_th3v3gas/lib/lufa/LUFA/Drivers/USB/Core/AVR8/EndpointStream_AVR8.o
 .text.Endpoint_Write_Control_EStream_BE
                0x00000000       0xde .build/obj_ut472_th3v3gas/lib/lufa/LUFA/Drivers/USB/Core/AVR8/EndpointStream_AVR8.o
 .text.Endpoint_Read_Control_EStream_LE
                0x00000000       0x82 .build/obj_ut472_th3v3gas/lib/lufa/LUFA/Drivers/USB/Core/AVR8/EndpointStream_AVR8.o
 .text.Endpoint_Read_Control_EStream_BE
                0x00000000       0x8a .build/obj_ut472_th3v3gas/lib/lufa/LUFA/Drivers/USB/Core/AVR8/EndpointStream_AVR8.o
 .text          0x00000000        0x0 .build/obj_ut472_th3v3gas/lib/lufa/LUFA/Drivers/USB/Core/AVR8/Endpoint_AVR8.o
 .data          0x00000000        0x0 .build/obj_ut472_th3v3gas/lib/lufa/LUFA/Drivers/USB/Core/AVR8/Endpoint_AVR8.o
 .bss           0x00000000        0x0 .build/obj_ut472_th3v3gas/lib/lufa/LUFA/Drivers/USB/Core/AVR8/Endpoint_AVR8.o
 .text.Endpoint_ConfigureEndpointTable
                0x00000000       0x7a .build/obj_ut472_th3v3gas/lib/lufa/LUFA/Drivers/USB/Core/AVR8/Endpoint_AVR8.o
 .text.Endpoint_ClearEndpoints
                0x00000000       0x28 .build/obj_ut472_th3v3gas/lib/lufa/LUFA/Drivers/USB/Core/AVR8/Endpoint_AVR8.o
 .text          0x00000000        0x0 .build/obj_ut472_th3v3gas/lib/lufa/LUFA/Drivers/USB/Core/AVR8/Host_AVR8.o
 .data          0x00000000        0x0 .build/obj_ut472_th3v3gas/lib/lufa/LUFA/Drivers/USB/Core/AVR8/Host_AVR8.o
 .bss           0x00000000        0x0 .build/obj_ut472_th3v3gas/lib/lufa/LUFA/Drivers/USB/Core/AVR8/Host_AVR8.o
 .debug_info    0x00000000       0x56 .build/obj_ut472_th3v3gas/lib/lufa/LUFA/Drivers/USB/Core/AVR8/Host_AVR8.o
 .debug_abbrev  0x00000000       0x26 .build/obj_ut472_th3v3gas/lib/lufa/LUFA/Drivers/USB/Core/AVR8/Host_AVR8.o
 .debug_aranges
                0x00000000       0x18 .build/obj_ut472_th3v3gas/lib/lufa/LUFA/Drivers/USB/Core/AVR8/Host_AVR8.o
 .debug_line    0x00000000       0x1d .build/obj_ut472_th3v3gas/lib/lufa/LUFA/Drivers/USB/Core/AVR8/Host_AVR8.o
 .debug_str     0x00000000      0x1bb .build/obj_ut472_th3v3gas/lib/lufa/LUFA/Drivers/USB/Core/AVR8/Host_AVR8.o
 .comment       0x00000000       0x12 .build/obj_ut472_th3v3gas/lib/lufa/LUFA/Drivers/USB/Core/AVR8/Host_AVR8.o
 .text          0x00000000        0x0 .build/obj_ut472_th3v3gas/lib/lufa/LUFA/Drivers/USB/Core/AVR8/PipeStream_AVR8.o
 .data          0x00000000        0x0 .build/obj_ut472_th3v3gas/lib/lufa/LUFA/Drivers/USB/Core/AVR8/PipeStream_AVR8.o
 .bss           0x00000000        0x0 .build/obj_ut472_th3v3gas/lib/lufa/LUFA/Drivers/USB/Core/AVR8/PipeStream_AVR8.o
 .debug_info    0x00000000       0x56 .build/obj_ut472_th3v3gas/lib/lufa/LUFA/Drivers/USB/Core/AVR8/PipeStream_AVR8.o
 .debug_abbrev  0x00000000       0x26 .build/obj_ut472_th3v3gas/lib/lufa/LUFA/Drivers/USB/Core/AVR8/PipeStream_AVR8.o
 .debug_aranges
                0x00000000       0x18 .build/obj_ut472_th3v3gas/lib/lufa/LUFA/Drivers/USB/Core/AVR8/PipeStream_AVR8.o
 .debug_line    0x00000000       0x1d .build/obj_ut472_th3v3gas/lib/lufa/LUFA/Drivers/USB/Core/AVR8/PipeStream_AVR8.o
 .debug_str     0x00000000      0x1c1 .build/obj_ut472_th3v3gas/lib/lufa/LUFA/Drivers/USB/Core/AVR8/PipeStream_AVR8.o
 .comment       0x00000000       0x12 .build/obj_ut472_th3v3gas/lib/lufa/LUFA/Drivers/USB/Core/AVR8/PipeStream_AVR8.o
 .text          0x00000000        0x0 .build/obj_ut472_th3v3gas/lib/lufa/LUFA/Drivers/USB/Core/AVR8/Pipe_AVR8.o
 .data          0x00000000        0x0 .build/obj_ut472_th3v3gas/lib/lufa/LUFA/Drivers/USB/Core/AVR8/Pipe_AVR8.o
 .bss           0x00000000        0x0 .build/obj_ut472_th3v3gas/lib/lufa/LUFA/Drivers/USB/Core/AVR8/Pipe_AVR8.o
 .debug_info    0x00000000       0x56 .build/obj_ut472_th3v3gas/lib/lufa/LUFA/Drivers/USB/Core/AVR8/Pipe_AVR8.o
 .debug_abbrev  0x00000000       0x26 .build/obj_ut472_th3v3gas/lib/lufa/LUFA/Drivers/USB/Core/AVR8/Pipe_AVR8.o
 .debug_aranges
                0x00000000       0x18 .build/obj_ut472_th3v3gas/lib/lufa/LUFA/Drivers/USB/Core/AVR8/Pipe_AVR8.o
 .debug_line    0x00000000       0x1d .build/obj_ut472_th3v3gas/lib/lufa/LUFA/Drivers/USB/Core/AVR8/Pipe_AVR8.o
 .debug_str     0x00000000      0x1bb .build/obj_ut472_th3v3gas/lib/lufa/LUFA/Drivers/USB/Core/AVR8/Pipe_AVR8.o
 .comment       0x00000000       0x12 .build/obj_ut472_th3v3gas/lib/lufa/LUFA/Drivers/USB/Core/AVR8/Pipe_AVR8.o
 .text          0x00000000        0x0 .build/obj_ut472_th3v3gas/lib/lufa/LUFA/Drivers/USB/Core/AVR8/USBController_AVR8.o
 .data          0x00000000        0x0 .build/obj_ut472_th3v3gas/lib/lufa/LUFA/Drivers/USB/Core/AVR8/USBController_AVR8.o
 .bss           0x00000000        0x0 .build/obj_ut472_th3v3gas/lib/lufa/LUFA/Drivers/USB/Core/AVR8/USBController_AVR8.o
 .text          0x00000000        0x0 .build/obj_ut472_th3v3gas/lib/lufa/LUFA/Drivers/USB/Core/AVR8/USBInterrupt_AVR8.o
 .data          0x00000000        0x0 .build/obj_ut472_th3v3gas/lib/lufa/LUFA/Drivers/USB/Core/AVR8/USBInterrupt_AVR8.o
 .bss           0x00000000        0x0 .build/obj_ut472_th3v3gas/lib/lufa/LUFA/Drivers/USB/Core/AVR8/USBInterrupt_AVR8.o
 .text          0x00000000        0x0 .build/obj_ut472_th3v3gas/lib/lufa/LUFA/Drivers/USB/Core/ConfigDescriptors.o
 .data          0x00000000        0x0 .build/obj_ut472_th3v3gas/lib/lufa/LUFA/Drivers/USB/Core/ConfigDescriptors.o
 .bss           0x00000000        0x0 .build/obj_ut472_th3v3gas/lib/lufa/LUFA/Drivers/USB/Core/ConfigDescriptors.o
 .text.USB_GetNextDescriptor
                0x00000000       0x3c .build/obj_ut472_th3v3gas/lib/lufa/LUFA/Drivers/USB/Core/ConfigDescriptors.o
 .text.USB_GetNextDescriptorOfType
                0x00000000       0x38 .build/obj_ut472_th3v3gas/lib/lufa/LUFA/Drivers/USB/Core/ConfigDescriptors.o
 .text.USB_GetNextDescriptorOfTypeBefore
                0x00000000       0x46 .build/obj_ut472_th3v3gas/lib/lufa/LUFA/Drivers/USB/Core/ConfigDescriptors.o
 .text.USB_GetNextDescriptorOfTypeAfter
                0x00000000       0x3e .build/obj_ut472_th3v3gas/lib/lufa/LUFA/Drivers/USB/Core/ConfigDescriptors.o
 .text.USB_GetNextDescriptorComp
                0x00000000       0x66 .build/obj_ut472_th3v3gas/lib/lufa/LUFA/Drivers/USB/Core/ConfigDescriptors.o
 .debug_info    0x00000000      0x50f .build/obj_ut472_th3v3gas/lib/lufa/LUFA/Drivers/USB/Core/ConfigDescriptors.o
 .debug_abbrev  0x00000000      0x1e5 .build/obj_ut472_th3v3gas/lib/lufa/LUFA/Drivers/USB/Core/ConfigDescriptors.o
 .debug_loc     0x00000000      0x611 .build/obj_ut472_th3v3gas/lib/lufa/LUFA/Drivers/USB/Core/ConfigDescriptors.o
 .debug_aranges
                0x00000000       0x40 .build/obj_ut472_th3v3gas/lib/lufa/LUFA/Drivers/USB/Core/ConfigDescriptors.o
 .debug_ranges  0x00000000       0x30 .build/obj_ut472_th3v3gas/lib/lufa/LUFA/Drivers/USB/Core/ConfigDescriptors.o
 .debug_line    0x00000000      0x421 .build/obj_ut472_th3v3gas/lib/lufa/LUFA/Drivers/USB/Core/ConfigDescriptors.o
 .debug_str     0x00000000      0x4f3 .build/obj_ut472_th3v3gas/lib/lufa/LUFA/Drivers/USB/Core/ConfigDescriptors.o
 .comment       0x00000000       0x12 .build/obj_ut472_th3v3gas/lib/lufa/LUFA/Drivers/USB/Core/ConfigDescriptors.o
 .debug_frame   0x00000000      0x110 .build/obj_ut472_th3v3gas/lib/lufa/LUFA/Drivers/USB/Core/ConfigDescriptors.o
 .text          0x00000000        0x0 .build/obj_ut472_th3v3gas/lib/lufa/LUFA/Drivers/USB/Core/DeviceStandardReq.o
 .data          0x00000000        0x0 .build/obj_ut472_th3v3gas/lib/lufa/LUFA/Drivers/USB/Core/DeviceStandardReq.o
 .bss           0x00000000        0x0 .build/obj_ut472_th3v3gas/lib/lufa/LUFA/Drivers/USB/Core/DeviceStandardReq.o
 .text          0x00000000        0x0 .build/obj_ut472_th3v3gas/lib/lufa/LUFA/Drivers/USB/Core/Events.o
 .data          0x00000000        0x0 .build/obj_ut472_th3v3gas/lib/lufa/LUFA/Drivers/USB/Core/Events.o
 .bss           0x00000000        0x0 .build/obj_ut472_th3v3gas/lib/lufa/LUFA/Drivers/USB/Core/Events.o
 .text.USB_Event_Stub_2
                0x00000000        0x2 .build/obj_ut472_th3v3gas/lib/lufa/LUFA/Drivers/USB/Core/Events.o
 .text.USB_Event_Stub_3
                0x00000000        0x2 .build/obj_ut472_th3v3gas/lib/lufa/LUFA/Drivers/USB/Core/Events.o
 .text          0x00000000        0x0 .build/obj_ut472_th3v3gas/lib/lufa/LUFA/Drivers/USB/Core/HostStandardReq.o
 .data          0x00000000        0x0 .build/obj_ut472_th3v3gas/lib/lufa/LUFA/Drivers/USB/Core/HostStandardReq.o
 .bss           0x00000000        0x0 .build/obj_ut472_th3v3gas/lib/lufa/LUFA/Drivers/USB/Core/HostStandardReq.o
 .debug_info    0x00000000       0x56 .build/obj_ut472_th3v3gas/lib/lufa/LUFA/Drivers/USB/Core/HostStandardReq.o
 .debug_abbrev  0x00000000       0x26 .build/obj_ut472_th3v3gas/lib/lufa/LUFA/Drivers/USB/Core/HostStandardReq.o
 .debug_aranges
                0x00000000       0x18 .build/obj_ut472_th3v3gas/lib/lufa/LUFA/Drivers/USB/Core/HostStandardReq.o
 .debug_line    0x00000000       0x1d .build/obj_ut472_th3v3gas/lib/lufa/LUFA/Drivers/USB/Core/HostStandardReq.o
 .debug_str     0x00000000      0x1bc .build/obj_ut472_th3v3gas/lib/lufa/LUFA/Drivers/USB/Core/HostStandardReq.o
 .comment       0x00000000       0x12 .build/obj_ut472_th3v3gas/lib/lufa/LUFA/Drivers/USB/Core/HostStandardReq.o
 .text          0x00000000        0x0 .build/obj_ut472_th3v3gas/lib/lufa/LUFA/Drivers/USB/Core/USBTask.o
 .data          0x00000000        0x0 .build/obj_ut472_th3v3gas/lib/lufa/LUFA/Drivers/USB/Core/USBTask.o
 .bss           0x00000000        0x0 .build/obj_ut472_th3v3gas/lib/lufa/LUFA/Drivers/USB/Core/USBTask.o
 .text          0x00000000        0x0 c:/users/nonej/documents/keyboard/msys64/home/nonej/qmk_utils/avr8-gnu-toolchain/bin/../lib/gcc/avr/8.3.0/avr35\libgcc.a(_mulqi3.o)
 .data          0x00000000        0x0 c:/users/nonej/documents/keyboard/msys64/home/nonej/qmk_utils/avr8-gnu-toolchain/bin/../lib/gcc/avr/8.3.0/avr35\libgcc.a(_mulqi3.o)
 .bss           0x00000000        0x0 c:/users/nonej/documents/keyboard/msys64/home/nonej/qmk_utils/avr8-gnu-toolchain/bin/../lib/gcc/avr/8.3.0/avr35\libgcc.a(_mulqi3.o)
 .text.libgcc.div
                0x00000000        0x0 c:/users/nonej/documents/keyboard/msys64/home/nonej/qmk_utils/avr8-gnu-toolchain/bin/../lib/gcc/avr/8.3.0/avr35\libgcc.a(_mulqi3.o)
 .text.libgcc   0x00000000        0x0 c:/users/nonej/documents/keyboard/msys64/home/nonej/qmk_utils/avr8-gnu-toolchain/bin/../lib/gcc/avr/8.3.0/avr35\libgcc.a(_mulqi3.o)
 .text.libgcc.prologue
                0x00000000        0x0 c:/users/nonej/documents/keyboard/msys64/home/nonej/qmk_utils/avr8-gnu-toolchain/bin/../lib/gcc/avr/8.3.0/avr35\libgcc.a(_mulqi3.o)
 .text.libgcc.builtins
                0x00000000        0x0 c:/users/nonej/documents/keyboard/msys64/home/nonej/qmk_utils/avr8-gnu-toolchain/bin/../lib/gcc/avr/8.3.0/avr35\libgcc.a(_mulqi3.o)
 .text.libgcc.fmul
                0x00000000        0x0 c:/users/nonej/documents/keyboard/msys64/home/nonej/qmk_utils/avr8-gnu-toolchain/bin/../lib/gcc/avr/8.3.0/avr35\libgcc.a(_mulqi3.o)
 .text.libgcc.fixed
                0x00000000        0x0 c:/users/nonej/documents/keyboard/msys64/home/nonej/qmk_utils/avr8-gnu-toolchain/bin/../lib/gcc/avr/8.3.0/avr35\libgcc.a(_mulqi3.o)
 .text          0x00000000        0x0 c:/users/nonej/documents/keyboard/msys64/home/nonej/qmk_utils/avr8-gnu-toolchain/bin/../lib/gcc/avr/8.3.0/avr35\libgcc.a(_mulhi3.o)
 .data          0x00000000        0x0 c:/users/nonej/documents/keyboard/msys64/home/nonej/qmk_utils/avr8-gnu-toolchain/bin/../lib/gcc/avr/8.3.0/avr35\libgcc.a(_mulhi3.o)
 .bss           0x00000000        0x0 c:/users/nonej/documents/keyboard/msys64/home/nonej/qmk_utils/avr8-gnu-toolchain/bin/../lib/gcc/avr/8.3.0/avr35\libgcc.a(_mulhi3.o)
 .text.libgcc.div
                0x00000000        0x0 c:/users/nonej/documents/keyboard/msys64/home/nonej/qmk_utils/avr8-gnu-toolchain/bin/../lib/gcc/avr/8.3.0/avr35\libgcc.a(_mulhi3.o)
 .text.libgcc   0x00000000        0x0 c:/users/nonej/documents/keyboard/msys64/home/nonej/qmk_utils/avr8-gnu-toolchain/bin/../lib/gcc/avr/8.3.0/avr35\libgcc.a(_mulhi3.o)
 .text.libgcc.prologue
                0x00000000        0x0 c:/users/nonej/documents/keyboard/msys64/home/nonej/qmk_utils/avr8-gnu-toolchain/bin/../lib/gcc/avr/8.3.0/avr35\libgcc.a(_mulhi3.o)
 .text.libgcc.builtins
                0x00000000        0x0 c:/users/nonej/documents/keyboard/msys64/home/nonej/qmk_utils/avr8-gnu-toolchain/bin/../lib/gcc/avr/8.3.0/avr35\libgcc.a(_mulhi3.o)
 .text.libgcc.fmul
                0x00000000        0x0 c:/users/nonej/documents/keyboard/msys64/home/nonej/qmk_utils/avr8-gnu-toolchain/bin/../lib/gcc/avr/8.3.0/avr35\libgcc.a(_mulhi3.o)
 .text.libgcc.fixed
                0x00000000        0x0 c:/users/nonej/documents/keyboard/msys64/home/nonej/qmk_utils/avr8-gnu-toolchain/bin/../lib/gcc/avr/8.3.0/avr35\libgcc.a(_mulhi3.o)
 .text          0x00000000        0x0 c:/users/nonej/documents/keyboard/msys64/home/nonej/qmk_utils/avr8-gnu-toolchain/bin/../lib/gcc/avr/8.3.0/avr35\libgcc.a(_udivmodhi4.o)
 .data          0x00000000        0x0 c:/users/nonej/documents/keyboard/msys64/home/nonej/qmk_utils/avr8-gnu-toolchain/bin/../lib/gcc/avr/8.3.0/avr35\libgcc.a(_udivmodhi4.o)
 .bss           0x00000000        0x0 c:/users/nonej/documents/keyboard/msys64/home/nonej/qmk_utils/avr8-gnu-toolchain/bin/../lib/gcc/avr/8.3.0/avr35\libgcc.a(_udivmodhi4.o)
 .text.libgcc.mul
                0x00000000        0x0 c:/users/nonej/documents/keyboard/msys64/home/nonej/qmk_utils/avr8-gnu-toolchain/bin/../lib/gcc/avr/8.3.0/avr35\libgcc.a(_udivmodhi4.o)
 .text.libgcc   0x00000000        0x0 c:/users/nonej/documents/keyboard/msys64/home/nonej/qmk_utils/avr8-gnu-toolchain/bin/../lib/gcc/avr/8.3.0/avr35\libgcc.a(_udivmodhi4.o)
 .text.libgcc.prologue
                0x00000000        0x0 c:/users/nonej/documents/keyboard/msys64/home/nonej/qmk_utils/avr8-gnu-toolchain/bin/../lib/gcc/avr/8.3.0/avr35\libgcc.a(_udivmodhi4.o)
 .text.libgcc.builtins
                0x00000000        0x0 c:/users/nonej/documents/keyboard/msys64/home/nonej/qmk_utils/avr8-gnu-toolchain/bin/../lib/gcc/avr/8.3.0/avr35\libgcc.a(_udivmodhi4.o)
 .text.libgcc.fmul
                0x00000000        0x0 c:/users/nonej/documents/keyboard/msys64/home/nonej/qmk_utils/avr8-gnu-toolchain/bin/../lib/gcc/avr/8.3.0/avr35\libgcc.a(_udivmodhi4.o)
 .text.libgcc.fixed
                0x00000000        0x0 c:/users/nonej/documents/keyboard/msys64/home/nonej/qmk_utils/avr8-gnu-toolchain/bin/../lib/gcc/avr/8.3.0/avr35\libgcc.a(_udivmodhi4.o)
 .text          0x00000000        0x0 c:/users/nonej/documents/keyboard/msys64/home/nonej/qmk_utils/avr8-gnu-toolchain/bin/../lib/gcc/avr/8.3.0/avr35\libgcc.a(_divmodhi4.o)
 .data          0x00000000        0x0 c:/users/nonej/documents/keyboard/msys64/home/nonej/qmk_utils/avr8-gnu-toolchain/bin/../lib/gcc/avr/8.3.0/avr35\libgcc.a(_divmodhi4.o)
 .bss           0x00000000        0x0 c:/users/nonej/documents/keyboard/msys64/home/nonej/qmk_utils/avr8-gnu-toolchain/bin/../lib/gcc/avr/8.3.0/avr35\libgcc.a(_divmodhi4.o)
 .text.libgcc.mul
                0x00000000        0x0 c:/users/nonej/documents/keyboard/msys64/home/nonej/qmk_utils/avr8-gnu-toolchain/bin/../lib/gcc/avr/8.3.0/avr35\libgcc.a(_divmodhi4.o)
 .text.libgcc   0x00000000        0x0 c:/users/nonej/documents/keyboard/msys64/home/nonej/qmk_utils/avr8-gnu-toolchain/bin/../lib/gcc/avr/8.3.0/avr35\libgcc.a(_divmodhi4.o)
 .text.libgcc.prologue
                0x00000000        0x0 c:/users/nonej/documents/keyboard/msys64/home/nonej/qmk_utils/avr8-gnu-toolchain/bin/../lib/gcc/avr/8.3.0/avr35\libgcc.a(_divmodhi4.o)
 .text.libgcc.builtins
                0x00000000        0x0 c:/users/nonej/documents/keyboard/msys64/home/nonej/qmk_utils/avr8-gnu-toolchain/bin/../lib/gcc/avr/8.3.0/avr35\libgcc.a(_divmodhi4.o)
 .text.libgcc.fmul
                0x00000000        0x0 c:/users/nonej/documents/keyboard/msys64/home/nonej/qmk_utils/avr8-gnu-toolchain/bin/../lib/gcc/avr/8.3.0/avr35\libgcc.a(_divmodhi4.o)
 .text.libgcc.fixed
                0x00000000        0x0 c:/users/nonej/documents/keyboard/msys64/home/nonej/qmk_utils/avr8-gnu-toolchain/bin/../lib/gcc/avr/8.3.0/avr35\libgcc.a(_divmodhi4.o)
 .text          0x00000000        0x0 c:/users/nonej/documents/keyboard/msys64/home/nonej/qmk_utils/avr8-gnu-toolchain/bin/../lib/gcc/avr/8.3.0/avr35\libgcc.a(_exit.o)
 .data          0x00000000        0x0 c:/users/nonej/documents/keyboard/msys64/home/nonej/qmk_utils/avr8-gnu-toolchain/bin/../lib/gcc/avr/8.3.0/avr35\libgcc.a(_exit.o)
 .bss           0x00000000        0x0 c:/users/nonej/documents/keyboard/msys64/home/nonej/qmk_utils/avr8-gnu-toolchain/bin/../lib/gcc/avr/8.3.0/avr35\libgcc.a(_exit.o)
 .text.libgcc.mul
                0x00000000        0x0 c:/users/nonej/documents/keyboard/msys64/home/nonej/qmk_utils/avr8-gnu-toolchain/bin/../lib/gcc/avr/8.3.0/avr35\libgcc.a(_exit.o)
 .text.libgcc.div
                0x00000000        0x0 c:/users/nonej/documents/keyboard/msys64/home/nonej/qmk_utils/avr8-gnu-toolchain/bin/../lib/gcc/avr/8.3.0/avr35\libgcc.a(_exit.o)
 .text.libgcc   0x00000000        0x0 c:/users/nonej/documents/keyboard/msys64/home/nonej/qmk_utils/avr8-gnu-toolchain/bin/../lib/gcc/avr/8.3.0/avr35\libgcc.a(_exit.o)
 .text.libgcc.prologue
                0x00000000        0x0 c:/users/nonej/documents/keyboard/msys64/home/nonej/qmk_utils/avr8-gnu-toolchain/bin/../lib/gcc/avr/8.3.0/avr35\libgcc.a(_exit.o)
 .text.libgcc.builtins
                0x00000000        0x0 c:/users/nonej/documents/keyboard/msys64/home/nonej/qmk_utils/avr8-gnu-toolchain/bin/../lib/gcc/avr/8.3.0/avr35\libgcc.a(_exit.o)
 .text.libgcc.fmul
                0x00000000        0x0 c:/users/nonej/documents/keyboard/msys64/home/nonej/qmk_utils/avr8-gnu-toolchain/bin/../lib/gcc/avr/8.3.0/avr35\libgcc.a(_exit.o)
 .text.libgcc.fixed
                0x00000000        0x0 c:/users/nonej/documents/keyboard/msys64/home/nonej/qmk_utils/avr8-gnu-toolchain/bin/../lib/gcc/avr/8.3.0/avr35\libgcc.a(_exit.o)
 .text          0x00000000        0x0 c:/users/nonej/documents/keyboard/msys64/home/nonej/qmk_utils/avr8-gnu-toolchain/bin/../lib/gcc/avr/8.3.0/avr35\libgcc.a(_tablejump2.o)
 .data          0x00000000        0x0 c:/users/nonej/documents/keyboard/msys64/home/nonej/qmk_utils/avr8-gnu-toolchain/bin/../lib/gcc/avr/8.3.0/avr35\libgcc.a(_tablejump2.o)
 .bss           0x00000000        0x0 c:/users/nonej/documents/keyboard/msys64/home/nonej/qmk_utils/avr8-gnu-toolchain/bin/../lib/gcc/avr/8.3.0/avr35\libgcc.a(_tablejump2.o)
 .text.libgcc.mul
                0x00000000        0x0 c:/users/nonej/documents/keyboard/msys64/home/nonej/qmk_utils/avr8-gnu-toolchain/bin/../lib/gcc/avr/8.3.0/avr35\libgcc.a(_tablejump2.o)
 .text.libgcc.div
                0x00000000        0x0 c:/users/nonej/documents/keyboard/msys64/home/nonej/qmk_utils/avr8-gnu-toolchain/bin/../lib/gcc/avr/8.3.0/avr35\libgcc.a(_tablejump2.o)
 .text.libgcc.prologue
                0x00000000        0x0 c:/users/nonej/documents/keyboard/msys64/home/nonej/qmk_utils/avr8-gnu-toolchain/bin/../lib/gcc/avr/8.3.0/avr35\libgcc.a(_tablejump2.o)
 .text.libgcc.builtins
                0x00000000        0x0 c:/users/nonej/documents/keyboard/msys64/home/nonej/qmk_utils/avr8-gnu-toolchain/bin/../lib/gcc/avr/8.3.0/avr35\libgcc.a(_tablejump2.o)
 .text.libgcc.fmul
                0x00000000        0x0 c:/users/nonej/documents/keyboard/msys64/home/nonej/qmk_utils/avr8-gnu-toolchain/bin/../lib/gcc/avr/8.3.0/avr35\libgcc.a(_tablejump2.o)
 .text.libgcc.fixed
                0x00000000        0x0 c:/users/nonej/documents/keyboard/msys64/home/nonej/qmk_utils/avr8-gnu-toolchain/bin/../lib/gcc/avr/8.3.0/avr35\libgcc.a(_tablejump2.o)
 .text          0x00000000        0x0 c:/users/nonej/documents/keyboard/msys64/home/nonej/qmk_utils/avr8-gnu-toolchain/bin/../lib/gcc/avr/8.3.0/avr35\libgcc.a(_copy_data.o)
 .data          0x00000000        0x0 c:/users/nonej/documents/keyboard/msys64/home/nonej/qmk_utils/avr8-gnu-toolchain/bin/../lib/gcc/avr/8.3.0/avr35\libgcc.a(_copy_data.o)
 .bss           0x00000000        0x0 c:/users/nonej/documents/keyboard/msys64/home/nonej/qmk_utils/avr8-gnu-toolchain/bin/../lib/gcc/avr/8.3.0/avr35\libgcc.a(_copy_data.o)
 .text.libgcc.mul
                0x00000000        0x0 c:/users/nonej/documents/keyboard/msys64/home/nonej/qmk_utils/avr8-gnu-toolchain/bin/../lib/gcc/avr/8.3.0/avr35\libgcc.a(_copy_data.o)
 .text.libgcc.div
                0x00000000        0x0 c:/users/nonej/documents/keyboard/msys64/home/nonej/qmk_utils/avr8-gnu-toolchain/bin/../lib/gcc/avr/8.3.0/avr35\libgcc.a(_copy_data.o)
 .text.libgcc   0x00000000        0x0 c:/users/nonej/documents/keyboard/msys64/home/nonej/qmk_utils/avr8-gnu-toolchain/bin/../lib/gcc/avr/8.3.0/avr35\libgcc.a(_copy_data.o)
 .text.libgcc.prologue
                0x00000000        0x0 c:/users/nonej/documents/keyboard/msys64/home/nonej/qmk_utils/avr8-gnu-toolchain/bin/../lib/gcc/avr/8.3.0/avr35\libgcc.a(_copy_data.o)
 .text.libgcc.builtins
                0x00000000        0x0 c:/users/nonej/documents/keyboard/msys64/home/nonej/qmk_utils/avr8-gnu-toolchain/bin/../lib/gcc/avr/8.3.0/avr35\libgcc.a(_copy_data.o)
 .text.libgcc.fmul
                0x00000000        0x0 c:/users/nonej/documents/keyboard/msys64/home/nonej/qmk_utils/avr8-gnu-toolchain/bin/../lib/gcc/avr/8.3.0/avr35\libgcc.a(_copy_data.o)
 .text.libgcc.fixed
                0x00000000        0x0 c:/users/nonej/documents/keyboard/msys64/home/nonej/qmk_utils/avr8-gnu-toolchain/bin/../lib/gcc/avr/8.3.0/avr35\libgcc.a(_copy_data.o)
 .text          0x00000000        0x0 c:/users/nonej/documents/keyboard/msys64/home/nonej/qmk_utils/avr8-gnu-toolchain/bin/../lib/gcc/avr/8.3.0/avr35\libgcc.a(_clear_bss.o)
 .data          0x00000000        0x0 c:/users/nonej/documents/keyboard/msys64/home/nonej/qmk_utils/avr8-gnu-toolchain/bin/../lib/gcc/avr/8.3.0/avr35\libgcc.a(_clear_bss.o)
 .bss           0x00000000        0x0 c:/users/nonej/documents/keyboard/msys64/home/nonej/qmk_utils/avr8-gnu-toolchain/bin/../lib/gcc/avr/8.3.0/avr35\libgcc.a(_clear_bss.o)
 .text.libgcc.mul
                0x00000000        0x0 c:/users/nonej/documents/keyboard/msys64/home/nonej/qmk_utils/avr8-gnu-toolchain/bin/../lib/gcc/avr/8.3.0/avr35\libgcc.a(_clear_bss.o)
 .text.libgcc.div
                0x00000000        0x0 c:/users/nonej/documents/keyboard/msys64/home/nonej/qmk_utils/avr8-gnu-toolchain/bin/../lib/gcc/avr/8.3.0/avr35\libgcc.a(_clear_bss.o)
 .text.libgcc   0x00000000        0x0 c:/users/nonej/documents/keyboard/msys64/home/nonej/qmk_utils/avr8-gnu-toolchain/bin/../lib/gcc/avr/8.3.0/avr35\libgcc.a(_clear_bss.o)
 .text.libgcc.prologue
                0x00000000        0x0 c:/users/nonej/documents/keyboard/msys64/home/nonej/qmk_utils/avr8-gnu-toolchain/bin/../lib/gcc/avr/8.3.0/avr35\libgcc.a(_clear_bss.o)
 .text.libgcc.builtins
                0x00000000        0x0 c:/users/nonej/documents/keyboard/msys64/home/nonej/qmk_utils/avr8-gnu-toolchain/bin/../lib/gcc/avr/8.3.0/avr35\libgcc.a(_clear_bss.o)
 .text.libgcc.fmul
                0x00000000        0x0 c:/users/nonej/documents/keyboard/msys64/home/nonej/qmk_utils/avr8-gnu-toolchain/bin/../lib/gcc/avr/8.3.0/avr35\libgcc.a(_clear_bss.o)
 .text.libgcc.fixed
                0x00000000        0x0 c:/users/nonej/documents/keyboard/msys64/home/nonej/qmk_utils/avr8-gnu-toolchain/bin/../lib/gcc/avr/8.3.0/avr35\libgcc.a(_clear_bss.o)
 .text          0x00000000        0x0 c:/users/nonej/documents/keyboard/msys64/home/nonej/qmk_utils/avr8-gnu-toolchain/bin/../lib/gcc/avr/8.3.0/../../../../avr/lib/avr35\libc.a(rand.o)
 .data          0x00000000        0x4 c:/users/nonej/documents/keyboard/msys64/home/nonej/qmk_utils/avr8-gnu-toolchain/bin/../lib/gcc/avr/8.3.0/../../../../avr/lib/avr35\libc.a(rand.o)
 .bss           0x00000000        0x0 c:/users/nonej/documents/keyboard/msys64/home/nonej/qmk_utils/avr8-gnu-toolchain/bin/../lib/gcc/avr/8.3.0/../../../../avr/lib/avr35\libc.a(rand.o)
 .text.avr-libc
                0x00000000       0xbc c:/users/nonej/documents/keyboard/msys64/home/nonej/qmk_utils/avr8-gnu-toolchain/bin/../lib/gcc/avr/8.3.0/../../../../avr/lib/avr35\libc.a(rand.o)
 .comment       0x00000000       0x12 c:/users/nonej/documents/keyboard/msys64/home/nonej/qmk_utils/avr8-gnu-toolchain/bin/../lib/gcc/avr/8.3.0/../../../../avr/lib/avr35\libc.a(rand.o)
 .text          0x00000000        0x0 c:/users/nonej/documents/keyboard/msys64/home/nonej/qmk_utils/avr8-gnu-toolchain/bin/../lib/gcc/avr/8.3.0/../../../../avr/lib/avr35\libc.a(tolower.o)
 .data          0x00000000        0x0 c:/users/nonej/documents/keyboard/msys64/home/nonej/qmk_utils/avr8-gnu-toolchain/bin/../lib/gcc/avr/8.3.0/../../../../avr/lib/avr35\libc.a(tolower.o)
 .bss           0x00000000        0x0 c:/users/nonej/documents/keyboard/msys64/home/nonej/qmk_utils/avr8-gnu-toolchain/bin/../lib/gcc/avr/8.3.0/../../../../avr/lib/avr35\libc.a(tolower.o)
 .text.avr-libc
                0x00000000       0x10 c:/users/nonej/documents/keyboard/msys64/home/nonej/qmk_utils/avr8-gnu-toolchain/bin/../lib/gcc/avr/8.3.0/../../../../avr/lib/avr35\libc.a(tolower.o)
 .text          0x00000000        0x0 c:/users/nonej/documents/keyboard/msys64/home/nonej/qmk_utils/avr8-gnu-toolchain/bin/../lib/gcc/avr/8.3.0/../../../../avr/lib/avr35\libc.a(memchr.o)
 .data          0x00000000        0x0 c:/users/nonej/documents/keyboard/msys64/home/nonej/qmk_utils/avr8-gnu-toolchain/bin/../lib/gcc/avr/8.3.0/../../../../avr/lib/avr35\libc.a(memchr.o)
 .bss           0x00000000        0x0 c:/users/nonej/documents/keyboard/msys64/home/nonej/qmk_utils/avr8-gnu-toolchain/bin/../lib/gcc/avr/8.3.0/../../../../avr/lib/avr35\libc.a(memchr.o)
 .text          0x00000000        0x0 c:/users/nonej/documents/keyboard/msys64/home/nonej/qmk_utils/avr8-gnu-toolchain/bin/../lib/gcc/avr/8.3.0/../../../../avr/lib/avr35\libc.a(strcspn.o)
 .data          0x00000000        0x0 c:/users/nonej/documents/keyboard/msys64/home/nonej/qmk_utils/avr8-gnu-toolchain/bin/../lib/gcc/avr/8.3.0/../../../../avr/lib/avr35\libc.a(strcspn.o)
 .bss           0x00000000        0x0 c:/users/nonej/documents/keyboard/msys64/home/nonej/qmk_utils/avr8-gnu-toolchain/bin/../lib/gcc/avr/8.3.0/../../../../avr/lib/avr35\libc.a(strcspn.o)
 .text.avr-libc
                0x00000000       0x1e c:/users/nonej/documents/keyboard/msys64/home/nonej/qmk_utils/avr8-gnu-toolchain/bin/../lib/gcc/avr/8.3.0/../../../../avr/lib/avr35\libc.a(strcspn.o)
 .text          0x00000000        0x0 c:/users/nonej/documents/keyboard/msys64/home/nonej/qmk_utils/avr8-gnu-toolchain/bin/../lib/gcc/avr/8.3.0/../../../../avr/lib/avr35\libc.a(strncpy.o)
 .data          0x00000000        0x0 c:/users/nonej/documents/keyboard/msys64/home/nonej/qmk_utils/avr8-gnu-toolchain/bin/../lib/gcc/avr/8.3.0/../../../../avr/lib/avr35\libc.a(strncpy.o)
 .bss           0x00000000        0x0 c:/users/nonej/documents/keyboard/msys64/home/nonej/qmk_utils/avr8-gnu-toolchain/bin/../lib/gcc/avr/8.3.0/../../../../avr/lib/avr35\libc.a(strncpy.o)
 .text.avr-libc
                0x00000000       0x1e c:/users/nonej/documents/keyboard/msys64/home/nonej/qmk_utils/avr8-gnu-toolchain/bin/../lib/gcc/avr/8.3.0/../../../../avr/lib/avr35\libc.a(strncpy.o)
 .text          0x00000000        0x0 c:/users/nonej/documents/keyboard/msys64/home/nonej/qmk_utils/avr8-gnu-toolchain/bin/../lib/gcc/avr/8.3.0/../../../../avr/lib/avr35\libatmega32u2.a(eerd_byte.o)
 .data          0x00000000        0x0 c:/users/nonej/documents/keyboard/msys64/home/nonej/qmk_utils/avr8-gnu-toolchain/bin/../lib/gcc/avr/8.3.0/../../../../avr/lib/avr35\libatmega32u2.a(eerd_byte.o)
 .bss           0x00000000        0x0 c:/users/nonej/documents/keyboard/msys64/home/nonej/qmk_utils/avr8-gnu-toolchain/bin/../lib/gcc/avr/8.3.0/../../../../avr/lib/avr35\libatmega32u2.a(eerd_byte.o)
 .text          0x00000000        0x0 c:/users/nonej/documents/keyboard/msys64/home/nonej/qmk_utils/avr8-gnu-toolchain/bin/../lib/gcc/avr/8.3.0/../../../../avr/lib/avr35\libatmega32u2.a(eerd_dword.o)
 .data          0x00000000        0x0 c:/users/nonej/documents/keyboard/msys64/home/nonej/qmk_utils/avr8-gnu-toolchain/bin/../lib/gcc/avr/8.3.0/../../../../avr/lib/avr35\libatmega32u2.a(eerd_dword.o)
 .bss           0x00000000        0x0 c:/users/nonej/documents/keyboard/msys64/home/nonej/qmk_utils/avr8-gnu-toolchain/bin/../lib/gcc/avr/8.3.0/../../../../avr/lib/avr35\libatmega32u2.a(eerd_dword.o)
 .text          0x00000000        0x0 c:/users/nonej/documents/keyboard/msys64/home/nonej/qmk_utils/avr8-gnu-toolchain/bin/../lib/gcc/avr/8.3.0/../../../../avr/lib/avr35\libatmega32u2.a(eerd_word.o)
 .data          0x00000000        0x0 c:/users/nonej/documents/keyboard/msys64/home/nonej/qmk_utils/avr8-gnu-toolchain/bin/../lib/gcc/avr/8.3.0/../../../../avr/lib/avr35\libatmega32u2.a(eerd_word.o)
 .bss           0x00000000        0x0 c:/users/nonej/documents/keyboard/msys64/home/nonej/qmk_utils/avr8-gnu-toolchain/bin/../lib/gcc/avr/8.3.0/../../../../avr/lib/avr35\libatmega32u2.a(eerd_word.o)
 .text          0x00000000        0x0 c:/users/nonej/documents/keyboard/msys64/home/nonej/qmk_utils/avr8-gnu-toolchain/bin/../lib/gcc/avr/8.3.0/../../../../avr/lib/avr35\libatmega32u2.a(eeupd_byte.o)
 .data          0x00000000        0x0 c:/users/nonej/documents/keyboard/msys64/home/nonej/qmk_utils/avr8-gnu-toolchain/bin/../lib/gcc/avr/8.3.0/../../../../avr/lib/avr35\libatmega32u2.a(eeupd_byte.o)
 .bss           0x00000000        0x0 c:/users/nonej/documents/keyboard/msys64/home/nonej/qmk_utils/avr8-gnu-toolchain/bin/../lib/gcc/avr/8.3.0/../../../../avr/lib/avr35\libatmega32u2.a(eeupd_byte.o)
 .text          0x00000000        0x0 c:/users/nonej/documents/keyboard/msys64/home/nonej/qmk_utils/avr8-gnu-toolchain/bin/../lib/gcc/avr/8.3.0/../../../../avr/lib/avr35\libatmega32u2.a(eeupd_dword.o)
 .data          0x00000000        0x0 c:/users/nonej/documents/keyboard/msys64/home/nonej/qmk_utils/avr8-gnu-toolchain/bin/../lib/gcc/avr/8.3.0/../../../../avr/lib/avr35\libatmega32u2.a(eeupd_dword.o)
 .bss           0x00000000        0x0 c:/users/nonej/documents/keyboard/msys64/home/nonej/qmk_utils/avr8-gnu-toolchain/bin/../lib/gcc/avr/8.3.0/../../../../avr/lib/avr35\libatmega32u2.a(eeupd_dword.o)
 .text          0x00000000        0x0 c:/users/nonej/documents/keyboard/msys64/home/nonej/qmk_utils/avr8-gnu-toolchain/bin/../lib/gcc/avr/8.3.0/../../../../avr/lib/avr35\libatmega32u2.a(eeupd_word.o)
 .data          0x00000000        0x0 c:/users/nonej/documents/keyboard/msys64/home/nonej/qmk_utils/avr8-gnu-toolchain/bin/../lib/gcc/avr/8.3.0/../../../../avr/lib/avr35\libatmega32u2.a(eeupd_word.o)
 .bss           0x00000000        0x0 c:/users/nonej/documents/keyboard/msys64/home/nonej/qmk_utils/avr8-gnu-toolchain/bin/../lib/gcc/avr/8.3.0/../../../../avr/lib/avr35\libatmega32u2.a(eeupd_word.o)
 .text          0x00000000        0x0 c:/users/nonej/documents/keyboard/msys64/home/nonej/qmk_utils/avr8-gnu-toolchain/bin/../lib/gcc/avr/8.3.0/../../../../avr/lib/avr35\libatmega32u2.a(eerd_block.o)
 .data          0x00000000        0x0 c:/users/nonej/documents/keyboard/msys64/home/nonej/qmk_utils/avr8-gnu-toolchain/bin/../lib/gcc/avr/8.3.0/../../../../avr/lib/avr35\libatmega32u2.a(eerd_block.o)
 .bss           0x00000000        0x0 c:/users/nonej/documents/keyboard/msys64/home/nonej/qmk_utils/avr8-gnu-toolchain/bin/../lib/gcc/avr/8.3.0/../../../../avr/lib/avr35\libatmega32u2.a(eerd_block.o)
 .text          0x00000000        0x0 c:/users/nonej/documents/keyboard/msys64/home/nonej/qmk_utils/avr8-gnu-toolchain/bin/../lib/gcc/avr/8.3.0/avr35\libgcc.a(_mulsi3.o)
 .data          0x00000000        0x0 c:/users/nonej/documents/keyboard/msys64/home/nonej/qmk_utils/avr8-gnu-toolchain/bin/../lib/gcc/avr/8.3.0/avr35\libgcc.a(_mulsi3.o)
 .bss           0x00000000        0x0 c:/users/nonej/documents/keyboard/msys64/home/nonej/qmk_utils/avr8-gnu-toolchain/bin/../lib/gcc/avr/8.3.0/avr35\libgcc.a(_mulsi3.o)
 .text.libgcc.mul
                0x00000000       0x32 c:/users/nonej/documents/keyboard/msys64/home/nonej/qmk_utils/avr8-gnu-toolchain/bin/../lib/gcc/avr/8.3.0/avr35\libgcc.a(_mulsi3.o)
 .text.libgcc.div
                0x00000000        0x0 c:/users/nonej/documents/keyboard/msys64/home/nonej/qmk_utils/avr8-gnu-toolchain/bin/../lib/gcc/avr/8.3.0/avr35\libgcc.a(_mulsi3.o)
 .text.libgcc   0x00000000        0x0 c:/users/nonej/documents/keyboard/msys64/home/nonej/qmk_utils/avr8-gnu-toolchain/bin/../lib/gcc/avr/8.3.0/avr35\libgcc.a(_mulsi3.o)
 .text.libgcc.prologue
                0x00000000        0x0 c:/users/nonej/documents/keyboard/msys64/home/nonej/qmk_utils/avr8-gnu-toolchain/bin/../lib/gcc/avr/8.3.0/avr35\libgcc.a(_mulsi3.o)
 .text.libgcc.builtins
                0x00000000        0x0 c:/users/nonej/documents/keyboard/msys64/home/nonej/qmk_utils/avr8-gnu-toolchain/bin/../lib/gcc/avr/8.3.0/avr35\libgcc.a(_mulsi3.o)
 .text.libgcc.fmul
                0x00000000        0x0 c:/users/nonej/documents/keyboard/msys64/home/nonej/qmk_utils/avr8-gnu-toolchain/bin/../lib/gcc/avr/8.3.0/avr35\libgcc.a(_mulsi3.o)
 .text.libgcc.fixed
                0x00000000        0x0 c:/users/nonej/documents/keyboard/msys64/home/nonej/qmk_utils/avr8-gnu-toolchain/bin/../lib/gcc/avr/8.3.0/avr35\libgcc.a(_mulsi3.o)
 .debug_line    0x00000000       0xb5 c:/users/nonej/documents/keyboard/msys64/home/nonej/qmk_utils/avr8-gnu-toolchain/bin/../lib/gcc/avr/8.3.0/avr35\libgcc.a(_mulsi3.o)
 .debug_info    0x00000000       0x26 c:/users/nonej/documents/keyboard/msys64/home/nonej/qmk_utils/avr8-gnu-toolchain/bin/../lib/gcc/avr/8.3.0/avr35\libgcc.a(_mulsi3.o)
 .debug_abbrev  0x00000000       0x14 c:/users/nonej/documents/keyboard/msys64/home/nonej/qmk_utils/avr8-gnu-toolchain/bin/../lib/gcc/avr/8.3.0/avr35\libgcc.a(_mulsi3.o)
 .debug_aranges
                0x00000000       0x20 c:/users/nonej/documents/keyboard/msys64/home/nonej/qmk_utils/avr8-gnu-toolchain/bin/../lib/gcc/avr/8.3.0/avr35\libgcc.a(_mulsi3.o)
 .debug_str     0x00000000       0x5f c:/users/nonej/documents/keyboard/msys64/home/nonej/qmk_utils/avr8-gnu-toolchain/bin/../lib/gcc/avr/8.3.0/avr35\libgcc.a(_mulsi3.o)
 .text          0x00000000        0x0 c:/users/nonej/documents/keyboard/msys64/home/nonej/qmk_utils/avr8-gnu-toolchain/bin/../lib/gcc/avr/8.3.0/avr35\libgcc.a(_divmodsi4.o)
 .data          0x00000000        0x0 c:/users/nonej/documents/keyboard/msys64/home/nonej/qmk_utils/avr8-gnu-toolchain/bin/../lib/gcc/avr/8.3.0/avr35\libgcc.a(_divmodsi4.o)
 .bss           0x00000000        0x0 c:/users/nonej/documents/keyboard/msys64/home/nonej/qmk_utils/avr8-gnu-toolchain/bin/../lib/gcc/avr/8.3.0/avr35\libgcc.a(_divmodsi4.o)
 .text.libgcc.mul
                0x00000000        0x0 c:/users/nonej/documents/keyboard/msys64/home/nonej/qmk_utils/avr8-gnu-toolchain/bin/../lib/gcc/avr/8.3.0/avr35\libgcc.a(_divmodsi4.o)
 .text.libgcc.div
                0x00000000       0x2e c:/users/nonej/documents/keyboard/msys64/home/nonej/qmk_utils/avr8-gnu-toolchain/bin/../lib/gcc/avr/8.3.0/avr35\libgcc.a(_divmodsi4.o)
 .text.libgcc   0x00000000        0x0 c:/users/nonej/documents/keyboard/msys64/home/nonej/qmk_utils/avr8-gnu-toolchain/bin/../lib/gcc/avr/8.3.0/avr35\libgcc.a(_divmodsi4.o)
 .text.libgcc.prologue
                0x00000000        0x0 c:/users/nonej/documents/keyboard/msys64/home/nonej/qmk_utils/avr8-gnu-toolchain/bin/../lib/gcc/avr/8.3.0/avr35\libgcc.a(_divmodsi4.o)
 .text.libgcc.builtins
                0x00000000        0x0 c:/users/nonej/documents/keyboard/msys64/home/nonej/qmk_utils/avr8-gnu-toolchain/bin/../lib/gcc/avr/8.3.0/avr35\libgcc.a(_divmodsi4.o)
 .text.libgcc.fmul
                0x00000000        0x0 c:/users/nonej/documents/keyboard/msys64/home/nonej/qmk_utils/avr8-gnu-toolchain/bin/../lib/gcc/avr/8.3.0/avr35\libgcc.a(_divmodsi4.o)
 .text.libgcc.fixed
                0x00000000        0x0 c:/users/nonej/documents/keyboard/msys64/home/nonej/qmk_utils/avr8-gnu-toolchain/bin/../lib/gcc/avr/8.3.0/avr35\libgcc.a(_divmodsi4.o)
 .debug_line    0x00000000       0xcd c:/users/nonej/documents/keyboard/msys64/home/nonej/qmk_utils/avr8-gnu-toolchain/bin/../lib/gcc/avr/8.3.0/avr35\libgcc.a(_divmodsi4.o)
 .debug_info    0x00000000       0x26 c:/users/nonej/documents/keyboard/msys64/home/nonej/qmk_utils/avr8-gnu-toolchain/bin/../lib/gcc/avr/8.3.0/avr35\libgcc.a(_divmodsi4.o)
 .debug_abbrev  0x00000000       0x14 c:/users/nonej/documents/keyboard/msys64/home/nonej/qmk_utils/avr8-gnu-toolchain/bin/../lib/gcc/avr/8.3.0/avr35\libgcc.a(_divmodsi4.o)
 .debug_aranges
                0x00000000       0x20 c:/users/nonej/documents/keyboard/msys64/home/nonej/qmk_utils/avr8-gnu-toolchain/bin/../lib/gcc/avr/8.3.0/avr35\libgcc.a(_divmodsi4.o)
 .debug_str     0x00000000       0x5f c:/users/nonej/documents/keyboard/msys64/home/nonej/qmk_utils/avr8-gnu-toolchain/bin/../lib/gcc/avr/8.3.0/avr35\libgcc.a(_divmodsi4.o)
 .text          0x00000000        0x0 c:/users/nonej/documents/keyboard/msys64/home/nonej/qmk_utils/avr8-gnu-toolchain/bin/../lib/gcc/avr/8.3.0/avr35\libgcc.a(_negsi2.o)
 .data          0x00000000        0x0 c:/users/nonej/documents/keyboard/msys64/home/nonej/qmk_utils/avr8-gnu-toolchain/bin/../lib/gcc/avr/8.3.0/avr35\libgcc.a(_negsi2.o)
 .bss           0x00000000        0x0 c:/users/nonej/documents/keyboard/msys64/home/nonej/qmk_utils/avr8-gnu-toolchain/bin/../lib/gcc/avr/8.3.0/avr35\libgcc.a(_negsi2.o)
 .text.libgcc.mul
                0x00000000        0x0 c:/users/nonej/documents/keyboard/msys64/home/nonej/qmk_utils/avr8-gnu-toolchain/bin/../lib/gcc/avr/8.3.0/avr35\libgcc.a(_negsi2.o)
 .text.libgcc.div
                0x00000000       0x10 c:/users/nonej/documents/keyboard/msys64/home/nonej/qmk_utils/avr8-gnu-toolchain/bin/../lib/gcc/avr/8.3.0/avr35\libgcc.a(_negsi2.o)
 .text.libgcc   0x00000000        0x0 c:/users/nonej/documents/keyboard/msys64/home/nonej/qmk_utils/avr8-gnu-toolchain/bin/../lib/gcc/avr/8.3.0/avr35\libgcc.a(_negsi2.o)
 .text.libgcc.prologue
                0x00000000        0x0 c:/users/nonej/documents/keyboard/msys64/home/nonej/qmk_utils/avr8-gnu-toolchain/bin/../lib/gcc/avr/8.3.0/avr35\libgcc.a(_negsi2.o)
 .text.libgcc.builtins
                0x00000000        0x0 c:/users/nonej/documents/keyboard/msys64/home/nonej/qmk_utils/avr8-gnu-toolchain/bin/../lib/gcc/avr/8.3.0/avr35\libgcc.a(_negsi2.o)
 .text.libgcc.fmul
                0x00000000        0x0 c:/users/nonej/documents/keyboard/msys64/home/nonej/qmk_utils/avr8-gnu-toolchain/bin/../lib/gcc/avr/8.3.0/avr35\libgcc.a(_negsi2.o)
 .text.libgcc.fixed
                0x00000000        0x0 c:/users/nonej/documents/keyboard/msys64/home/nonej/qmk_utils/avr8-gnu-toolchain/bin/../lib/gcc/avr/8.3.0/avr35\libgcc.a(_negsi2.o)
 .debug_line    0x00000000       0x61 c:/users/nonej/documents/keyboard/msys64/home/nonej/qmk_utils/avr8-gnu-toolchain/bin/../lib/gcc/avr/8.3.0/avr35\libgcc.a(_negsi2.o)
 .debug_info    0x00000000       0x26 c:/users/nonej/documents/keyboard/msys64/home/nonej/qmk_utils/avr8-gnu-toolchain/bin/../lib/gcc/avr/8.3.0/avr35\libgcc.a(_negsi2.o)
 .debug_abbrev  0x00000000       0x14 c:/users/nonej/documents/keyboard/msys64/home/nonej/qmk_utils/avr8-gnu-toolchain/bin/../lib/gcc/avr/8.3.0/avr35\libgcc.a(_negsi2.o)
 .debug_aranges
                0x00000000       0x20 c:/users/nonej/documents/keyboard/msys64/home/nonej/qmk_utils/avr8-gnu-toolchain/bin/../lib/gcc/avr/8.3.0/avr35\libgcc.a(_negsi2.o)
 .debug_str     0x00000000       0x5f c:/users/nonej/documents/keyboard/msys64/home/nonej/qmk_utils/avr8-gnu-toolchain/bin/../lib/gcc/avr/8.3.0/avr35\libgcc.a(_negsi2.o)
 .text          0x00000000        0x0 c:/users/nonej/documents/keyboard/msys64/home/nonej/qmk_utils/avr8-gnu-toolchain/bin/../lib/gcc/avr/8.3.0/avr35\libgcc.a(_udivmodsi4.o)
 .data          0x00000000        0x0 c:/users/nonej/documents/keyboard/msys64/home/nonej/qmk_utils/avr8-gnu-toolchain/bin/../lib/gcc/avr/8.3.0/avr35\libgcc.a(_udivmodsi4.o)
 .bss           0x00000000        0x0 c:/users/nonej/documents/keyboard/msys64/home/nonej/qmk_utils/avr8-gnu-toolchain/bin/../lib/gcc/avr/8.3.0/avr35\libgcc.a(_udivmodsi4.o)
 .text.libgcc.mul
                0x00000000        0x0 c:/users/nonej/documents/keyboard/msys64/home/nonej/qmk_utils/avr8-gnu-toolchain/bin/../lib/gcc/avr/8.3.0/avr35\libgcc.a(_udivmodsi4.o)
 .text.libgcc.div
                0x00000000       0x44 c:/users/nonej/documents/keyboard/msys64/home/nonej/qmk_utils/avr8-gnu-toolchain/bin/../lib/gcc/avr/8.3.0/avr35\libgcc.a(_udivmodsi4.o)
 .text.libgcc   0x00000000        0x0 c:/users/nonej/documents/keyboard/msys64/home/nonej/qmk_utils/avr8-gnu-toolchain/bin/../lib/gcc/avr/8.3.0/avr35\libgcc.a(_udivmodsi4.o)
 .text.libgcc.prologue
                0x00000000        0x0 c:/users/nonej/documents/keyboard/msys64/home/nonej/qmk_utils/avr8-gnu-toolchain/bin/../lib/gcc/avr/8.3.0/avr35\libgcc.a(_udivmodsi4.o)
 .text.libgcc.builtins
                0x00000000        0x0 c:/users/nonej/documents/keyboard/msys64/home/nonej/qmk_utils/avr8-gnu-toolchain/bin/../lib/gcc/avr/8.3.0/avr35\libgcc.a(_udivmodsi4.o)
 .text.libgcc.fmul
                0x00000000        0x0 c:/users/nonej/documents/keyboard/msys64/home/nonej/qmk_utils/avr8-gnu-toolchain/bin/../lib/gcc/avr/8.3.0/avr35\libgcc.a(_udivmodsi4.o)
 .text.libgcc.fixed
                0x00000000        0x0 c:/users/nonej/documents/keyboard/msys64/home/nonej/qmk_utils/avr8-gnu-toolchain/bin/../lib/gcc/avr/8.3.0/avr35\libgcc.a(_udivmodsi4.o)
 .debug_line    0x00000000      0x121 c:/users/nonej/documents/keyboard/msys64/home/nonej/qmk_utils/avr8-gnu-toolchain/bin/../lib/gcc/avr/8.3.0/avr35\libgcc.a(_udivmodsi4.o)
 .debug_info    0x00000000       0x26 c:/users/nonej/documents/keyboard/msys64/home/nonej/qmk_utils/avr8-gnu-toolchain/bin/../lib/gcc/avr/8.3.0/avr35\libgcc.a(_udivmodsi4.o)
 .debug_abbrev  0x00000000       0x14 c:/users/nonej/documents/keyboard/msys64/home/nonej/qmk_utils/avr8-gnu-toolchain/bin/../lib/gcc/avr/8.3.0/avr35\libgcc.a(_udivmodsi4.o)
 .debug_aranges
                0x00000000       0x20 c:/users/nonej/documents/keyboard/msys64/home/nonej/qmk_utils/avr8-gnu-toolchain/bin/../lib/gcc/avr/8.3.0/avr35\libgcc.a(_udivmodsi4.o)
 .debug_str     0x00000000       0x5f c:/users/nonej/documents/keyboard/msys64/home/nonej/qmk_utils/avr8-gnu-toolchain/bin/../lib/gcc/avr/8.3.0/avr35\libgcc.a(_udivmodsi4.o)

Memory Configuration

Name             Origin             Length             Attributes
text             0x00000000         0x00010000         xr
data             0x00800060         0x0000ffa0         rw !x
eeprom           0x00810000         0x00010000         rw !x
fuse             0x00820000         0x00000400         rw !x
lock             0x00830000         0x00000400         rw !x
signature        0x00840000         0x00000400         rw !x
user_signatures  0x00850000         0x00000400         rw !x
*default*        0x00000000         0xffffffff

Linker script and memory map

Address of section .data set to 0x800100
LOAD c:/users/nonej/documents/keyboard/msys64/home/nonej/qmk_utils/avr8-gnu-toolchain/bin/../lib/gcc/avr/8.3.0/../../../../avr/lib/avr35/crtatmega32u2.o
LOAD .build/obj_ut472_th3v3gas/keyboards/ut472/ut472.o
LOAD .build/obj_ut472_th3v3gas/keyboards/ut472/keymaps/th3v3gas/keymap.o
LOAD .build/obj_ut472_th3v3gas/quantum/quantum.o
LOAD .build/obj_ut472_th3v3gas/quantum/keymap_common.o
LOAD .build/obj_ut472_th3v3gas/quantum/keycode_config.o
LOAD .build/obj_ut472_th3v3gas/quantum/matrix_common.o
LOAD .build/obj_ut472_th3v3gas/quantum/matrix.o
LOAD .build/obj_ut472_th3v3gas/quantum/debounce/sym_g.o
LOAD .build/obj_ut472_th3v3gas/quantum/process_keycode/process_combo.o
LOAD .build/obj_ut472_th3v3gas/quantum/process_keycode/process_unicode.o
LOAD .build/obj_ut472_th3v3gas/quantum/process_keycode/process_unicode_common.o
LOAD .build/obj_ut472_th3v3gas/quantum/color.o
LOAD .build/obj_ut472_th3v3gas/quantum/rgblight.o
LOAD .build/obj_ut472_th3v3gas/quantum/process_keycode/process_rgb.o
LOAD .build/obj_ut472_th3v3gas/quantum/process_keycode/process_tap_dance.o
LOAD .build/obj_ut472_th3v3gas/ws2812.o
LOAD .build/obj_ut472_th3v3gas/quantum/led_tables.o
LOAD .build/obj_ut472_th3v3gas/quantum/process_keycode/process_space_cadet.o
LOAD .build/obj_ut472_th3v3gas/quantum/process_keycode/process_magic.o
LOAD .build/obj_ut472_th3v3gas/quantum/process_keycode/process_grave_esc.o
LOAD .build/obj_ut472_th3v3gas/common/host.o
LOAD .build/obj_ut472_th3v3gas/common/keyboard.o
LOAD .build/obj_ut472_th3v3gas/common/action.o
LOAD .build/obj_ut472_th3v3gas/common/action_tapping.o
LOAD .build/obj_ut472_th3v3gas/common/action_macro.o
LOAD .build/obj_ut472_th3v3gas/common/action_layer.o
LOAD .build/obj_ut472_th3v3gas/common/action_util.o
LOAD .build/obj_ut472_th3v3gas/common/print.o
LOAD .build/obj_ut472_th3v3gas/common/debug.o
LOAD .build/obj_ut472_th3v3gas/common/util.o
LOAD .build/obj_ut472_th3v3gas/common/eeconfig.o
LOAD .build/obj_ut472_th3v3gas/common/report.o
LOAD .build/obj_ut472_th3v3gas/common/avr/suspend.o
LOAD .build/obj_ut472_th3v3gas/common/avr/timer.o
LOAD .build/obj_ut472_th3v3gas/common/avr/bootloader.o
LOAD .build/obj_ut472_th3v3gas/common/avr/xprintf.o
LOAD .build/obj_ut472_th3v3gas/common/bootmagic.o
LOAD .build/obj_ut472_th3v3gas/common/mousekey.o
LOAD .build/obj_ut472_th3v3gas/lufa.o
LOAD .build/obj_ut472_th3v3gas/usb_descriptor.o
LOAD .build/obj_ut472_th3v3gas/outputselect.o
LOAD .build/obj_ut472_th3v3gas/lib/lufa/LUFA/Drivers/USB/Class/Common/HIDParser.o
LOAD .build/obj_ut472_th3v3gas/lib/lufa/LUFA/Drivers/USB/Core/AVR8/Device_AVR8.o
LOAD .build/obj_ut472_th3v3gas/lib/lufa/LUFA/Drivers/USB/Core/AVR8/EndpointStream_AVR8.o
LOAD .build/obj_ut472_th3v3gas/lib/lufa/LUFA/Drivers/USB/Core/AVR8/Endpoint_AVR8.o
LOAD .build/obj_ut472_th3v3gas/lib/lufa/LUFA/Drivers/USB/Core/AVR8/Host_AVR8.o
LOAD .build/obj_ut472_th3v3gas/lib/lufa/LUFA/Drivers/USB/Core/AVR8/PipeStream_AVR8.o
LOAD .build/obj_ut472_th3v3gas/lib/lufa/LUFA/Drivers/USB/Core/AVR8/Pipe_AVR8.o
LOAD .build/obj_ut472_th3v3gas/lib/lufa/LUFA/Drivers/USB/Core/AVR8/USBController_AVR8.o
LOAD .build/obj_ut472_th3v3gas/lib/lufa/LUFA/Drivers/USB/Core/AVR8/USBInterrupt_AVR8.o
LOAD .build/obj_ut472_th3v3gas/lib/lufa/LUFA/Drivers/USB/Core/ConfigDescriptors.o
LOAD .build/obj_ut472_th3v3gas/lib/lufa/LUFA/Drivers/USB/Core/DeviceStandardReq.o
LOAD .build/obj_ut472_th3v3gas/lib/lufa/LUFA/Drivers/USB/Core/Events.o
LOAD .build/obj_ut472_th3v3gas/lib/lufa/LUFA/Drivers/USB/Core/HostStandardReq.o
LOAD .build/obj_ut472_th3v3gas/lib/lufa/LUFA/Drivers/USB/Core/USBTask.o
LOAD c:/users/nonej/documents/keyboard/msys64/home/nonej/qmk_utils/avr8-gnu-toolchain/bin/../lib/gcc/avr/8.3.0/../../../../avr/lib/avr35\libm.a
START GROUP
LOAD c:/users/nonej/documents/keyboard/msys64/home/nonej/qmk_utils/avr8-gnu-toolchain/bin/../lib/gcc/avr/8.3.0/avr35\libgcc.a
LOAD c:/users/nonej/documents/keyboard/msys64/home/nonej/qmk_utils/avr8-gnu-toolchain/bin/../lib/gcc/avr/8.3.0/../../../../avr/lib/avr35\libm.a
LOAD c:/users/nonej/documents/keyboard/msys64/home/nonej/qmk_utils/avr8-gnu-toolchain/bin/../lib/gcc/avr/8.3.0/../../../../avr/lib/avr35\libc.a
LOAD c:/users/nonej/documents/keyboard/msys64/home/nonej/qmk_utils/avr8-gnu-toolchain/bin/../lib/gcc/avr/8.3.0/../../../../avr/lib/avr35\libatmega32u2.a
END GROUP
                0x00010000                __TEXT_REGION_LENGTH__ = DEFINED (__TEXT_REGION_LENGTH__)?__TEXT_REGION_LENGTH__:0x10000
                0x0000ffa0                __DATA_REGION_LENGTH__ = DEFINED (__DATA_REGION_LENGTH__)?__DATA_REGION_LENGTH__:0xffa0
                0x00010000                __EEPROM_REGION_LENGTH__ = DEFINED (__EEPROM_REGION_LENGTH__)?__EEPROM_REGION_LENGTH__:0x10000
                0x00000400                __FUSE_REGION_LENGTH__ = DEFINED (__FUSE_REGION_LENGTH__)?__FUSE_REGION_LENGTH__:0x400
                0x00000400                __LOCK_REGION_LENGTH__ = DEFINED (__LOCK_REGION_LENGTH__)?__LOCK_REGION_LENGTH__:0x400
                0x00000400                __SIGNATURE_REGION_LENGTH__ = DEFINED (__SIGNATURE_REGION_LENGTH__)?__SIGNATURE_REGION_LENGTH__:0x400
                0x00000400                __USER_SIGNATURE_REGION_LENGTH__ = DEFINED (__USER_SIGNATURE_REGION_LENGTH__)?__USER_SIGNATURE_REGION_LENGTH__:0x400

.hash
 *(.hash)

.dynsym
 *(.dynsym)

.dynstr
 *(.dynstr)

.gnu.version
 *(.gnu.version)

.gnu.version_d
 *(.gnu.version_d)

.gnu.version_r
 *(.gnu.version_r)

.rel.init
 *(.rel.init)

.rela.init
 *(.rela.init)

.rel.text
 *(.rel.text)
 *(.rel.text.*)
 *(.rel.gnu.linkonce.t*)

.rela.text
 *(.rela.text)
 *(.rela.text.*)
 *(.rela.gnu.linkonce.t*)

.rel.fini
 *(.rel.fini)

.rela.fini
 *(.rela.fini)

.rel.rodata
 *(.rel.rodata)
 *(.rel.rodata.*)
 *(.rel.gnu.linkonce.r*)

.rela.rodata
 *(.rela.rodata)
 *(.rela.rodata.*)
 *(.rela.gnu.linkonce.r*)

.rel.data
 *(.rel.data)
 *(.rel.data.*)
 *(.rel.gnu.linkonce.d*)

.rela.data
 *(.rela.data)
 *(.rela.data.*)
 *(.rela.gnu.linkonce.d*)

.rel.ctors
 *(.rel.ctors)

.rela.ctors
 *(.rela.ctors)

.rel.dtors
 *(.rel.dtors)

.rela.dtors
 *(.rela.dtors)

.rel.got
 *(.rel.got)

.rela.got
 *(.rela.got)

.rel.bss
 *(.rel.bss)

.rela.bss
 *(.rela.bss)

.rel.plt
 *(.rel.plt)

.rela.plt
 *(.rela.plt)

.text           0x00000000     0x5ce6
 *(.vectors)
 .vectors       0x00000000       0x74 c:/users/nonej/documents/keyboard/msys64/home/nonej/qmk_utils/avr8-gnu-toolchain/bin/../lib/gcc/avr/8.3.0/../../../../avr/lib/avr35/crtatmega32u2.o
                0x00000000                __vector_default
                0x00000000                __vectors
 *(.vectors)
 *(.progmem.gcc*)
                0x00000074                . = ALIGN (0x2)
                0x00000074                __trampolines_start = .
 *(.trampolines)
 .trampolines   0x00000074        0x0 linker stubs
 *(.trampolines*)
                0x00000074                __trampolines_end = .
 *libprintf_flt.a:*(.progmem.data)
 *libc.a:*(.progmem.data)
 *(.progmem.*)
 .progmem.data.keymaps
                0x00000074      0x240 .build/obj_ut472_th3v3gas/keyboards/ut472/keymaps/th3v3gas/keymap.o
                0x00000074                keymaps
 .progmem.data.ep_combo
                0x000002b4        0x6 .build/obj_ut472_th3v3gas/keyboards/ut472/keymaps/th3v3gas/keymap.o
                0x000002b4                ep_combo
 .progmem.data.qm_combo
                0x000002ba        0x6 .build/obj_ut472_th3v3gas/keyboards/ut472/keymaps/th3v3gas/keymap.o
                0x000002ba                qm_combo
 .progmem.data.ascii_to_keycode_lut
                0x000002c0       0x80 .build/obj_ut472_th3v3gas/quantum/quantum.o
                0x000002c0                ascii_to_keycode_lut
 .progmem.data.ascii_to_altgr_lut
                0x00000340       0x80 .build/obj_ut472_th3v3gas/quantum/quantum.o
                0x00000340                ascii_to_altgr_lut
 .progmem.data.ascii_to_shift_lut
                0x000003c0       0x80 .build/obj_ut472_th3v3gas/quantum/quantum.o
                0x000003c0                ascii_to_shift_lut
 .progmem.data.fn_actions
                0x00000440        0x0 .build/obj_ut472_th3v3gas/quantum/keymap_common.o
                0x00000440                fn_actions
 .progmem.data.RGBLED_RGBTEST_INTERVALS
                0x00000440        0x2 .build/obj_ut472_th3v3gas/quantum/rgblight.o
                0x00000440                RGBLED_RGBTEST_INTERVALS
 .progmem.data.RGBLED_KNIGHT_INTERVALS
                0x00000442        0x3 .build/obj_ut472_th3v3gas/quantum/rgblight.o
                0x00000442                RGBLED_KNIGHT_INTERVALS
 .progmem.data.RGBLED_SNAKE_INTERVALS
                0x00000445        0x3 .build/obj_ut472_th3v3gas/quantum/rgblight.o
                0x00000445                RGBLED_SNAKE_INTERVALS
 .progmem.data.RGBLED_RAINBOW_SWIRL_INTERVALS
                0x00000448        0x3 .build/obj_ut472_th3v3gas/quantum/rgblight.o
                0x00000448                RGBLED_RAINBOW_SWIRL_INTERVALS
 .progmem.data.RGBLED_RAINBOW_MOOD_INTERVALS
                0x0000044b        0x3 .build/obj_ut472_th3v3gas/quantum/rgblight.o
                0x0000044b                RGBLED_RAINBOW_MOOD_INTERVALS
 .progmem.data.RGBLED_BREATHING_INTERVALS
                0x0000044e        0x4 .build/obj_ut472_th3v3gas/quantum/rgblight.o
                0x0000044e                RGBLED_BREATHING_INTERVALS
 .progmem.data.rgblight_effect_breathe_table
                0x00000452      0x100 .build/obj_ut472_th3v3gas/quantum/rgblight.o
                0x00000452                rgblight_effect_breathe_table
 .progmem.data.RGBLED_GRADIENT_RANGES
                0x00000552        0x5 .build/obj_ut472_th3v3gas/quantum/rgblight.o
                0x00000552                RGBLED_GRADIENT_RANGES
 .progmem.data.CIE1931_CURVE
                0x00000557      0x100 .build/obj_ut472_th3v3gas/quantum/led_tables.o
                0x00000557                CIE1931_CURVE
 .progmem.data.SerialNumberString
                0x00000657        0x6 .build/obj_ut472_th3v3gas/usb_descriptor.o
                0x00000657                SerialNumberString
 .progmem.data.ProductString
                0x0000065d       0x10 .build/obj_ut472_th3v3gas/usb_descriptor.o
                0x0000065d                ProductString
 .progmem.data.ManufacturerString
                0x0000066d       0x12 .build/obj_ut472_th3v3gas/usb_descriptor.o
                0x0000066d                ManufacturerString
 .progmem.data.LanguageString
                0x0000067f        0x4 .build/obj_ut472_th3v3gas/usb_descriptor.o
                0x0000067f                LanguageString
 .progmem.data.ConfigurationDescriptor
                0x00000683       0x3b .build/obj_ut472_th3v3gas/usb_descriptor.o
                0x00000683                ConfigurationDescriptor
 .progmem.data.DeviceDescriptor
                0x000006be       0x12 .build/obj_ut472_th3v3gas/usb_descriptor.o
                0x000006be                DeviceDescriptor
 .progmem.data.SharedReport
                0x000006d0       0xc0 .build/obj_ut472_th3v3gas/usb_descriptor.o
                0x000006d0                SharedReport
 .progmem.data.KeyboardReport
                0x00000790       0x40 .build/obj_ut472_th3v3gas/usb_descriptor.o
                0x00000790                KeyboardReport
                0x000007d0                . = ALIGN (0x2)
 *(.lowtext)
 *(.lowtext*)
                0x000007d0                __ctors_start = .
 *(.ctors)
                0x000007d0                __ctors_end = .
                0x000007d0                __dtors_start = .
 *(.dtors)
                0x000007d0                __dtors_end = .
 SORT_BY_NAME(*)(.ctors)
 SORT_BY_NAME(*)(.dtors)
 *(.init0)
 .init0         0x000007d0        0x0 c:/users/nonej/documents/keyboard/msys64/home/nonej/qmk_utils/avr8-gnu-toolchain/bin/../lib/gcc/avr/8.3.0/../../../../avr/lib/avr35/crtatmega32u2.o
                0x000007d0                __init
 *(.init0)
 *(.init1)
 *(.init1)
 *(.init2)
 .init2         0x000007d0        0xc c:/users/nonej/documents/keyboard/msys64/home/nonej/qmk_utils/avr8-gnu-toolchain/bin/../lib/gcc/avr/8.3.0/../../../../avr/lib/avr35/crtatmega32u2.o
 *(.init2)
 *(.init3)
 .init3         0x000007dc       0x54 .build/obj_ut472_th3v3gas/common/avr/bootloader.o
                0x000007dc                bootloader_jump_after_watchdog_reset
 *(.init3)
 *(.init4)
 .init4         0x00000830       0x16 c:/users/nonej/documents/keyboard/msys64/home/nonej/qmk_utils/avr8-gnu-toolchain/bin/../lib/gcc/avr/8.3.0/avr35\libgcc.a(_copy_data.o)
                0x00000830                __do_copy_data
 .init4         0x00000846       0x10 c:/users/nonej/documents/keyboard/msys64/home/nonej/qmk_utils/avr8-gnu-toolchain/bin/../lib/gcc/avr/8.3.0/avr35\libgcc.a(_clear_bss.o)
                0x00000846                __do_clear_bss
 *(.init4)
 *(.init5)
 *(.init5)
 *(.init6)
 *(.init6)
 *(.init7)
 *(.init7)
 *(.init8)
 *(.init8)
 *(.init9)
 .init9         0x00000856        0x8 c:/users/nonej/documents/keyboard/msys64/home/nonej/qmk_utils/avr8-gnu-toolchain/bin/../lib/gcc/avr/8.3.0/../../../../avr/lib/avr35/crtatmega32u2.o
 *(.init9)
 *(.text)
 .text          0x0000085e        0x4 c:/users/nonej/documents/keyboard/msys64/home/nonej/qmk_utils/avr8-gnu-toolchain/bin/../lib/gcc/avr/8.3.0/../../../../avr/lib/avr35/crtatmega32u2.o
                0x0000085e                __vector_22
                0x0000085e                __vector_28
                0x0000085e                __vector_1
                0x0000085e                __vector_24
                0x0000085e                __bad_interrupt
                0x0000085e                __vector_6
                0x0000085e                __vector_3
                0x0000085e                __vector_23
                0x0000085e                __vector_25
                0x0000085e                __vector_17
                0x0000085e                __vector_7
                0x0000085e                __vector_27
                0x0000085e                __vector_5
                0x0000085e                __vector_4
                0x0000085e                __vector_9
                0x0000085e                __vector_2
                0x0000085e                __vector_21
                0x0000085e                __vector_15
                0x0000085e                __vector_8
                0x0000085e                __vector_26
                0x0000085e                __vector_14
                0x0000085e                __vector_10
                0x0000085e                __vector_16
                0x0000085e                __vector_18
                0x0000085e                __vector_20
                0x00000862                . = ALIGN (0x2)
 *(.text.*)
 .text.matrix_init_kb
                0x00000862        0x4 .build/obj_ut472_th3v3gas/keyboards/ut472/ut472.o
                0x00000862                matrix_init_kb
 .text.matrix_scan_kb
                0x00000866        0x4 .build/obj_ut472_th3v3gas/keyboards/ut472/ut472.o
                0x00000866                matrix_scan_kb
 .text.tdgame_reset
                0x0000086a       0x26 .build/obj_ut472_th3v3gas/keyboards/ut472/keymaps/th3v3gas/keymap.o
                0x0000086a                tdgame_reset
 .text.TDEMOTE  0x00000890       0x1c .build/obj_ut472_th3v3gas/keyboards/ut472/keymaps/th3v3gas/keymap.o
                0x00000890                TDEMOTE
 .text.matrix_init_user
                0x000008ac        0x6 .build/obj_ut472_th3v3gas/keyboards/ut472/keymaps/th3v3gas/keymap.o
                0x000008ac                matrix_init_user
 .text.cur_dance
                0x000008b2       0x2a .build/obj_ut472_th3v3gas/keyboards/ut472/keymaps/th3v3gas/keymap.o
                0x000008b2                cur_dance
 .text.tdgame_finished
                0x000008dc       0x2a .build/obj_ut472_th3v3gas/keyboards/ut472/keymaps/th3v3gas/keymap.o
                0x000008dc                tdgame_finished
 .text.process_record_user
                0x00000906       0x86 .build/obj_ut472_th3v3gas/keyboards/ut472/keymaps/th3v3gas/keymap.o
                0x00000906                process_record_user
 .text.do_code16
                0x0000098c       0x6e .build/obj_ut472_th3v3gas/quantum/quantum.o
 .text.register_code16
                0x000009fa       0x2a .build/obj_ut472_th3v3gas/quantum/quantum.o
                0x000009fa                register_code16
 .text.unregister_code16
                0x00000a24       0x2a .build/obj_ut472_th3v3gas/quantum/quantum.o
                0x00000a24                unregister_code16
 .text.tap_code16
                0x00000a4e       0x14 .build/obj_ut472_th3v3gas/quantum/quantum.o
                0x00000a4e                tap_code16
 .text.process_action_kb
                0x00000a62        0x4 .build/obj_ut472_th3v3gas/quantum/quantum.o
                0x00000a62                process_action_kb
 .text.process_record_kb
                0x00000a66        0x4 .build/obj_ut472_th3v3gas/quantum/quantum.o
                0x00000a66                process_record_kb
 .text.get_event_keycode
                0x00000a6a       0x62 .build/obj_ut472_th3v3gas/quantum/quantum.o
                0x00000a6a                get_event_keycode
 .text.get_record_keycode
                0x00000acc       0x10 .build/obj_ut472_th3v3gas/quantum/quantum.o
                0x00000acc                get_record_keycode
 .text.send_char
                0x00000adc       0x5c .build/obj_ut472_th3v3gas/quantum/quantum.o
                0x00000adc                send_char
 .text.send_string_with_delay
                0x00000b38       0x6c .build/obj_ut472_th3v3gas/quantum/quantum.o
                0x00000b38                send_string_with_delay
 .text.send_string
                0x00000ba4        0x6 .build/obj_ut472_th3v3gas/quantum/quantum.o
                0x00000ba4                send_string
 .text.matrix_init_quantum
                0x00000baa       0x14 .build/obj_ut472_th3v3gas/quantum/quantum.o
                0x00000baa                matrix_init_quantum
 .text.matrix_scan_quantum
                0x00000bbe        0xc .build/obj_ut472_th3v3gas/quantum/quantum.o
                0x00000bbe                matrix_scan_quantum
 .text.hex_to_keycode
                0x00000bca       0x1c .build/obj_ut472_th3v3gas/quantum/quantum.o
                0x00000bca                hex_to_keycode
 .text.led_set_user
                0x00000be6        0x2 .build/obj_ut472_th3v3gas/quantum/quantum.o
                0x00000be6                led_set_user
 .text.led_set_kb
                0x00000be8        0x4 .build/obj_ut472_th3v3gas/quantum/quantum.o
                0x00000be8                led_set_kb
 .text.led_update_user
                0x00000bec        0x4 .build/obj_ut472_th3v3gas/quantum/quantum.o
                0x00000bec                led_update_user
 .text.led_update_kb
                0x00000bf0        0x4 .build/obj_ut472_th3v3gas/quantum/quantum.o
                0x00000bf0                led_update_kb
 .text.led_set  0x00000bf4       0x10 .build/obj_ut472_th3v3gas/quantum/quantum.o
                0x00000bf4                led_set
 .text.shutdown_user
                0x00000c04        0x2 .build/obj_ut472_th3v3gas/quantum/quantum.o
                0x00000c04                shutdown_user
 .text.reset_keyboard
                0x00000c06       0x1e .build/obj_ut472_th3v3gas/quantum/quantum.o
                0x00000c06                reset_keyboard
 .text.process_record_quantum
                0x00000c24       0xae .build/obj_ut472_th3v3gas/quantum/quantum.o
                0x00000c24                process_record_quantum
 .text.action_get_macro
                0x00000cd2        0x6 .build/obj_ut472_th3v3gas/quantum/keymap_common.o
                0x00000cd2                action_get_macro
 .text.action_function
                0x00000cd8        0x2 .build/obj_ut472_th3v3gas/quantum/keymap_common.o
                0x00000cd8                action_function
 .text.keymap_key_to_keycode
                0x00000cda       0x34 .build/obj_ut472_th3v3gas/quantum/keymap_common.o
                0x00000cda                keymap_key_to_keycode
 .text.keymap_function_id_to_action
                0x00000d0e       0x10 .build/obj_ut472_th3v3gas/quantum/keymap_common.o
                0x00000d0e                keymap_function_id_to_action
 .text.action_for_key
                0x00000d1e      0x238 .build/obj_ut472_th3v3gas/quantum/keymap_common.o
                0x00000d1e                action_for_key
 .text.keycode_config
                0x00000f56      0x12e .build/obj_ut472_th3v3gas/quantum/keycode_config.o
                0x00000f56                keycode_config
 .text.mod_config
                0x00001084       0x86 .build/obj_ut472_th3v3gas/quantum/keycode_config.o
                0x00001084                mod_config
 .text.matrix_scan_user
                0x0000110a        0x2 .build/obj_ut472_th3v3gas/quantum/matrix_common.o
                0x0000110a                matrix_scan_user
 .text.matrix_get_row
                0x0000110c       0x12 .build/obj_ut472_th3v3gas/quantum/matrix_common.o
                0x0000110c                matrix_get_row
 .text.matrix_print
                0x0000111e        0x2 .build/obj_ut472_th3v3gas/quantum/matrix_common.o
                0x0000111e                matrix_print
 .text.matrix_io_delay
                0x00001120        0x8 .build/obj_ut472_th3v3gas/quantum/matrix_common.o
                0x00001120                matrix_io_delay
 .text.matrix_init
                0x00001128       0xc2 .build/obj_ut472_th3v3gas/quantum/matrix.o
                0x00001128                matrix_init
 .text.matrix_scan
                0x000011ea      0x130 .build/obj_ut472_th3v3gas/quantum/matrix.o
                0x000011ea                matrix_scan
 .text.debounce_init
                0x0000131a        0x2 .build/obj_ut472_th3v3gas/quantum/debounce/sym_g.o
                0x0000131a                debounce_init
 .text.debounce
                0x0000131c       0x72 .build/obj_ut472_th3v3gas/quantum/debounce/sym_g.o
                0x0000131c                debounce
 .text.dump_key_buffer
                0x0000138e       0x3e .build/obj_ut472_th3v3gas/quantum/process_keycode/process_combo.o
 .text.process_combo_event
                0x000013cc        0x2 .build/obj_ut472_th3v3gas/quantum/process_keycode/process_combo.o
                0x000013cc                process_combo_event
 .text.matrix_scan_combo
                0x000013ce       0x30 .build/obj_ut472_th3v3gas/quantum/process_keycode/process_combo.o
                0x000013ce                matrix_scan_combo
 .text.combo_disable
                0x000013fe       0x16 .build/obj_ut472_th3v3gas/quantum/process_keycode/process_combo.o
                0x000013fe                combo_disable
 .text.combo_toggle
                0x00001414       0x12 .build/obj_ut472_th3v3gas/quantum/process_keycode/process_combo.o
                0x00001414                combo_toggle
 .text.process_combo
                0x00001426      0x244 .build/obj_ut472_th3v3gas/quantum/process_keycode/process_combo.o
                0x00001426                process_combo
 .text.process_unicode
                0x0000166a       0x2a .build/obj_ut472_th3v3gas/quantum/process_keycode/process_unicode.o
                0x0000166a                process_unicode
 .text.unicode_input_mode_init
                0x00001694       0x20 .build/obj_ut472_th3v3gas/quantum/process_keycode/process_unicode_common.o
                0x00001694                unicode_input_mode_init
 .text.persist_unicode_input_mode
                0x000016b4        0xc .build/obj_ut472_th3v3gas/quantum/process_keycode/process_unicode_common.o
                0x000016b4                persist_unicode_input_mode
 .text.set_unicode_input_mode
                0x000016c0        0x8 .build/obj_ut472_th3v3gas/quantum/process_keycode/process_unicode_common.o
                0x000016c0                set_unicode_input_mode
 .text.unicode_input_start
                0x000016c8       0x58 .build/obj_ut472_th3v3gas/quantum/process_keycode/process_unicode_common.o
                0x000016c8                unicode_input_start
 .text.unicode_input_finish
                0x00001720       0x30 .build/obj_ut472_th3v3gas/quantum/process_keycode/process_unicode_common.o
                0x00001720                unicode_input_finish
 .text.register_hex
                0x00001750       0x3a .build/obj_ut472_th3v3gas/quantum/process_keycode/process_unicode_common.o
                0x00001750                register_hex
 .text.process_unicode_common
                0x0000178a       0x6a .build/obj_ut472_th3v3gas/quantum/process_keycode/process_unicode_common.o
                0x0000178a                process_unicode_common
 .text.hsv_to_rgb
                0x000017f4      0x102 .build/obj_ut472_th3v3gas/quantum/color.o
                0x000017f4                hsv_to_rgb
 .text.rgblight_effect_dummy
                0x000018f6        0x2 .build/obj_ut472_th3v3gas/quantum/rgblight.o
 .text.sethsv_raw
                0x000018f8       0x1c .build/obj_ut472_th3v3gas/quantum/rgblight.o
                0x000018f8                sethsv_raw
 .text.rgblight_check_config
                0x00001914       0x1e .build/obj_ut472_th3v3gas/quantum/rgblight.o
                0x00001914                rgblight_check_config
 .text.eeconfig_read_rgblight
                0x00001932        0x8 .build/obj_ut472_th3v3gas/quantum/rgblight.o
                0x00001932                eeconfig_read_rgblight
 .text.eeconfig_update_rgblight
                0x0000193a       0x24 .build/obj_ut472_th3v3gas/quantum/rgblight.o
                0x0000193a                eeconfig_update_rgblight
 .text.eeconfig_update_rgblight_default
                0x0000195e       0x1e .build/obj_ut472_th3v3gas/quantum/rgblight.o
                0x0000195e                eeconfig_update_rgblight_default
 .text.rgblight_get_mode
                0x0000197c       0x10 .build/obj_ut472_th3v3gas/quantum/rgblight.o
                0x0000197c                rgblight_get_mode
 .text.rgblight_increase_speed
                0x0000198c       0x22 .build/obj_ut472_th3v3gas/quantum/rgblight.o
                0x0000198c                rgblight_increase_speed
 .text.rgblight_decrease_speed
                0x000019ae       0x22 .build/obj_ut472_th3v3gas/quantum/rgblight.o
                0x000019ae                rgblight_decrease_speed
 .text.rgblight_set
                0x000019d0       0x50 .build/obj_ut472_th3v3gas/quantum/rgblight.o
                0x000019d0                rgblight_set
 .text.rgblight_setrgb
                0x00001a20       0x3c .build/obj_ut472_th3v3gas/quantum/rgblight.o
                0x00001a20                rgblight_setrgb
 .text.rgblight_sethsv_noeeprom_old
                0x00001a5c       0x34 .build/obj_ut472_th3v3gas/quantum/rgblight.o
                0x00001a5c                rgblight_sethsv_noeeprom_old
 .text.rgblight_effect_breathing
                0x00001a90       0x28 .build/obj_ut472_th3v3gas/quantum/rgblight.o
                0x00001a90                rgblight_effect_breathing
 .text.rgblight_effect_rainbow_mood
                0x00001ab8       0x20 .build/obj_ut472_th3v3gas/quantum/rgblight.o
                0x00001ab8                rgblight_effect_rainbow_mood
 .text.rgblight_effect_rgbtest
                0x00001ad8       0x7e .build/obj_ut472_th3v3gas/quantum/rgblight.o
                0x00001ad8                rgblight_effect_rgbtest
 .text.rgblight_sethsv_eeprom_helper
                0x00001b56      0x122 .build/obj_ut472_th3v3gas/quantum/rgblight.o
                0x00001b56                rgblight_sethsv_eeprom_helper
 .text.rgblight_increase_hue_helper
                0x00001c78       0x14 .build/obj_ut472_th3v3gas/quantum/rgblight.o
                0x00001c78                rgblight_increase_hue_helper
 .text.rgblight_increase_hue
                0x00001c8c        0x6 .build/obj_ut472_th3v3gas/quantum/rgblight.o
                0x00001c8c                rgblight_increase_hue
 .text.rgblight_decrease_hue_helper
                0x00001c92       0x14 .build/obj_ut472_th3v3gas/quantum/rgblight.o
                0x00001c92                rgblight_decrease_hue_helper
 .text.rgblight_decrease_hue
                0x00001ca6        0x6 .build/obj_ut472_th3v3gas/quantum/rgblight.o
                0x00001ca6                rgblight_decrease_hue
 .text.rgblight_increase_sat_helper
                0x00001cac       0x18 .build/obj_ut472_th3v3gas/quantum/rgblight.o
                0x00001cac                rgblight_increase_sat_helper
 .text.rgblight_increase_sat
                0x00001cc4        0x6 .build/obj_ut472_th3v3gas/quantum/rgblight.o
                0x00001cc4                rgblight_increase_sat
 .text.rgblight_decrease_sat_helper
                0x00001cca       0x18 .build/obj_ut472_th3v3gas/quantum/rgblight.o
                0x00001cca                rgblight_decrease_sat_helper
 .text.rgblight_decrease_sat
                0x00001ce2        0x6 .build/obj_ut472_th3v3gas/quantum/rgblight.o
                0x00001ce2                rgblight_decrease_sat
 .text.rgblight_increase_val_helper
                0x00001ce8       0x18 .build/obj_ut472_th3v3gas/quantum/rgblight.o
                0x00001ce8                rgblight_increase_val_helper
 .text.rgblight_increase_val
                0x00001d00        0x6 .build/obj_ut472_th3v3gas/quantum/rgblight.o
                0x00001d00                rgblight_increase_val
 .text.rgblight_decrease_val_helper
                0x00001d06       0x18 .build/obj_ut472_th3v3gas/quantum/rgblight.o
                0x00001d06                rgblight_decrease_val_helper
 .text.rgblight_decrease_val
                0x00001d1e        0x6 .build/obj_ut472_th3v3gas/quantum/rgblight.o
                0x00001d1e                rgblight_decrease_val
 .text.rgblight_sethsv_noeeprom
                0x00001d24        0x6 .build/obj_ut472_th3v3gas/quantum/rgblight.o
                0x00001d24                rgblight_sethsv_noeeprom
 .text.rgblight_effect_rainbow_swirl
                0x00001d2a       0x7a .build/obj_ut472_th3v3gas/quantum/rgblight.o
                0x00001d2a                rgblight_effect_rainbow_swirl
 .text.rgblight_effect_snake
                0x00001da4       0xe4 .build/obj_ut472_th3v3gas/quantum/rgblight.o
                0x00001da4                rgblight_effect_snake
 .text.rgblight_effect_knight
                0x00001e88       0xd8 .build/obj_ut472_th3v3gas/quantum/rgblight.o
                0x00001e88                rgblight_effect_knight
 .text.rgblight_effect_christmas
                0x00001f60       0x6c .build/obj_ut472_th3v3gas/quantum/rgblight.o
                0x00001f60                rgblight_effect_christmas
 .text.rgblight_effect_alternating
                0x00001fcc       0x80 .build/obj_ut472_th3v3gas/quantum/rgblight.o
                0x00001fcc                rgblight_effect_alternating
 .text.rgblight_disable
                0x0000204c       0x30 .build/obj_ut472_th3v3gas/quantum/rgblight.o
                0x0000204c                rgblight_disable
 .text.rgblight_timer_enable
                0x0000207c       0x2c .build/obj_ut472_th3v3gas/quantum/rgblight.o
                0x0000207c                rgblight_timer_enable
 .text.rgblight_mode_eeprom_helper
                0x000020a8       0x74 .build/obj_ut472_th3v3gas/quantum/rgblight.o
                0x000020a8                rgblight_mode_eeprom_helper
 .text.rgblight_step_helper
                0x0000211c       0x16 .build/obj_ut472_th3v3gas/quantum/rgblight.o
                0x0000211c                rgblight_step_helper
 .text.rgblight_step
                0x00002132        0x6 .build/obj_ut472_th3v3gas/quantum/rgblight.o
                0x00002132                rgblight_step
 .text.rgblight_step_reverse_helper
                0x00002138       0x14 .build/obj_ut472_th3v3gas/quantum/rgblight.o
                0x00002138                rgblight_step_reverse_helper
 .text.rgblight_step_reverse
                0x0000214c        0x6 .build/obj_ut472_th3v3gas/quantum/rgblight.o
                0x0000214c                rgblight_step_reverse
 .text.rgblight_mode
                0x00002152        0x6 .build/obj_ut472_th3v3gas/quantum/rgblight.o
                0x00002152                rgblight_mode
 .text.rgblight_enable
                0x00002158       0x10 .build/obj_ut472_th3v3gas/quantum/rgblight.o
                0x00002158                rgblight_enable
 .text.rgblight_toggle
                0x00002168        0xe .build/obj_ut472_th3v3gas/quantum/rgblight.o
                0x00002168                rgblight_toggle
 .text.rgblight_mode_noeeprom
                0x00002176        0x6 .build/obj_ut472_th3v3gas/quantum/rgblight.o
                0x00002176                rgblight_mode_noeeprom
 .text.rgblight_init
                0x0000217c       0x66 .build/obj_ut472_th3v3gas/quantum/rgblight.o
                0x0000217c                rgblight_init
 .text.rgblight_task
                0x000021e2      0x136 .build/obj_ut472_th3v3gas/quantum/rgblight.o
                0x000021e2                rgblight_task
 .text.handleKeycodeRGB
                0x00002318        0xa .build/obj_ut472_th3v3gas/quantum/process_keycode/process_rgb.o
 .text.handleKeycodeRGBMode
                0x00002322       0x2a .build/obj_ut472_th3v3gas/quantum/process_keycode/process_rgb.o
 .text.process_rgb
                0x0000234c       0xe0 .build/obj_ut472_th3v3gas/quantum/process_keycode/process_rgb.o
                0x0000234c                process_rgb
 .text.process_tap_dance_action_on_dance_finished.part.0
                0x0000242c       0x36 .build/obj_ut472_th3v3gas/quantum/process_keycode/process_tap_dance.o
 .text.qk_tap_dance_pair_on_each_tap
                0x00002462       0x20 .build/obj_ut472_th3v3gas/quantum/process_keycode/process_tap_dance.o
                0x00002462                qk_tap_dance_pair_on_each_tap
 .text.qk_tap_dance_pair_finished
                0x00002482       0x20 .build/obj_ut472_th3v3gas/quantum/process_keycode/process_tap_dance.o
                0x00002482                qk_tap_dance_pair_finished
 .text.qk_tap_dance_pair_reset
                0x000024a2       0x20 .build/obj_ut472_th3v3gas/quantum/process_keycode/process_tap_dance.o
                0x000024a2                qk_tap_dance_pair_reset
 .text.reset_tap_dance
                0x000024c2       0x7e .build/obj_ut472_th3v3gas/quantum/process_keycode/process_tap_dance.o
                0x000024c2                reset_tap_dance
 .text.preprocess_tap_dance
                0x00002540       0x8c .build/obj_ut472_th3v3gas/quantum/process_keycode/process_tap_dance.o
                0x00002540                preprocess_tap_dance
 .text.process_tap_dance
                0x000025cc       0xc8 .build/obj_ut472_th3v3gas/quantum/process_keycode/process_tap_dance.o
                0x000025cc                process_tap_dance
 .text.matrix_scan_tap_dance
                0x00002694       0xa6 .build/obj_ut472_th3v3gas/quantum/process_keycode/process_tap_dance.o
                0x00002694                matrix_scan_tap_dance
 .text.ws2812_sendarray_mask
                0x0000273a       0x44 .build/obj_ut472_th3v3gas/ws2812.o
                0x0000273a                ws2812_sendarray_mask
 .text.ws2812_setleds_pin
                0x0000277e       0x28 .build/obj_ut472_th3v3gas/ws2812.o
                0x0000277e                ws2812_setleds_pin
 .text.ws2812_setleds
                0x000027a6        0x6 .build/obj_ut472_th3v3gas/ws2812.o
                0x000027a6                ws2812_setleds
 .text.perform_space_cadet
                0x000027ac       0xda .build/obj_ut472_th3v3gas/quantum/process_keycode/process_space_cadet.o
                0x000027ac                perform_space_cadet
 .text.process_space_cadet
                0x00002886       0x82 .build/obj_ut472_th3v3gas/quantum/process_keycode/process_space_cadet.o
                0x00002886                process_space_cadet
 .text.process_magic
                0x00002908      0x246 .build/obj_ut472_th3v3gas/quantum/process_keycode/process_magic.o
                0x00002908                process_magic
 .text.process_grave_esc
                0x00002b4e       0x54 .build/obj_ut472_th3v3gas/quantum/process_keycode/process_grave_esc.o
                0x00002b4e                process_grave_esc
 .text.host_set_driver
                0x00002ba2        0xa .build/obj_ut472_th3v3gas/common/host.o
                0x00002ba2                host_set_driver
 .text.host_keyboard_leds
                0x00002bac       0x18 .build/obj_ut472_th3v3gas/common/host.o
                0x00002bac                host_keyboard_leds
 .text.host_keyboard_send
                0x00002bc4       0x34 .build/obj_ut472_th3v3gas/common/host.o
                0x00002bc4                host_keyboard_send
 .text.host_mouse_send
                0x00002bf8       0x1c .build/obj_ut472_th3v3gas/common/host.o
                0x00002bf8                host_mouse_send
 .text.host_system_send
                0x00002c14       0x2c .build/obj_ut472_th3v3gas/common/host.o
                0x00002c14                host_system_send
 .text.host_consumer_send
                0x00002c40       0x2c .build/obj_ut472_th3v3gas/common/host.o
                0x00002c40                host_consumer_send
 .text.keyboard_pre_init_user
                0x00002c6c        0x2 .build/obj_ut472_th3v3gas/common/keyboard.o
                0x00002c6c                keyboard_pre_init_user
 .text.matrix_setup
                0x00002c6e        0x2 .build/obj_ut472_th3v3gas/common/keyboard.o
                0x00002c6e                matrix_setup
 .text.keyboard_pre_init_kb
                0x00002c70        0x4 .build/obj_ut472_th3v3gas/common/keyboard.o
                0x00002c70                keyboard_pre_init_kb
 .text.keyboard_post_init_user
                0x00002c74        0x2 .build/obj_ut472_th3v3gas/common/keyboard.o
                0x00002c74                keyboard_post_init_user
 .text.keyboard_post_init_kb
                0x00002c76        0x4 .build/obj_ut472_th3v3gas/common/keyboard.o
                0x00002c76                keyboard_post_init_kb
 .text.keyboard_setup
                0x00002c7a        0x8 .build/obj_ut472_th3v3gas/common/keyboard.o
                0x00002c7a                keyboard_setup
 .text.is_keyboard_master
                0x00002c82        0x4 .build/obj_ut472_th3v3gas/common/keyboard.o
                0x00002c82                is_keyboard_master
 .text.keyboard_init
                0x00002c86       0x14 .build/obj_ut472_th3v3gas/common/keyboard.o
                0x00002c86                keyboard_init
 .text.keyboard_task
                0x00002c9a      0x168 .build/obj_ut472_th3v3gas/common/keyboard.o
                0x00002c9a                keyboard_task
 .text.action_exec
                0x00002e02       0x54 .build/obj_ut472_th3v3gas/common/action.o
                0x00002e02                action_exec
 .text.process_record_tap_hint
                0x00002e56        0xa .build/obj_ut472_th3v3gas/common/action.o
                0x00002e56                process_record_tap_hint
 .text.register_code
                0x00002e60       0xf8 .build/obj_ut472_th3v3gas/common/action.o
                0x00002e60                register_code
 .text.unregister_code
                0x00002f58       0xac .build/obj_ut472_th3v3gas/common/action.o
                0x00002f58                unregister_code
 .text.tap_code
                0x00003004       0x26 .build/obj_ut472_th3v3gas/common/action.o
                0x00003004                tap_code
 .text.register_mods
                0x0000302a        0xe .build/obj_ut472_th3v3gas/common/action.o
                0x0000302a                register_mods
 .text.unregister_mods
                0x00003038        0xe .build/obj_ut472_th3v3gas/common/action.o
                0x00003038                unregister_mods
 .text.process_action
                0x00003046      0x498 .build/obj_ut472_th3v3gas/common/action.o
                0x00003046                process_action
 .text.process_record
                0x000034de       0x54 .build/obj_ut472_th3v3gas/common/action.o
                0x000034de                process_record
 .text.register_weak_mods
                0x00003532        0xe .build/obj_ut472_th3v3gas/common/action.o
                0x00003532                register_weak_mods
 .text.unregister_weak_mods
                0x00003540        0xe .build/obj_ut472_th3v3gas/common/action.o
                0x00003540                unregister_weak_mods
 .text.clear_keyboard_but_mods_and_keys
                0x0000354e       0x24 .build/obj_ut472_th3v3gas/common/action.o
                0x0000354e                clear_keyboard_but_mods_and_keys
 .text.clear_keyboard_but_mods
                0x00003572        0x8 .build/obj_ut472_th3v3gas/common/action.o
                0x00003572                clear_keyboard_but_mods
 .text.clear_keyboard
                0x0000357a        0x8 .build/obj_ut472_th3v3gas/common/action.o
                0x0000357a                clear_keyboard
 .text.is_tap_action
                0x00003582       0x3e .build/obj_ut472_th3v3gas/common/action.o
                0x00003582                is_tap_action
 .text.is_tap_key
                0x000035c0        0x8 .build/obj_ut472_th3v3gas/common/action.o
                0x000035c0                is_tap_key
 .text.debug_event
                0x000035c8       0x1e .build/obj_ut472_th3v3gas/common/action.o
                0x000035c8                debug_event
 .text.debug_record
                0x000035e6       0x20 .build/obj_ut472_th3v3gas/common/action.o
                0x000035e6                debug_record
 .text.debug_waiting_buffer
                0x00003606       0x3e .build/obj_ut472_th3v3gas/common/action_tapping.o
 .text.debug_tapping_key
                0x00003644       0x1c .build/obj_ut472_th3v3gas/common/action_tapping.o
 .text.waiting_buffer_scan_tap
                0x00003660       0xe0 .build/obj_ut472_th3v3gas/common/action_tapping.o
 .text.process_tapping
                0x00003740      0x394 .build/obj_ut472_th3v3gas/common/action_tapping.o
 .text.action_tapping_process
                0x00003ad4      0x13c .build/obj_ut472_th3v3gas/common/action_tapping.o
                0x00003ad4                action_tapping_process
 .text.action_macro_play
                0x00003c10       0xf0 .build/obj_ut472_th3v3gas/common/action_macro.o
                0x00003c10                action_macro_play
 .text.default_layer_state_set_user
                0x00003d00        0x2 .build/obj_ut472_th3v3gas/common/action_layer.o
                0x00003d00                default_layer_state_set_user
 .text.default_layer_state_set_kb
                0x00003d02        0x4 .build/obj_ut472_th3v3gas/common/action_layer.o
                0x00003d02                default_layer_state_set_kb
 .text.default_layer_state_set
                0x00003d06       0x18 .build/obj_ut472_th3v3gas/common/action_layer.o
 .text.default_layer_debug
                0x00003d1e        0x2 .build/obj_ut472_th3v3gas/common/action_layer.o
                0x00003d1e                default_layer_debug
 .text.default_layer_set
                0x00003d20        0x4 .build/obj_ut472_th3v3gas/common/action_layer.o
                0x00003d20                default_layer_set
 .text.default_layer_or
                0x00003d24       0x24 .build/obj_ut472_th3v3gas/common/action_layer.o
                0x00003d24                default_layer_or
 .text.default_layer_and
                0x00003d48       0x24 .build/obj_ut472_th3v3gas/common/action_layer.o
                0x00003d48                default_layer_and
 .text.default_layer_xor
                0x00003d6c       0x24 .build/obj_ut472_th3v3gas/common/action_layer.o
                0x00003d6c                default_layer_xor
 .text.layer_state_set_user
                0x00003d90        0x4 .build/obj_ut472_th3v3gas/common/action_layer.o
                0x00003d90                layer_state_set_user
 .text.layer_state_set_kb
                0x00003d94        0x4 .build/obj_ut472_th3v3gas/common/action_layer.o
                0x00003d94                layer_state_set_kb
 .text.layer_state_set
                0x00003d98       0x18 .build/obj_ut472_th3v3gas/common/action_layer.o
                0x00003d98                layer_state_set
 .text.layer_clear
                0x00003db0        0xa .build/obj_ut472_th3v3gas/common/action_layer.o
                0x00003db0                layer_clear
 .text.layer_move
                0x00003dba       0x2a .build/obj_ut472_th3v3gas/common/action_layer.o
                0x00003dba                layer_move
 .text.layer_on
                0x00003de4       0x42 .build/obj_ut472_th3v3gas/common/action_layer.o
                0x00003de4                layer_on
 .text.layer_off
                0x00003e26       0x46 .build/obj_ut472_th3v3gas/common/action_layer.o
                0x00003e26                layer_off
 .text.layer_invert
                0x00003e6c       0x42 .build/obj_ut472_th3v3gas/common/action_layer.o
                0x00003e6c                layer_invert
 .text.layer_or
                0x00003eae       0x24 .build/obj_ut472_th3v3gas/common/action_layer.o
                0x00003eae                layer_or
 .text.layer_and
                0x00003ed2       0x24 .build/obj_ut472_th3v3gas/common/action_layer.o
                0x00003ed2                layer_and
 .text.layer_xor
                0x00003ef6       0x24 .build/obj_ut472_th3v3gas/common/action_layer.o
                0x00003ef6                layer_xor
 .text.layer_debug
                0x00003f1a        0x2 .build/obj_ut472_th3v3gas/common/action_layer.o
                0x00003f1a                layer_debug
 .text.update_source_layers_cache
                0x00003f1c       0x6e .build/obj_ut472_th3v3gas/common/action_layer.o
                0x00003f1c                update_source_layers_cache
 .text.read_source_layers_cache
                0x00003f8a       0x58 .build/obj_ut472_th3v3gas/common/action_layer.o
                0x00003f8a                read_source_layers_cache
 .text.layer_switch_get_layer
                0x00003fe2       0x84 .build/obj_ut472_th3v3gas/common/action_layer.o
                0x00003fe2                layer_switch_get_layer
 .text.layer_switch_get_action
                0x00004066       0x14 .build/obj_ut472_th3v3gas/common/action_layer.o
                0x00004066                layer_switch_get_action
 .text.store_or_get_action
                0x0000407a       0x48 .build/obj_ut472_th3v3gas/common/action_layer.o
                0x0000407a                store_or_get_action
 .text.add_key  0x000040c2        0xe .build/obj_ut472_th3v3gas/common/action_util.o
                0x000040c2                add_key
 .text.del_key  0x000040d0        0xe .build/obj_ut472_th3v3gas/common/action_util.o
                0x000040d0                del_key
 .text.clear_keys
                0x000040de        0xc .build/obj_ut472_th3v3gas/common/action_util.o
                0x000040de                clear_keys
 .text.get_oneshot_layer
                0x000040ea        0xc .build/obj_ut472_th3v3gas/common/action_util.o
                0x000040ea                get_oneshot_layer
 .text.get_oneshot_layer_state
                0x000040f6        0x8 .build/obj_ut472_th3v3gas/common/action_util.o
                0x000040f6                get_oneshot_layer_state
 .text.is_oneshot_layer_active
                0x000040fe        0xe .build/obj_ut472_th3v3gas/common/action_util.o
                0x000040fe                is_oneshot_layer_active
 .text.get_mods
                0x0000410c        0x6 .build/obj_ut472_th3v3gas/common/action_util.o
                0x0000410c                get_mods
 .text.add_mods
                0x00004112        0xc .build/obj_ut472_th3v3gas/common/action_util.o
                0x00004112                add_mods
 .text.del_mods
                0x0000411e        0xe .build/obj_ut472_th3v3gas/common/action_util.o
                0x0000411e                del_mods
 .text.set_mods
                0x0000412c        0x6 .build/obj_ut472_th3v3gas/common/action_util.o
                0x0000412c                set_mods
 .text.clear_mods
                0x00004132        0x6 .build/obj_ut472_th3v3gas/common/action_util.o
                0x00004132                clear_mods
 .text.get_weak_mods
                0x00004138        0x6 .build/obj_ut472_th3v3gas/common/action_util.o
                0x00004138                get_weak_mods
 .text.add_weak_mods
                0x0000413e        0xc .build/obj_ut472_th3v3gas/common/action_util.o
                0x0000413e                add_weak_mods
 .text.del_weak_mods
                0x0000414a        0xe .build/obj_ut472_th3v3gas/common/action_util.o
                0x0000414a                del_weak_mods
 .text.clear_weak_mods
                0x00004158        0x6 .build/obj_ut472_th3v3gas/common/action_util.o
                0x00004158                clear_weak_mods
 .text.add_macro_mods
                0x0000415e        0xc .build/obj_ut472_th3v3gas/common/action_util.o
                0x0000415e                add_macro_mods
 .text.del_macro_mods
                0x0000416a        0xe .build/obj_ut472_th3v3gas/common/action_util.o
                0x0000416a                del_macro_mods
 .text.clear_macro_mods
                0x00004178        0x6 .build/obj_ut472_th3v3gas/common/action_util.o
                0x00004178                clear_macro_mods
 .text.get_oneshot_mods
                0x0000417e        0x6 .build/obj_ut472_th3v3gas/common/action_util.o
                0x0000417e                get_oneshot_mods
 .text.oneshot_mods_changed_user
                0x00004184        0x2 .build/obj_ut472_th3v3gas/common/action_util.o
                0x00004184                oneshot_mods_changed_user
 .text.oneshot_mods_changed_kb
                0x00004186        0x4 .build/obj_ut472_th3v3gas/common/action_util.o
                0x00004186                oneshot_mods_changed_kb
 .text.set_oneshot_mods
                0x0000418a       0x12 .build/obj_ut472_th3v3gas/common/action_util.o
                0x0000418a                set_oneshot_mods
 .text.clear_oneshot_mods
                0x0000419c       0x14 .build/obj_ut472_th3v3gas/common/action_util.o
                0x0000419c                clear_oneshot_mods
 .text.send_keyboard_report
                0x000041b0       0x66 .build/obj_ut472_th3v3gas/common/action_util.o
                0x000041b0                send_keyboard_report
 .text.oneshot_layer_changed_user
                0x00004216        0x2 .build/obj_ut472_th3v3gas/common/action_util.o
                0x00004216                oneshot_layer_changed_user
 .text.oneshot_layer_changed_kb
                0x00004218        0x4 .build/obj_ut472_th3v3gas/common/action_util.o
                0x00004218                oneshot_layer_changed_kb
 .text.set_oneshot_layer
                0x0000421c       0x20 .build/obj_ut472_th3v3gas/common/action_util.o
                0x0000421c                set_oneshot_layer
 .text.reset_oneshot_layer
                0x0000423c        0xa .build/obj_ut472_th3v3gas/common/action_util.o
                0x0000423c                reset_oneshot_layer
 .text.clear_oneshot_layer_state
                0x00004246       0x30 .build/obj_ut472_th3v3gas/common/action_util.o
                0x00004246                clear_oneshot_layer_state
 .text.eeconfig_is_enabled
                0x00004276       0x16 .build/obj_ut472_th3v3gas/common/eeconfig.o
                0x00004276                eeconfig_is_enabled
 .text.eeconfig_read_debug
                0x0000428c        0x8 .build/obj_ut472_th3v3gas/common/eeconfig.o
                0x0000428c                eeconfig_read_debug
 .text.eeconfig_update_debug
                0x00004294        0xa .build/obj_ut472_th3v3gas/common/eeconfig.o
                0x00004294                eeconfig_update_debug
 .text.eeconfig_read_default_layer
                0x0000429e        0x8 .build/obj_ut472_th3v3gas/common/eeconfig.o
                0x0000429e                eeconfig_read_default_layer
 .text.eeconfig_update_default_layer
                0x000042a6        0xa .build/obj_ut472_th3v3gas/common/eeconfig.o
                0x000042a6                eeconfig_update_default_layer
 .text.eeconfig_read_keymap
                0x000042b0       0x1c .build/obj_ut472_th3v3gas/common/eeconfig.o
                0x000042b0                eeconfig_read_keymap
 .text.eeconfig_update_keymap
                0x000042cc       0x1a .build/obj_ut472_th3v3gas/common/eeconfig.o
                0x000042cc                eeconfig_update_keymap
 .text.eeconfig_update_kb
                0x000042e6        0xc .build/obj_ut472_th3v3gas/common/eeconfig.o
                0x000042e6                eeconfig_update_kb
 .text.eeconfig_update_user
                0x000042f2        0xc .build/obj_ut472_th3v3gas/common/eeconfig.o
                0x000042f2                eeconfig_update_user
 .text.eeconfig_init_user
                0x000042fe        0xa .build/obj_ut472_th3v3gas/common/eeconfig.o
                0x000042fe                eeconfig_init_user
 .text.eeconfig_init_kb
                0x00004308        0xe .build/obj_ut472_th3v3gas/common/eeconfig.o
                0x00004308                eeconfig_init_kb
 .text.eeconfig_init_quantum
                0x00004316       0xae .build/obj_ut472_th3v3gas/common/eeconfig.o
                0x00004316                eeconfig_init_quantum
 .text.eeconfig_init
                0x000043c4        0x4 .build/obj_ut472_th3v3gas/common/eeconfig.o
                0x000043c4                eeconfig_init
 .text.eeconfig_update_handedness
                0x000043c8        0xa .build/obj_ut472_th3v3gas/common/eeconfig.o
                0x000043c8                eeconfig_update_handedness
 .text.has_anykey
                0x000043d2       0x28 .build/obj_ut472_th3v3gas/common/report.o
                0x000043d2                has_anykey
 .text.add_key_byte
                0x000043fa       0x34 .build/obj_ut472_th3v3gas/common/report.o
                0x000043fa                add_key_byte
 .text.del_key_byte
                0x0000442e       0x1a .build/obj_ut472_th3v3gas/common/report.o
                0x0000442e                del_key_byte
 .text.add_key_bit
                0x00004448       0x28 .build/obj_ut472_th3v3gas/common/report.o
                0x00004448                add_key_bit
 .text.del_key_bit
                0x00004470       0x2a .build/obj_ut472_th3v3gas/common/report.o
                0x00004470                del_key_bit
 .text.add_key_to_report
                0x0000449a       0x16 .build/obj_ut472_th3v3gas/common/report.o
                0x0000449a                add_key_to_report
 .text.del_key_from_report
                0x000044b0       0x16 .build/obj_ut472_th3v3gas/common/report.o
                0x000044b0                del_key_from_report
 .text.clear_keys_from_report
                0x000044c6       0x24 .build/obj_ut472_th3v3gas/common/report.o
                0x000044c6                clear_keys_from_report
 .text.matrix_power_up
                0x000044ea        0x2 .build/obj_ut472_th3v3gas/common/avr/suspend.o
                0x000044ea                matrix_power_up
 .text.suspend_power_down_user
                0x000044ec        0x2 .build/obj_ut472_th3v3gas/common/avr/suspend.o
                0x000044ec                suspend_power_down_user
 .text.suspend_power_down_kb
                0x000044ee        0x4 .build/obj_ut472_th3v3gas/common/avr/suspend.o
                0x000044ee                suspend_power_down_kb
 .text.suspend_power_down
                0x000044f2       0x60 .build/obj_ut472_th3v3gas/common/avr/suspend.o
                0x000044f2                suspend_power_down
 .text.matrix_power_down
                0x00004552        0x2 .build/obj_ut472_th3v3gas/common/avr/suspend.o
                0x00004552                matrix_power_down
 .text.suspend_wakeup_condition
                0x00004554       0x2a .build/obj_ut472_th3v3gas/common/avr/suspend.o
                0x00004554                suspend_wakeup_condition
 .text.suspend_wakeup_init_user
                0x0000457e        0x2 .build/obj_ut472_th3v3gas/common/avr/suspend.o
                0x0000457e                suspend_wakeup_init_user
 .text.suspend_wakeup_init_kb
                0x00004580        0x4 .build/obj_ut472_th3v3gas/common/avr/suspend.o
                0x00004580                suspend_wakeup_init_kb
 .text.suspend_wakeup_init
                0x00004584       0x10 .build/obj_ut472_th3v3gas/common/avr/suspend.o
                0x00004584                suspend_wakeup_init
 .text.__vector_13
                0x00004594       0x4e .build/obj_ut472_th3v3gas/common/avr/suspend.o
                0x00004594                __vector_13
 .text.timer_init
                0x000045e2       0x12 .build/obj_ut472_th3v3gas/common/avr/timer.o
                0x000045e2                timer_init
 .text.timer_read
                0x000045f4       0x18 .build/obj_ut472_th3v3gas/common/avr/timer.o
                0x000045f4                timer_read
 .text.timer_elapsed
                0x0000460c       0x54 .build/obj_ut472_th3v3gas/common/avr/timer.o
                0x0000460c                timer_elapsed
 .text.__vector_19
                0x00004660       0x48 .build/obj_ut472_th3v3gas/common/avr/timer.o
                0x00004660                __vector_19
 .text.bootloader_jump
                0x000046a8       0x48 .build/obj_ut472_th3v3gas/common/avr/bootloader.o
                0x000046a8                bootloader_jump
 .text.scan_keycode
                0x000046f0       0x7a .build/obj_ut472_th3v3gas/common/bootmagic.o
 .text.bootmagic_scan_keycode
                0x0000476a       0x1c .build/obj_ut472_th3v3gas/common/bootmagic.o
                0x0000476a                bootmagic_scan_keycode
 .text.bootmagic
                0x00004786      0x234 .build/obj_ut472_th3v3gas/common/bootmagic.o
                0x00004786                bootmagic
 .text.move_unit
                0x000049ba       0x98 .build/obj_ut472_th3v3gas/common/mousekey.o
 .text.wheel_unit
                0x00004a52       0x76 .build/obj_ut472_th3v3gas/common/mousekey.o
 .text.mousekey_on
                0x00004ac8       0xd0 .build/obj_ut472_th3v3gas/common/mousekey.o
                0x00004ac8                mousekey_on
 .text.mousekey_off
                0x00004b98       0xfe .build/obj_ut472_th3v3gas/common/mousekey.o
                0x00004b98                mousekey_off
 .text.mousekey_send
                0x00004c96       0x16 .build/obj_ut472_th3v3gas/common/mousekey.o
                0x00004c96                mousekey_send
 .text.mousekey_task
                0x00004cac      0x13c .build/obj_ut472_th3v3gas/common/mousekey.o
                0x00004cac                mousekey_task
 .text.mousekey_clear
                0x00004de8       0x18 .build/obj_ut472_th3v3gas/common/mousekey.o
                0x00004de8                mousekey_clear
 .text.keyboard_leds
                0x00004e00        0x6 .build/obj_ut472_th3v3gas/lufa.o
 .text.send_extra
                0x00004e06       0x66 .build/obj_ut472_th3v3gas/lufa.o
 .text.send_consumer
                0x00004e6c       0x24 .build/obj_ut472_th3v3gas/lufa.o
 .text.send_system
                0x00004e90        0xc .build/obj_ut472_th3v3gas/lufa.o
 .text.send_mouse
                0x00004e9c       0x56 .build/obj_ut472_th3v3gas/lufa.o
 .text.send_keyboard
                0x00004ef2       0x8c .build/obj_ut472_th3v3gas/lufa.o
 .text.EVENT_USB_Device_Reset
                0x00004f7e        0x2 .build/obj_ut472_th3v3gas/lufa.o
                0x00004f7e                EVENT_USB_Device_Reset
 .text.EVENT_USB_Device_Suspend
                0x00004f80        0x2 .build/obj_ut472_th3v3gas/lufa.o
                0x00004f80                EVENT_USB_Device_Suspend
 .text.EVENT_USB_Device_WakeUp
                0x00004f82        0x4 .build/obj_ut472_th3v3gas/lufa.o
                0x00004f82                EVENT_USB_Device_WakeUp
 .text.EVENT_USB_Device_ConfigurationChanged
                0x00004f86       0x14 .build/obj_ut472_th3v3gas/lufa.o
                0x00004f86                EVENT_USB_Device_ConfigurationChanged
 .text.EVENT_USB_Device_ControlRequest
                0x00004f9a      0x16a .build/obj_ut472_th3v3gas/lufa.o
                0x00004f9a                EVENT_USB_Device_ControlRequest
 .text.startup.main
                0x00005104       0x7e .build/obj_ut472_th3v3gas/lufa.o
                0x00005104                main
 .text.CALLBACK_USB_GetDescriptor
                0x00005182        0x4 .build/obj_ut472_th3v3gas/lufa.o
                0x00005182                CALLBACK_USB_GetDescriptor
 .text.get_usb_descriptor
                0x00005186       0xbc .build/obj_ut472_th3v3gas/usb_descriptor.o
                0x00005186                get_usb_descriptor
 .text.auto_detect_output
                0x00005242       0x10 .build/obj_ut472_th3v3gas/outputselect.o
                0x00005242                auto_detect_output
 .text.where_to_send
                0x00005252        0xe .build/obj_ut472_th3v3gas/outputselect.o
                0x00005252                where_to_send
 .text.USB_Device_SendRemoteWakeup
                0x00005260       0x2c .build/obj_ut472_th3v3gas/lib/lufa/LUFA/Drivers/USB/Core/AVR8/Device_AVR8.o
                0x00005260                USB_Device_SendRemoteWakeup
 .text.Endpoint_Write_Stream_LE
                0x0000528c       0x9e .build/obj_ut472_th3v3gas/lib/lufa/LUFA/Drivers/USB/Core/AVR8/EndpointStream_AVR8.o
                0x0000528c                Endpoint_Write_Stream_LE
 .text.Endpoint_Write_Control_Stream_LE
                0x0000532a       0xb8 .build/obj_ut472_th3v3gas/lib/lufa/LUFA/Drivers/USB/Core/AVR8/EndpointStream_AVR8.o
                0x0000532a                Endpoint_Write_Control_Stream_LE
 .text.Endpoint_Write_Control_PStream_LE
                0x000053e2       0xba .build/obj_ut472_th3v3gas/lib/lufa/LUFA/Drivers/USB/Core/AVR8/EndpointStream_AVR8.o
                0x000053e2                Endpoint_Write_Control_PStream_LE
 .text.Endpoint_ConfigureEndpoint_Prv
                0x0000549c       0x68 .build/obj_ut472_th3v3gas/lib/lufa/LUFA/Drivers/USB/Core/AVR8/Endpoint_AVR8.o
                0x0000549c                Endpoint_ConfigureEndpoint_Prv
 .text.Endpoint_ClearStatusStage
                0x00005504       0x3e .build/obj_ut472_th3v3gas/lib/lufa/LUFA/Drivers/USB/Core/AVR8/Endpoint_AVR8.o
                0x00005504                Endpoint_ClearStatusStage
 .text.Endpoint_WaitUntilReady
                0x00005542       0x62 .build/obj_ut472_th3v3gas/lib/lufa/LUFA/Drivers/USB/Core/AVR8/Endpoint_AVR8.o
                0x00005542                Endpoint_WaitUntilReady
 .text.USB_Disable
                0x000055a4       0x2e .build/obj_ut472_th3v3gas/lib/lufa/LUFA/Drivers/USB/Core/AVR8/USBController_AVR8.o
                0x000055a4                USB_Disable
 .text.USB_ResetInterface
                0x000055d2       0x78 .build/obj_ut472_th3v3gas/lib/lufa/LUFA/Drivers/USB/Core/AVR8/USBController_AVR8.o
                0x000055d2                USB_ResetInterface
 .text.USB_Init
                0x0000564a       0x14 .build/obj_ut472_th3v3gas/lib/lufa/LUFA/Drivers/USB/Core/AVR8/USBController_AVR8.o
                0x0000564a                USB_Init
 .text.USB_INT_DisableAllInterrupts
                0x0000565e        0x6 .build/obj_ut472_th3v3gas/lib/lufa/LUFA/Drivers/USB/Core/AVR8/USBInterrupt_AVR8.o
                0x0000565e                USB_INT_DisableAllInterrupts
 .text.USB_INT_ClearAllInterrupts
                0x00005664        0x6 .build/obj_ut472_th3v3gas/lib/lufa/LUFA/Drivers/USB/Core/AVR8/USBInterrupt_AVR8.o
                0x00005664                USB_INT_ClearAllInterrupts
 .text.__vector_11
                0x0000566a      0x162 .build/obj_ut472_th3v3gas/lib/lufa/LUFA/Drivers/USB/Core/AVR8/USBInterrupt_AVR8.o
                0x0000566a                __vector_11
 .text.__vector_12
                0x000057cc       0x88 .build/obj_ut472_th3v3gas/lib/lufa/LUFA/Drivers/USB/Core/AVR8/USBInterrupt_AVR8.o
                0x000057cc                __vector_12
 .text.USB_Device_ProcessControlRequest
                0x00005854      0x2a4 .build/obj_ut472_th3v3gas/lib/lufa/LUFA/Drivers/USB/Core/DeviceStandardReq.o
                0x00005854                USB_Device_ProcessControlRequest
 .text.USB_Event_Stub
                0x00005af8        0x2 .build/obj_ut472_th3v3gas/lib/lufa/LUFA/Drivers/USB/Core/Events.o
                0x00005af8                EVENT_USB_Device_StartOfFrame
                0x00005af8                USB_Event_Stub
 .text.USB_USBTask
                0x00005afa       0x36 .build/obj_ut472_th3v3gas/lib/lufa/LUFA/Drivers/USB/Core/USBTask.o
                0x00005afa                USB_USBTask
 .text.libgcc.mul
                0x00005b30       0x12 c:/users/nonej/documents/keyboard/msys64/home/nonej/qmk_utils/avr8-gnu-toolchain/bin/../lib/gcc/avr/8.3.0/avr35\libgcc.a(_mulqi3.o)
                0x00005b30                __mulqi3
 .text.libgcc.mul
                0x00005b42       0x22 c:/users/nonej/documents/keyboard/msys64/home/nonej/qmk_utils/avr8-gnu-toolchain/bin/../lib/gcc/avr/8.3.0/avr35\libgcc.a(_mulhi3.o)
                0x00005b42                __mulhi3
 .text.libgcc.div
                0x00005b64       0x28 c:/users/nonej/documents/keyboard/msys64/home/nonej/qmk_utils/avr8-gnu-toolchain/bin/../lib/gcc/avr/8.3.0/avr35\libgcc.a(_udivmodhi4.o)
                0x00005b64                __udivmodhi4
 .text.libgcc.div
                0x00005b8c       0x28 c:/users/nonej/documents/keyboard/msys64/home/nonej/qmk_utils/avr8-gnu-toolchain/bin/../lib/gcc/avr/8.3.0/avr35\libgcc.a(_divmodhi4.o)
                0x00005b8c                _div
                0x00005b8c                __divmodhi4
 .text.libgcc   0x00005bb4        0xc c:/users/nonej/documents/keyboard/msys64/home/nonej/qmk_utils/avr8-gnu-toolchain/bin/../lib/gcc/avr/8.3.0/avr35\libgcc.a(_tablejump2.o)
                0x00005bb4                __tablejump2__
 .text.avr-libc
                0x00005bc0       0x1a c:/users/nonej/documents/keyboard/msys64/home/nonej/qmk_utils/avr8-gnu-toolchain/bin/../lib/gcc/avr/8.3.0/../../../../avr/lib/avr35\libc.a(memchr.o)
                0x00005bc0                memchr
 .text.avr-libc
                0x00005bda       0x10 c:/users/nonej/documents/keyboard/msys64/home/nonej/qmk_utils/avr8-gnu-toolchain/bin/../lib/gcc/avr/8.3.0/../../../../avr/lib/avr35\libatmega32u2.a(eerd_byte.o)
                0x00005bda                eeprom_read_byte
 .text.avr-libc
                0x00005bea        0xc c:/users/nonej/documents/keyboard/msys64/home/nonej/qmk_utils/avr8-gnu-toolchain/bin/../lib/gcc/avr/8.3.0/../../../../avr/lib/avr35\libatmega32u2.a(eerd_dword.o)
                0x00005bea                eeprom_read_float
                0x00005bea                eeprom_read_dword
 .text.avr-libc
                0x00005bf6        0xc c:/users/nonej/documents/keyboard/msys64/home/nonej/qmk_utils/avr8-gnu-toolchain/bin/../lib/gcc/avr/8.3.0/../../../../avr/lib/avr35\libatmega32u2.a(eerd_word.o)
                0x00005bf6                eeprom_read_word
 .text.avr-libc
                0x00005c02       0x24 c:/users/nonej/documents/keyboard/msys64/home/nonej/qmk_utils/avr8-gnu-toolchain/bin/../lib/gcc/avr/8.3.0/../../../../avr/lib/avr35\libatmega32u2.a(eeupd_byte.o)
                0x00005c02                eeprom_update_byte
                0x00005c04                eeprom_update_r18
 .text.avr-libc
                0x00005c26       0x18 c:/users/nonej/documents/keyboard/msys64/home/nonej/qmk_utils/avr8-gnu-toolchain/bin/../lib/gcc/avr/8.3.0/../../../../avr/lib/avr35\libatmega32u2.a(eeupd_dword.o)
                0x00005c26                eeprom_update_float
                0x00005c26                eeprom_update_dword
 .text.avr-libc
                0x00005c3e        0xc c:/users/nonej/documents/keyboard/msys64/home/nonej/qmk_utils/avr8-gnu-toolchain/bin/../lib/gcc/avr/8.3.0/../../../../avr/lib/avr35\libatmega32u2.a(eeupd_word.o)
                0x00005c3e                eeprom_update_word
 .text.avr-libc
                0x00005c4a       0x20 c:/users/nonej/documents/keyboard/msys64/home/nonej/qmk_utils/avr8-gnu-toolchain/bin/../lib/gcc/avr/8.3.0/../../../../avr/lib/avr35\libatmega32u2.a(eerd_block.o)
                0x00005c4a                eeprom_read_block
                0x00005c4e                eeprom_read_blraw
                0x00005c6a                . = ALIGN (0x2)
 *(.fini9)
 .fini9         0x00005c6a        0x0 c:/users/nonej/documents/keyboard/msys64/home/nonej/qmk_utils/avr8-gnu-toolchain/bin/../lib/gcc/avr/8.3.0/avr35\libgcc.a(_exit.o)
                0x00005c6a                _exit
                0x00005c6a                exit
 *(.fini9)
 *(.fini8)
 *(.fini8)
 *(.fini7)
 *(.fini7)
 *(.fini6)
 *(.fini6)
 *(.fini5)
 *(.fini5)
 *(.fini4)
 *(.fini4)
 *(.fini3)
 *(.fini3)
 *(.fini2)
 *(.fini2)
 *(.fini1)
 *(.fini1)
 *(.fini0)
 .fini0         0x00005c6a        0x4 c:/users/nonej/documents/keyboard/msys64/home/nonej/qmk_utils/avr8-gnu-toolchain/bin/../lib/gcc/avr/8.3.0/avr35\libgcc.a(_exit.o)
 *(.fini0)
 *(.hightext)
 *(.hightext*)
 *(.progmemx.*)
                0x00005c6e                . = ALIGN (0x2)
 *(.jumptables)
 *(.jumptables*)
 .jumptables.gcc.process_rgb
                0x00005c6e       0x28 .build/obj_ut472_th3v3gas/quantum/process_keycode/process_rgb.o
 .jumptables.gcc.process_action
                0x00005c96       0x20 .build/obj_ut472_th3v3gas/common/action.o
 .jumptables.gcc.is_tap_action
                0x00005cb6       0x1c .build/obj_ut472_th3v3gas/common/action.o
 .jumptables.gcc.USB_Device_ProcessControlRequest
                0x00005cd2       0x14 .build/obj_ut472_th3v3gas/lib/lufa/LUFA/Drivers/USB/Core/DeviceStandardReq.o
                0x00005ce6                _etext = .

.data           0x00800100      0x1b8 load address 0x00005ce6
                0x00800100                PROVIDE (__data_start = .)
 *(.data)
 *(.data*)
 .data.key_combos
                0x00800100        0xa .build/obj_ut472_th3v3gas/keyboards/ut472/keymaps/th3v3gas/keymap.o
                0x00800100                key_combos
 .data.tap_dance_actions
                0x0080010a       0xc6 .build/obj_ut472_th3v3gas/keyboards/ut472/keymaps/th3v3gas/keymap.o
                0x0080010a                tap_dance_actions
 .data.__compound_literal.6
                0x008001d0        0x4 .build/obj_ut472_th3v3gas/keyboards/ut472/keymaps/th3v3gas/keymap.o
 .data.__compound_literal.5
                0x008001d4        0x4 .build/obj_ut472_th3v3gas/keyboards/ut472/keymaps/th3v3gas/keymap.o
 .data.__compound_literal.4
                0x008001d8        0x4 .build/obj_ut472_th3v3gas/keyboards/ut472/keymaps/th3v3gas/keymap.o
 .data.__compound_literal.3
                0x008001dc        0x4 .build/obj_ut472_th3v3gas/keyboards/ut472/keymaps/th3v3gas/keymap.o
 .data.__compound_literal.2
                0x008001e0        0x4 .build/obj_ut472_th3v3gas/keyboards/ut472/keymaps/th3v3gas/keymap.o
 .data.__compound_literal.1
                0x008001e4        0x4 .build/obj_ut472_th3v3gas/keyboards/ut472/keymaps/th3v3gas/keymap.o
 .data.__compound_literal.0
                0x008001e8        0x4 .build/obj_ut472_th3v3gas/keyboards/ut472/keymaps/th3v3gas/keymap.o
 .data.b_combo_enable
                0x008001ec        0x1 .build/obj_ut472_th3v3gas/quantum/process_keycode/process_combo.o
 .data.increment.3230
                0x008001ed        0x1 .build/obj_ut472_th3v3gas/quantum/rgblight.o
 .data.high_bound.3229
                0x008001ee        0x1 .build/obj_ut472_th3v3gas/quantum/rgblight.o
 .data.effect_num_leds
                0x008001ef        0x1 .build/obj_ut472_th3v3gas/quantum/rgblight.o
 .data.effect_end_pos
                0x008001f0        0x1 .build/obj_ut472_th3v3gas/quantum/rgblight.o
 .data.clipping_num_leds
                0x008001f1        0x1 .build/obj_ut472_th3v3gas/quantum/rgblight.o
 .data.static_effect_table
                0x008001f2        0xb .build/obj_ut472_th3v3gas/quantum/rgblight.o
 .data.highest_td
                0x008001fd        0x1 .build/obj_ut472_th3v3gas/quantum/process_keycode/process_tap_dance.o
 .data.keyboard_report
                0x008001fe        0x2 .build/obj_ut472_th3v3gas/common/action_util.o
                0x008001fe                keyboard_report
 .data.mk_wheel_time_to_max
                0x00800200        0x1 .build/obj_ut472_th3v3gas/common/mousekey.o
                0x00800200                mk_wheel_time_to_max
 .data.mk_wheel_max_speed
                0x00800201        0x1 .build/obj_ut472_th3v3gas/common/mousekey.o
                0x00800201                mk_wheel_max_speed
 .data.mk_time_to_max
                0x00800202        0x1 .build/obj_ut472_th3v3gas/common/mousekey.o
                0x00800202                mk_time_to_max
 .data.mk_max_speed
                0x00800203        0x1 .build/obj_ut472_th3v3gas/common/mousekey.o
                0x00800203                mk_max_speed
 .data.mk_interval
                0x00800204        0x1 .build/obj_ut472_th3v3gas/common/mousekey.o
                0x00800204                mk_interval
 .data.mk_delay
                0x00800205        0x1 .build/obj_ut472_th3v3gas/common/mousekey.o
                0x00800205                mk_delay
 .data.lufa_driver
                0x00800206        0xa .build/obj_ut472_th3v3gas/lufa.o
                0x00800206                lufa_driver
 .data.keyboard_protocol
                0x00800210        0x1 .build/obj_ut472_th3v3gas/lufa.o
                0x00800210                keyboard_protocol
 *(.gnu.linkonce.d*)
 *(.rodata)
 *(.rodata*)
 .rodata.TDEMOTE.str1.1
                0x00800211        0x3 .build/obj_ut472_th3v3gas/keyboards/ut472/keymaps/th3v3gas/keymap.o
 .rodata.process_record_user.str1.1
                0x00800214        0xc .build/obj_ut472_th3v3gas/keyboards/ut472/keymaps/th3v3gas/keymap.o
 .rodata.CSWTCH.1
                0x00800220       0x2e .build/obj_ut472_th3v3gas/quantum/keymap_common.o
 .rodata.CSWTCH.0
                0x0080024e        0x3 .build/obj_ut472_th3v3gas/quantum/keymap_common.o
 .rodata.col_pins
                0x00800251        0xc .build/obj_ut472_th3v3gas/quantum/matrix.o
 .rodata.row_pins
                0x0080025d        0x4 .build/obj_ut472_th3v3gas/quantum/matrix.o
 .rodata.mode_base_table
                0x00800261       0x25 .build/obj_ut472_th3v3gas/quantum/rgblight.o
 .rodata.CSWTCH.16
                0x00800286       0x2e .build/obj_ut472_th3v3gas/common/action.o
 .rodata.CSWTCH.15
                0x008002b4        0x3 .build/obj_ut472_th3v3gas/common/action.o
 *(.gnu.linkonce.r*)
                0x008002b8                . = ALIGN (0x2)
 *fill*         0x008002b7        0x1 
                0x008002b8                _edata = .
                0x008002b8                PROVIDE (__data_end = .)

.bss            0x008002b8      0x137
                0x008002b8                PROVIDE (__bss_start = .)
 *(.bss)
 *(.bss*)
 .bss.td_state  0x008002b8        0x1 .build/obj_ut472_th3v3gas/keyboards/ut472/keymaps/th3v3gas/keymap.o
 .bss.debouncing_time
                0x008002b9        0x2 .build/obj_ut472_th3v3gas/quantum/debounce/sym_g.o
 .bss.debouncing
                0x008002bb        0x1 .build/obj_ut472_th3v3gas/quantum/debounce/sym_g.o
 .bss.key_buffer
                0x008002bc       0x10 .build/obj_ut472_th3v3gas/quantum/process_keycode/process_combo.o
 .bss.buffer_size
                0x008002cc        0x1 .build/obj_ut472_th3v3gas/quantum/process_keycode/process_combo.o
 .bss.is_active
                0x008002cd        0x1 .build/obj_ut472_th3v3gas/quantum/process_keycode/process_combo.o
 .bss.drop_buffer
                0x008002ce        0x1 .build/obj_ut472_th3v3gas/quantum/process_keycode/process_combo.o
 .bss.current_combo_index
                0x008002cf        0x1 .build/obj_ut472_th3v3gas/quantum/process_keycode/process_combo.o
 .bss.timer     0x008002d0        0x2 .build/obj_ut472_th3v3gas/quantum/process_keycode/process_combo.o
 .bss.maxval.3251
                0x008002d2        0x1 .build/obj_ut472_th3v3gas/quantum/rgblight.o
 .bss.low_bound.3228
                0x008002d3        0x1 .build/obj_ut472_th3v3gas/quantum/rgblight.o
 .bss.pos.3212  0x008002d4        0x1 .build/obj_ut472_th3v3gas/quantum/rgblight.o
 .bss.effect_start_pos
                0x008002d5        0x1 .build/obj_ut472_th3v3gas/quantum/rgblight.o
 .bss.clipping_start_pos
                0x008002d6        0x1 .build/obj_ut472_th3v3gas/quantum/rgblight.o
 .bss.animation_status
                0x008002d7        0x6 .build/obj_ut472_th3v3gas/quantum/rgblight.o
                0x008002d7                animation_status
 .bss.is_rgblight_initialized
                0x008002dd        0x1 .build/obj_ut472_th3v3gas/quantum/rgblight.o
                0x008002dd                is_rgblight_initialized
 .bss.rgblight_status
                0x008002de        0x2 .build/obj_ut472_th3v3gas/quantum/rgblight.o
                0x008002de                rgblight_status
 .bss.last_td   0x008002e0        0x2 .build/obj_ut472_th3v3gas/quantum/process_keycode/process_tap_dance.o
 .bss.sc_timer  0x008002e2        0x2 .build/obj_ut472_th3v3gas/quantum/process_keycode/process_space_cadet.o
 .bss.sc_last   0x008002e4        0x1 .build/obj_ut472_th3v3gas/quantum/process_keycode/process_space_cadet.o
 .bss.grave_esc_was_shifted
                0x008002e5        0x1 .build/obj_ut472_th3v3gas/quantum/process_keycode/process_grave_esc.o
 .bss.last_consumer_report
                0x008002e6        0x2 .build/obj_ut472_th3v3gas/common/host.o
 .bss.last_system_report
                0x008002e8        0x2 .build/obj_ut472_th3v3gas/common/host.o
 .bss.driver    0x008002ea        0x2 .build/obj_ut472_th3v3gas/common/host.o
 .bss.led_status.5869
                0x008002ec        0x1 .build/obj_ut472_th3v3gas/common/keyboard.o
 .bss.matrix_prev.5868
                0x008002ed        0x8 .build/obj_ut472_th3v3gas/common/keyboard.o
 .bss.disable_action_cache
                0x008002f5        0x1 .build/obj_ut472_th3v3gas/common/action.o
                0x008002f5                disable_action_cache
 .bss.waiting_buffer_tail
                0x008002f6        0x1 .build/obj_ut472_th3v3gas/common/action_tapping.o
 .bss.waiting_buffer_head
                0x008002f7        0x1 .build/obj_ut472_th3v3gas/common/action_tapping.o
 .bss.waiting_buffer
                0x008002f8       0x30 .build/obj_ut472_th3v3gas/common/action_tapping.o
 .bss.tapping_key
                0x00800328        0x6 .build/obj_ut472_th3v3gas/common/action_tapping.o
 .bss.source_layers_cache
                0x0080032e       0x1e .build/obj_ut472_th3v3gas/common/action_layer.o
                0x0080032e                source_layers_cache
 .bss.layer_state
                0x0080034c        0x4 .build/obj_ut472_th3v3gas/common/action_layer.o
                0x0080034c                layer_state
 .bss.default_layer_state
                0x00800350        0x4 .build/obj_ut472_th3v3gas/common/action_layer.o
                0x00800350                default_layer_state
 .bss.oneshot_layer_data
                0x00800354        0x1 .build/obj_ut472_th3v3gas/common/action_util.o
 .bss.oneshot_mods
                0x00800355        0x1 .build/obj_ut472_th3v3gas/common/action_util.o
 .bss.__compound_literal.0
                0x00800356       0x20 .build/obj_ut472_th3v3gas/common/action_util.o
 .bss.macro_mods
                0x00800376        0x1 .build/obj_ut472_th3v3gas/common/action_util.o
 .bss.weak_mods
                0x00800377        0x1 .build/obj_ut472_th3v3gas/common/action_util.o
 .bss.real_mods
                0x00800378        0x1 .build/obj_ut472_th3v3gas/common/action_util.o
 .bss.debug_config
                0x00800379        0x1 .build/obj_ut472_th3v3gas/common/debug.o
                0x00800379                debug_config
 .bss.wdt_timeout
                0x0080037a        0x1 .build/obj_ut472_th3v3gas/common/avr/suspend.o
 .bss.last_timer
                0x0080037b        0x2 .build/obj_ut472_th3v3gas/common/mousekey.o
 .bss.mousekey_repeat
                0x0080037d        0x1 .build/obj_ut472_th3v3gas/common/mousekey.o
 .bss.mousekey_accel
                0x0080037e        0x1 .build/obj_ut472_th3v3gas/common/mousekey.o
 .bss.mouse_report
                0x0080037f        0x6 .build/obj_ut472_th3v3gas/common/mousekey.o
 .bss.keyboard_report_sent
                0x00800385       0x20 .build/obj_ut472_th3v3gas/lufa.o
 .bss.keyboard_led_stats
                0x008003a5        0x1 .build/obj_ut472_th3v3gas/lufa.o
 .bss.keyboard_idle
                0x008003a6        0x1 .build/obj_ut472_th3v3gas/lufa.o
                0x008003a6                keyboard_idle
 .bss.desired_output
                0x008003a7        0x1 .build/obj_ut472_th3v3gas/outputselect.o
                0x008003a7                desired_output
 *(COMMON)
 COMMON         0x008003a8       0x10 .build/obj_ut472_th3v3gas/quantum/matrix_common.o
                0x008003a8                raw_matrix
                0x008003b0                matrix
 COMMON         0x008003b8        0x5 .build/obj_ut472_th3v3gas/quantum/process_keycode/process_unicode_common.o
                0x008003b8                unicode_config
                0x008003bc                unicode_saved_mods
 COMMON         0x008003bd       0x1d .build/obj_ut472_th3v3gas/quantum/rgblight.o
                0x008003bd                rgblight_config
                0x008003c2                led
 COMMON         0x008003da        0x2 .build/obj_ut472_th3v3gas/common/action.o
                0x008003da                tp_buttons
 COMMON         0x008003dc        0x4 .build/obj_ut472_th3v3gas/common/avr/timer.o
                0x008003dc                timer_count
 COMMON         0x008003e0        0x2 .build/obj_ut472_th3v3gas/common/bootmagic.o
                0x008003e0                keymap_config
 COMMON         0x008003e2        0x3 .build/obj_ut472_th3v3gas/lib/lufa/LUFA/Drivers/USB/Core/DeviceStandardReq.o
                0x008003e2                USB_Device_ConfigurationNumber
                0x008003e3                USB_Device_CurrentlySelfPowered
                0x008003e4                USB_Device_RemoteWakeupEnabled
 COMMON         0x008003e5        0xa .build/obj_ut472_th3v3gas/lib/lufa/LUFA/Drivers/USB/Core/USBTask.o
                0x008003e5                USB_IsInitialized
                0x008003e6                USB_DeviceState
                0x008003e7                USB_ControlRequest
                0x008003ef                PROVIDE (__bss_end = .)
                0x00005ce6                __data_load_start = LOADADDR (.data)
                0x00005e9e                __data_load_end = (__data_load_start + SIZEOF (.data))

.noinit         0x008003ef        0x4
                [!provide]                PROVIDE (__noinit_start = .)
 *(.noinit*)
 .noinit        0x008003ef        0x4 .build/obj_ut472_th3v3gas/common/avr/bootloader.o
                0x008003ef                reset_key
                [!provide]                PROVIDE (__noinit_end = .)
                0x008003f3                _end = .
                [!provide]                PROVIDE (__heap_start = .)

.eeprom         0x00810000        0x0
 *(.eeprom*)
                0x00810000                __eeprom_end = .

.fuse
 *(.fuse)
 *(.lfuse)
 *(.hfuse)
 *(.efuse)

.lock
 *(.lock*)

.signature
 *(.signature*)

.stab
 *(.stab)

.stabstr        0x00000000       0x95
 *(.stabstr)
 .stabstr       0x00000000       0x95 .build/obj_ut472_th3v3gas/common/avr/xprintf.o

.stab.excl
 *(.stab.excl)

.stab.exclstr
 *(.stab.exclstr)

.stab.index
 *(.stab.index)

.stab.indexstr
 *(.stab.indexstr)

.comment        0x00000000       0x11
 *(.comment)
 .comment       0x00000000       0x11 .build/obj_ut472_th3v3gas/keyboards/ut472/ut472.o
                                 0x12 (size before relaxing)
 .comment       0x00000011       0x12 .build/obj_ut472_th3v3gas/keyboards/ut472/keymaps/th3v3gas/keymap.o
 .comment       0x00000011       0x12 .build/obj_ut472_th3v3gas/quantum/quantum.o
 .comment       0x00000011       0x12 .build/obj_ut472_th3v3gas/quantum/keymap_common.o
 .comment       0x00000011       0x12 .build/obj_ut472_th3v3gas/quantum/keycode_config.o
 .comment       0x00000011       0x12 .build/obj_ut472_th3v3gas/quantum/matrix_common.o
 .comment       0x00000011       0x12 .build/obj_ut472_th3v3gas/quantum/matrix.o
 .comment       0x00000011       0x12 .build/obj_ut472_th3v3gas/quantum/debounce/sym_g.o
 .comment       0x00000011       0x12 .build/obj_ut472_th3v3gas/quantum/process_keycode/process_combo.o
 .comment       0x00000011       0x12 .build/obj_ut472_th3v3gas/quantum/process_keycode/process_unicode.o
 .comment       0x00000011       0x12 .build/obj_ut472_th3v3gas/quantum/process_keycode/process_unicode_common.o
 .comment       0x00000011       0x12 .build/obj_ut472_th3v3gas/quantum/color.o
 .comment       0x00000011       0x12 .build/obj_ut472_th3v3gas/quantum/rgblight.o
 .comment       0x00000011       0x12 .build/obj_ut472_th3v3gas/quantum/process_keycode/process_rgb.o
 .comment       0x00000011       0x12 .build/obj_ut472_th3v3gas/quantum/process_keycode/process_tap_dance.o
 .comment       0x00000011       0x12 .build/obj_ut472_th3v3gas/ws2812.o
 .comment       0x00000011       0x12 .build/obj_ut472_th3v3gas/quantum/led_tables.o
 .comment       0x00000011       0x12 .build/obj_ut472_th3v3gas/quantum/process_keycode/process_space_cadet.o
 .comment       0x00000011       0x12 .build/obj_ut472_th3v3gas/quantum/process_keycode/process_magic.o
 .comment       0x00000011       0x12 .build/obj_ut472_th3v3gas/quantum/process_keycode/process_grave_esc.o
 .comment       0x00000011       0x12 .build/obj_ut472_th3v3gas/common/host.o
 .comment       0x00000011       0x12 .build/obj_ut472_th3v3gas/common/keyboard.o
 .comment       0x00000011       0x12 .build/obj_ut472_th3v3gas/common/action.o
 .comment       0x00000011       0x12 .build/obj_ut472_th3v3gas/common/action_tapping.o
 .comment       0x00000011       0x12 .build/obj_ut472_th3v3gas/common/action_macro.o
 .comment       0x00000011       0x12 .build/obj_ut472_th3v3gas/common/action_layer.o
 .comment       0x00000011       0x12 .build/obj_ut472_th3v3gas/common/action_util.o
 .comment       0x00000011       0x12 .build/obj_ut472_th3v3gas/common/debug.o
 .comment       0x00000011       0x12 .build/obj_ut472_th3v3gas/common/eeconfig.o
 .comment       0x00000011       0x12 .build/obj_ut472_th3v3gas/common/report.o
 .comment       0x00000011       0x12 .build/obj_ut472_th3v3gas/common/avr/suspend.o
 .comment       0x00000011       0x12 .build/obj_ut472_th3v3gas/common/avr/timer.o
 .comment       0x00000011       0x12 .build/obj_ut472_th3v3gas/common/avr/bootloader.o
 .comment       0x00000011       0x12 .build/obj_ut472_th3v3gas/common/bootmagic.o
 .comment       0x00000011       0x12 .build/obj_ut472_th3v3gas/common/mousekey.o
 .comment       0x00000011       0x12 .build/obj_ut472_th3v3gas/lufa.o
 .comment       0x00000011       0x12 .build/obj_ut472_th3v3gas/usb_descriptor.o
 .comment       0x00000011       0x12 .build/obj_ut472_th3v3gas/outputselect.o
 .comment       0x00000011       0x12 .build/obj_ut472_th3v3gas/lib/lufa/LUFA/Drivers/USB/Core/AVR8/Device_AVR8.o
 .comment       0x00000011       0x12 .build/obj_ut472_th3v3gas/lib/lufa/LUFA/Drivers/USB/Core/AVR8/EndpointStream_AVR8.o
 .comment       0x00000011       0x12 .build/obj_ut472_th3v3gas/lib/lufa/LUFA/Drivers/USB/Core/AVR8/Endpoint_AVR8.o
 .comment       0x00000011       0x12 .build/obj_ut472_th3v3gas/lib/lufa/LUFA/Drivers/USB/Core/AVR8/USBController_AVR8.o
 .comment       0x00000011       0x12 .build/obj_ut472_th3v3gas/lib/lufa/LUFA/Drivers/USB/Core/AVR8/USBInterrupt_AVR8.o
 .comment       0x00000011       0x12 .build/obj_ut472_th3v3gas/lib/lufa/LUFA/Drivers/USB/Core/DeviceStandardReq.o
 .comment       0x00000011       0x12 .build/obj_ut472_th3v3gas/lib/lufa/LUFA/Drivers/USB/Core/Events.o
 .comment       0x00000011       0x12 .build/obj_ut472_th3v3gas/lib/lufa/LUFA/Drivers/USB/Core/USBTask.o

.note.gnu.avr.deviceinfo
                0x00000000       0x40
 .note.gnu.avr.deviceinfo
                0x00000000       0x40 c:/users/nonej/documents/keyboard/msys64/home/nonej/qmk_utils/avr8-gnu-toolchain/bin/../lib/gcc/avr/8.3.0/../../../../avr/lib/avr35/crtatmega32u2.o

.note.gnu.build-id
 *(.note.gnu.build-id)

.debug
 *(.debug)

.line
 *(.line)

.debug_srcinfo
 *(.debug_srcinfo)

.debug_sfnames
 *(.debug_sfnames)

.debug_aranges  0x00000000     0x12e0
 *(.debug_aranges)
 .debug_aranges
                0x00000000       0x28 .build/obj_ut472_th3v3gas/keyboards/ut472/ut472.o
 .debug_aranges
                0x00000028       0x48 .build/obj_ut472_th3v3gas/keyboards/ut472/keymaps/th3v3gas/keymap.o
 .debug_aranges
                0x00000070      0x130 .build/obj_ut472_th3v3gas/quantum/quantum.o
 .debug_aranges
                0x000001a0       0x40 .build/obj_ut472_th3v3gas/quantum/keymap_common.o
 .debug_aranges
                0x000001e0       0x28 .build/obj_ut472_th3v3gas/quantum/keycode_config.o
 .debug_aranges
                0x00000208       0x88 .build/obj_ut472_th3v3gas/quantum/matrix_common.o
 .debug_aranges
                0x00000290       0x28 .build/obj_ut472_th3v3gas/quantum/matrix.o
 .debug_aranges
                0x000002b8       0x30 .build/obj_ut472_th3v3gas/quantum/debounce/sym_g.o
 .debug_aranges
                0x000002e8       0x58 .build/obj_ut472_th3v3gas/quantum/process_keycode/process_combo.o
 .debug_aranges
                0x00000340       0x20 .build/obj_ut472_th3v3gas/quantum/process_keycode/process_unicode.o
 .debug_aranges
                0x00000360       0x88 .build/obj_ut472_th3v3gas/quantum/process_keycode/process_unicode_common.o
 .debug_aranges
                0x000003e8       0x20 .build/obj_ut472_th3v3gas/quantum/color.o
 .debug_aranges
                0x00000408      0x2d0 .build/obj_ut472_th3v3gas/quantum/rgblight.o
 .debug_aranges
                0x000006d8       0x38 .build/obj_ut472_th3v3gas/quantum/process_keycode/process_rgb.o
 .debug_aranges
                0x00000710       0x70 .build/obj_ut472_th3v3gas/quantum/process_keycode/process_tap_dance.o
 .debug_aranges
                0x00000780       0x38 .build/obj_ut472_th3v3gas/ws2812.o
 .debug_aranges
                0x000007b8       0x18 .build/obj_ut472_th3v3gas/quantum/led_tables.o
 .debug_aranges
                0x000007d0       0x28 .build/obj_ut472_th3v3gas/quantum/process_keycode/process_space_cadet.o
 .debug_aranges
                0x000007f8       0x20 .build/obj_ut472_th3v3gas/quantum/process_keycode/process_magic.o
 .debug_aranges
                0x00000818       0x20 .build/obj_ut472_th3v3gas/quantum/process_keycode/process_grave_esc.o
 .debug_aranges
                0x00000838       0x68 .build/obj_ut472_th3v3gas/common/host.o
 .debug_aranges
                0x000008a0       0x60 .build/obj_ut472_th3v3gas/common/keyboard.o
 .debug_aranges
                0x00000900       0xc0 .build/obj_ut472_th3v3gas/common/action.o
 .debug_aranges
                0x000009c0       0x48 .build/obj_ut472_th3v3gas/common/action_tapping.o
 .debug_aranges
                0x00000a08       0x20 .build/obj_ut472_th3v3gas/common/action_macro.o
 .debug_aranges
                0x00000a28       0xe0 .build/obj_ut472_th3v3gas/common/action_layer.o
 .debug_aranges
                0x00000b08      0x140 .build/obj_ut472_th3v3gas/common/action_util.o
 .debug_aranges
                0x00000c48       0x18 .build/obj_ut472_th3v3gas/common/debug.o
 .debug_aranges
                0x00000c60       0xe8 .build/obj_ut472_th3v3gas/common/eeconfig.o
 .debug_aranges
                0x00000d48       0x60 .build/obj_ut472_th3v3gas/common/report.o
 .debug_aranges
                0x00000da8       0x58 .build/obj_ut472_th3v3gas/common/avr/suspend.o
 .debug_aranges
                0x00000e00       0x50 .build/obj_ut472_th3v3gas/common/avr/timer.o
 .debug_aranges
                0x00000e50       0x28 .build/obj_ut472_th3v3gas/common/avr/bootloader.o
 .debug_aranges
                0x00000e78       0x30 .build/obj_ut472_th3v3gas/common/bootmagic.o
 .debug_aranges
                0x00000ea8       0x50 .build/obj_ut472_th3v3gas/common/mousekey.o
 .debug_aranges
                0x00000ef8       0x90 .build/obj_ut472_th3v3gas/lufa.o
 .debug_aranges
                0x00000f88       0x20 .build/obj_ut472_th3v3gas/usb_descriptor.o
 .debug_aranges
                0x00000fa8       0x38 .build/obj_ut472_th3v3gas/outputselect.o
 .debug_aranges
                0x00000fe0       0x20 .build/obj_ut472_th3v3gas/lib/lufa/LUFA/Drivers/USB/Core/AVR8/Device_AVR8.o
 .debug_aranges
                0x00001000       0xc8 .build/obj_ut472_th3v3gas/lib/lufa/LUFA/Drivers/USB/Core/AVR8/EndpointStream_AVR8.o
 .debug_aranges
                0x000010c8       0x40 .build/obj_ut472_th3v3gas/lib/lufa/LUFA/Drivers/USB/Core/AVR8/Endpoint_AVR8.o
 .debug_aranges
                0x00001108       0x30 .build/obj_ut472_th3v3gas/lib/lufa/LUFA/Drivers/USB/Core/AVR8/USBController_AVR8.o
 .debug_aranges
                0x00001138       0x38 .build/obj_ut472_th3v3gas/lib/lufa/LUFA/Drivers/USB/Core/AVR8/USBInterrupt_AVR8.o
 .debug_aranges
                0x00001170       0x20 .build/obj_ut472_th3v3gas/lib/lufa/LUFA/Drivers/USB/Core/DeviceStandardReq.o
 .debug_aranges
                0x00001190       0x30 .build/obj_ut472_th3v3gas/lib/lufa/LUFA/Drivers/USB/Core/Events.o
 .debug_aranges
                0x000011c0       0x20 .build/obj_ut472_th3v3gas/lib/lufa/LUFA/Drivers/USB/Core/USBTask.o
 .debug_aranges
                0x000011e0       0x20 c:/users/nonej/documents/keyboard/msys64/home/nonej/qmk_utils/avr8-gnu-toolchain/bin/../lib/gcc/avr/8.3.0/avr35\libgcc.a(_mulqi3.o)
 .debug_aranges
                0x00001200       0x20 c:/users/nonej/documents/keyboard/msys64/home/nonej/qmk_utils/avr8-gnu-toolchain/bin/../lib/gcc/avr/8.3.0/avr35\libgcc.a(_mulhi3.o)
 .debug_aranges
                0x00001220       0x20 c:/users/nonej/documents/keyboard/msys64/home/nonej/qmk_utils/avr8-gnu-toolchain/bin/../lib/gcc/avr/8.3.0/avr35\libgcc.a(_udivmodhi4.o)
 .debug_aranges
                0x00001240       0x20 c:/users/nonej/documents/keyboard/msys64/home/nonej/qmk_utils/avr8-gnu-toolchain/bin/../lib/gcc/avr/8.3.0/avr35\libgcc.a(_divmodhi4.o)
 .debug_aranges
                0x00001260       0x20 c:/users/nonej/documents/keyboard/msys64/home/nonej/qmk_utils/avr8-gnu-toolchain/bin/../lib/gcc/avr/8.3.0/avr35\libgcc.a(_exit.o)
 .debug_aranges
                0x00001280       0x20 c:/users/nonej/documents/keyboard/msys64/home/nonej/qmk_utils/avr8-gnu-toolchain/bin/../lib/gcc/avr/8.3.0/avr35\libgcc.a(_tablejump2.o)
 .debug_aranges
                0x000012a0       0x20 c:/users/nonej/documents/keyboard/msys64/home/nonej/qmk_utils/avr8-gnu-toolchain/bin/../lib/gcc/avr/8.3.0/avr35\libgcc.a(_copy_data.o)
 .debug_aranges
                0x000012c0       0x20 c:/users/nonej/documents/keyboard/msys64/home/nonej/qmk_utils/avr8-gnu-toolchain/bin/../lib/gcc/avr/8.3.0/avr35\libgcc.a(_clear_bss.o)

.debug_pubnames
 *(.debug_pubnames)

.debug_info     0x00000000    0x2b7a6
 *(.debug_info .gnu.linkonce.wi.*)
 .debug_info    0x00000000      0x6ba c:/users/nonej/documents/keyboard/msys64/home/nonej/qmk_utils/avr8-gnu-toolchain/bin/../lib/gcc/avr/8.3.0/../../../../avr/lib/avr35/crtatmega32u2.o
 .debug_info    0x000006ba      0x9e7 .build/obj_ut472_th3v3gas/keyboards/ut472/ut472.o
 .debug_info    0x000010a1     0x1dc0 .build/obj_ut472_th3v3gas/keyboards/ut472/keymaps/th3v3gas/keymap.o
 .debug_info    0x00002e61     0x2d3a .build/obj_ut472_th3v3gas/quantum/quantum.o
 .debug_info    0x00005b9b     0x223b .build/obj_ut472_th3v3gas/quantum/keymap_common.o
 .debug_info    0x00007dd6      0x63c .build/obj_ut472_th3v3gas/quantum/keycode_config.o
 .debug_info    0x00008412      0x591 .build/obj_ut472_th3v3gas/quantum/matrix_common.o
 .debug_info    0x000089a3      0xd10 .build/obj_ut472_th3v3gas/quantum/matrix.o
 .debug_info    0x000096b3      0xab0 .build/obj_ut472_th3v3gas/quantum/debounce/sym_g.o
 .debug_info    0x0000a163     0x1a98 .build/obj_ut472_th3v3gas/quantum/process_keycode/process_combo.o
 .debug_info    0x0000bbfb     0x14c8 .build/obj_ut472_th3v3gas/quantum/process_keycode/process_unicode.o
 .debug_info    0x0000d0c3     0x1fde .build/obj_ut472_th3v3gas/quantum/process_keycode/process_unicode_common.o
 .debug_info    0x0000f0a1      0x261 .build/obj_ut472_th3v3gas/quantum/color.o
 .debug_info    0x0000f302     0x2e1e .build/obj_ut472_th3v3gas/quantum/rgblight.o
 .debug_info    0x00012120     0x1b58 .build/obj_ut472_th3v3gas/quantum/process_keycode/process_rgb.o
 .debug_info    0x00013c78     0x1c0f .build/obj_ut472_th3v3gas/quantum/process_keycode/process_tap_dance.o
 .debug_info    0x00015887      0x371 .build/obj_ut472_th3v3gas/ws2812.o
 .debug_info    0x00015bf8       0xae .build/obj_ut472_th3v3gas/quantum/led_tables.o
 .debug_info    0x00015ca6     0x19e7 .build/obj_ut472_th3v3gas/quantum/process_keycode/process_space_cadet.o
 .debug_info    0x0001768d     0x14e6 .build/obj_ut472_th3v3gas/quantum/process_keycode/process_magic.o
 .debug_info    0x00018b73     0x1946 .build/obj_ut472_th3v3gas/quantum/process_keycode/process_grave_esc.o
 .debug_info    0x0001a4b9      0x865 .build/obj_ut472_th3v3gas/common/host.o
 .debug_info    0x0001ad1e      0xb01 .build/obj_ut472_th3v3gas/common/keyboard.o
 .debug_info    0x0001b81f     0x21dd .build/obj_ut472_th3v3gas/common/action.o
 .debug_info    0x0001d9fc     0x1030 .build/obj_ut472_th3v3gas/common/action_tapping.o
 .debug_info    0x0001ea2c      0xb40 .build/obj_ut472_th3v3gas/common/action_macro.o
 .debug_info    0x0001f56c      0xd3f .build/obj_ut472_th3v3gas/common/action_layer.o
 .debug_info    0x000202ab      0xd86 .build/obj_ut472_th3v3gas/common/action_util.o
 .debug_info    0x00021031      0x110 .build/obj_ut472_th3v3gas/common/debug.o
 .debug_info    0x00021141      0x8e9 .build/obj_ut472_th3v3gas/common/eeconfig.o
 .debug_info    0x00021a2a      0x7f8 .build/obj_ut472_th3v3gas/common/report.o
 .debug_info    0x00022222      0x780 .build/obj_ut472_th3v3gas/common/avr/suspend.o
 .debug_info    0x000229a2      0x43e .build/obj_ut472_th3v3gas/common/avr/timer.o
 .debug_info    0x00022de0      0x3c7 .build/obj_ut472_th3v3gas/common/avr/bootloader.o
 .debug_info    0x000231a7      0xe00 .build/obj_ut472_th3v3gas/common/bootmagic.o
 .debug_info    0x00023fa7      0x764 .build/obj_ut472_th3v3gas/common/mousekey.o
 .debug_info    0x0002470b     0x1a69 .build/obj_ut472_th3v3gas/lufa.o
 .debug_info    0x00026174      0x9b7 .build/obj_ut472_th3v3gas/usb_descriptor.o
 .debug_info    0x00026b2b      0x581 .build/obj_ut472_th3v3gas/outputselect.o
 .debug_info    0x000270ac      0x1c0 .build/obj_ut472_th3v3gas/lib/lufa/LUFA/Drivers/USB/Core/AVR8/Device_AVR8.o
 .debug_info    0x0002726c     0x1da4 .build/obj_ut472_th3v3gas/lib/lufa/LUFA/Drivers/USB/Core/AVR8/EndpointStream_AVR8.o
 .debug_info    0x00029010      0x75d .build/obj_ut472_th3v3gas/lib/lufa/LUFA/Drivers/USB/Core/AVR8/Endpoint_AVR8.o
 .debug_info    0x0002976d      0x594 .build/obj_ut472_th3v3gas/lib/lufa/LUFA/Drivers/USB/Core/AVR8/USBController_AVR8.o
 .debug_info    0x00029d01      0x938 .build/obj_ut472_th3v3gas/lib/lufa/LUFA/Drivers/USB/Core/AVR8/USBInterrupt_AVR8.o
 .debug_info    0x0002a639      0xc59 .build/obj_ut472_th3v3gas/lib/lufa/LUFA/Drivers/USB/Core/DeviceStandardReq.o
 .debug_info    0x0002b292       0xe9 .build/obj_ut472_th3v3gas/lib/lufa/LUFA/Drivers/USB/Core/Events.o
 .debug_info    0x0002b37b      0x2fb .build/obj_ut472_th3v3gas/lib/lufa/LUFA/Drivers/USB/Core/USBTask.o
 .debug_info    0x0002b676       0x26 c:/users/nonej/documents/keyboard/msys64/home/nonej/qmk_utils/avr8-gnu-toolchain/bin/../lib/gcc/avr/8.3.0/avr35\libgcc.a(_mulqi3.o)
 .debug_info    0x0002b69c       0x26 c:/users/nonej/documents/keyboard/msys64/home/nonej/qmk_utils/avr8-gnu-toolchain/bin/../lib/gcc/avr/8.3.0/avr35\libgcc.a(_mulhi3.o)
 .debug_info    0x0002b6c2       0x26 c:/users/nonej/documents/keyboard/msys64/home/nonej/qmk_utils/avr8-gnu-toolchain/bin/../lib/gcc/avr/8.3.0/avr35\libgcc.a(_udivmodhi4.o)
 .debug_info    0x0002b6e8       0x26 c:/users/nonej/documents/keyboard/msys64/home/nonej/qmk_utils/avr8-gnu-toolchain/bin/../lib/gcc/avr/8.3.0/avr35\libgcc.a(_divmodhi4.o)
 .debug_info    0x0002b70e       0x26 c:/users/nonej/documents/keyboard/msys64/home/nonej/qmk_utils/avr8-gnu-toolchain/bin/../lib/gcc/avr/8.3.0/avr35\libgcc.a(_exit.o)
 .debug_info    0x0002b734       0x26 c:/users/nonej/documents/keyboard/msys64/home/nonej/qmk_utils/avr8-gnu-toolchain/bin/../lib/gcc/avr/8.3.0/avr35\libgcc.a(_tablejump2.o)
 .debug_info    0x0002b75a       0x26 c:/users/nonej/documents/keyboard/msys64/home/nonej/qmk_utils/avr8-gnu-toolchain/bin/../lib/gcc/avr/8.3.0/avr35\libgcc.a(_copy_data.o)
 .debug_info    0x0002b780       0x26 c:/users/nonej/documents/keyboard/msys64/home/nonej/qmk_utils/avr8-gnu-toolchain/bin/../lib/gcc/avr/8.3.0/avr35\libgcc.a(_clear_bss.o)

.debug_abbrev   0x00000000     0x849a
 *(.debug_abbrev)
 .debug_abbrev  0x00000000      0x65d c:/users/nonej/documents/keyboard/msys64/home/nonej/qmk_utils/avr8-gnu-toolchain/bin/../lib/gcc/avr/8.3.0/../../../../avr/lib/avr35/crtatmega32u2.o
 .debug_abbrev  0x0000065d      0x216 .build/obj_ut472_th3v3gas/keyboards/ut472/ut472.o
 .debug_abbrev  0x00000873      0x308 .build/obj_ut472_th3v3gas/keyboards/ut472/keymaps/th3v3gas/keymap.o
 .debug_abbrev  0x00000b7b      0x552 .build/obj_ut472_th3v3gas/quantum/quantum.o
 .debug_abbrev  0x000010cd      0x398 .build/obj_ut472_th3v3gas/quantum/keymap_common.o
 .debug_abbrev  0x00001465      0x119 .build/obj_ut472_th3v3gas/quantum/keycode_config.o
 .debug_abbrev  0x0000157e      0x30c .build/obj_ut472_th3v3gas/quantum/matrix_common.o
 .debug_abbrev  0x0000188a      0x395 .build/obj_ut472_th3v3gas/quantum/matrix.o
 .debug_abbrev  0x00001c1f      0x2b2 .build/obj_ut472_th3v3gas/quantum/debounce/sym_g.o
 .debug_abbrev  0x00001ed1      0x443 .build/obj_ut472_th3v3gas/quantum/process_keycode/process_combo.o
 .debug_abbrev  0x00002314      0x269 .build/obj_ut472_th3v3gas/quantum/process_keycode/process_unicode.o
 .debug_abbrev  0x0000257d      0x49a .build/obj_ut472_th3v3gas/quantum/process_keycode/process_unicode_common.o
 .debug_abbrev  0x00002a17      0x10d .build/obj_ut472_th3v3gas/quantum/color.o
 .debug_abbrev  0x00002b24      0x678 .build/obj_ut472_th3v3gas/quantum/rgblight.o
 .debug_abbrev  0x0000319c      0x30a .build/obj_ut472_th3v3gas/quantum/process_keycode/process_rgb.o
 .debug_abbrev  0x000034a6      0x411 .build/obj_ut472_th3v3gas/quantum/process_keycode/process_tap_dance.o
 .debug_abbrev  0x000038b7      0x16f .build/obj_ut472_th3v3gas/ws2812.o
 .debug_abbrev  0x00003a26       0x79 .build/obj_ut472_th3v3gas/quantum/led_tables.o
 .debug_abbrev  0x00003a9f      0x2b4 .build/obj_ut472_th3v3gas/quantum/process_keycode/process_space_cadet.o
 .debug_abbrev  0x00003d53      0x250 .build/obj_ut472_th3v3gas/quantum/process_keycode/process_magic.o
 .debug_abbrev  0x00003fa3      0x29e .build/obj_ut472_th3v3gas/quantum/process_keycode/process_grave_esc.o
 .debug_abbrev  0x00004241      0x264 .build/obj_ut472_th3v3gas/common/host.o
 .debug_abbrev  0x000044a5      0x36a .build/obj_ut472_th3v3gas/common/keyboard.o
 .debug_abbrev  0x0000480f      0x47b .build/obj_ut472_th3v3gas/common/action.o
 .debug_abbrev  0x00004c8a      0x372 .build/obj_ut472_th3v3gas/common/action_tapping.o
 .debug_abbrev  0x00004ffc      0x284 .build/obj_ut472_th3v3gas/common/action_macro.o
 .debug_abbrev  0x00005280      0x30f .build/obj_ut472_th3v3gas/common/action_layer.o
 .debug_abbrev  0x0000558f      0x375 .build/obj_ut472_th3v3gas/common/action_util.o
 .debug_abbrev  0x00005904       0xa2 .build/obj_ut472_th3v3gas/common/debug.o
 .debug_abbrev  0x000059a6      0x135 .build/obj_ut472_th3v3gas/common/eeconfig.o
 .debug_abbrev  0x00005adb      0x25b .build/obj_ut472_th3v3gas/common/report.o
 .debug_abbrev  0x00005d36      0x321 .build/obj_ut472_th3v3gas/common/avr/suspend.o
 .debug_abbrev  0x00006057      0x1ba .build/obj_ut472_th3v3gas/common/avr/timer.o
 .debug_abbrev  0x00006211      0x26c .build/obj_ut472_th3v3gas/common/avr/bootloader.o
 .debug_abbrev  0x0000647d      0x2f5 .build/obj_ut472_th3v3gas/common/bootmagic.o
 .debug_abbrev  0x00006772      0x2c7 .build/obj_ut472_th3v3gas/common/mousekey.o
 .debug_abbrev  0x00006a39      0x5ce .build/obj_ut472_th3v3gas/lufa.o
 .debug_abbrev  0x00007007      0x207 .build/obj_ut472_th3v3gas/usb_descriptor.o
 .debug_abbrev  0x0000720e      0x236 .build/obj_ut472_th3v3gas/outputselect.o
 .debug_abbrev  0x00007444       0xcb .build/obj_ut472_th3v3gas/lib/lufa/LUFA/Drivers/USB/Core/AVR8/Device_AVR8.o
 .debug_abbrev  0x0000750f      0x23b .build/obj_ut472_th3v3gas/lib/lufa/LUFA/Drivers/USB/Core/AVR8/EndpointStream_AVR8.o
 .debug_abbrev  0x0000774a      0x29d .build/obj_ut472_th3v3gas/lib/lufa/LUFA/Drivers/USB/Core/AVR8/Endpoint_AVR8.o
 .debug_abbrev  0x000079e7      0x1ec .build/obj_ut472_th3v3gas/lib/lufa/LUFA/Drivers/USB/Core/AVR8/USBController_AVR8.o
 .debug_abbrev  0x00007bd3      0x2a5 .build/obj_ut472_th3v3gas/lib/lufa/LUFA/Drivers/USB/Core/AVR8/USBInterrupt_AVR8.o
 .debug_abbrev  0x00007e78      0x346 .build/obj_ut472_th3v3gas/lib/lufa/LUFA/Drivers/USB/Core/DeviceStandardReq.o
 .debug_abbrev  0x000081be       0x89 .build/obj_ut472_th3v3gas/lib/lufa/LUFA/Drivers/USB/Core/Events.o
 .debug_abbrev  0x00008247      0x1b3 .build/obj_ut472_th3v3gas/lib/lufa/LUFA/Drivers/USB/Core/USBTask.o
 .debug_abbrev  0x000083fa       0x14 c:/users/nonej/documents/keyboard/msys64/home/nonej/qmk_utils/avr8-gnu-toolchain/bin/../lib/gcc/avr/8.3.0/avr35\libgcc.a(_mulqi3.o)
 .debug_abbrev  0x0000840e       0x14 c:/users/nonej/documents/keyboard/msys64/home/nonej/qmk_utils/avr8-gnu-toolchain/bin/../lib/gcc/avr/8.3.0/avr35\libgcc.a(_mulhi3.o)
 .debug_abbrev  0x00008422       0x14 c:/users/nonej/documents/keyboard/msys64/home/nonej/qmk_utils/avr8-gnu-toolchain/bin/../lib/gcc/avr/8.3.0/avr35\libgcc.a(_udivmodhi4.o)
 .debug_abbrev  0x00008436       0x14 c:/users/nonej/documents/keyboard/msys64/home/nonej/qmk_utils/avr8-gnu-toolchain/bin/../lib/gcc/avr/8.3.0/avr35\libgcc.a(_divmodhi4.o)
 .debug_abbrev  0x0000844a       0x14 c:/users/nonej/documents/keyboard/msys64/home/nonej/qmk_utils/avr8-gnu-toolchain/bin/../lib/gcc/avr/8.3.0/avr35\libgcc.a(_exit.o)
 .debug_abbrev  0x0000845e       0x14 c:/users/nonej/documents/keyboard/msys64/home/nonej/qmk_utils/avr8-gnu-toolchain/bin/../lib/gcc/avr/8.3.0/avr35\libgcc.a(_tablejump2.o)
 .debug_abbrev  0x00008472       0x14 c:/users/nonej/documents/keyboard/msys64/home/nonej/qmk_utils/avr8-gnu-toolchain/bin/../lib/gcc/avr/8.3.0/avr35\libgcc.a(_copy_data.o)
 .debug_abbrev  0x00008486       0x14 c:/users/nonej/documents/keyboard/msys64/home/nonej/qmk_utils/avr8-gnu-toolchain/bin/../lib/gcc/avr/8.3.0/avr35\libgcc.a(_clear_bss.o)

.debug_line     0x00000000    0x19f3e
 *(.debug_line .debug_line.* .debug_line_end)
 .debug_line    0x00000000       0x1d c:/users/nonej/documents/keyboard/msys64/home/nonej/qmk_utils/avr8-gnu-toolchain/bin/../lib/gcc/avr/8.3.0/../../../../avr/lib/avr35/crtatmega32u2.o
 .debug_line    0x0000001d      0x300 .build/obj_ut472_th3v3gas/keyboards/ut472/ut472.o
 .debug_line    0x0000031d      0x5a0 .build/obj_ut472_th3v3gas/keyboards/ut472/keymaps/th3v3gas/keymap.o
 .debug_line    0x000008bd     0x154b .build/obj_ut472_th3v3gas/quantum/quantum.o
 .debug_line    0x00001e08      0x7ea .build/obj_ut472_th3v3gas/quantum/keymap_common.o
 .debug_line    0x000025f2      0x5c7 .build/obj_ut472_th3v3gas/quantum/keycode_config.o
 .debug_line    0x00002bb9      0x4e4 .build/obj_ut472_th3v3gas/quantum/matrix_common.o
 .debug_line    0x0000309d      0x5aa .build/obj_ut472_th3v3gas/quantum/matrix.o
 .debug_line    0x00003647      0x420 .build/obj_ut472_th3v3gas/quantum/debounce/sym_g.o
 .debug_line    0x00003a67      0xa71 .build/obj_ut472_th3v3gas/quantum/process_keycode/process_combo.o
 .debug_line    0x000044d8      0x35b .build/obj_ut472_th3v3gas/quantum/process_keycode/process_unicode.o
 .debug_line    0x00004833      0xc23 .build/obj_ut472_th3v3gas/quantum/process_keycode/process_unicode_common.o
 .debug_line    0x00005456      0x2cb .build/obj_ut472_th3v3gas/quantum/color.o
 .debug_line    0x00005721     0x2cb7 .build/obj_ut472_th3v3gas/quantum/rgblight.o
 .debug_line    0x000083d8      0x561 .build/obj_ut472_th3v3gas/quantum/process_keycode/process_rgb.o
 .debug_line    0x00008939      0xb1d .build/obj_ut472_th3v3gas/quantum/process_keycode/process_tap_dance.o
 .debug_line    0x00009456      0x2a9 .build/obj_ut472_th3v3gas/ws2812.o
 .debug_line    0x000096ff       0xae .build/obj_ut472_th3v3gas/quantum/led_tables.o
 .debug_line    0x000097ad      0x5c1 .build/obj_ut472_th3v3gas/quantum/process_keycode/process_space_cadet.o
 .debug_line    0x00009d6e      0x5b5 .build/obj_ut472_th3v3gas/quantum/process_keycode/process_magic.o
 .debug_line    0x0000a323      0x3ec .build/obj_ut472_th3v3gas/quantum/process_keycode/process_grave_esc.o
 .debug_line    0x0000a70f      0x488 .build/obj_ut472_th3v3gas/common/host.o
 .debug_line    0x0000ab97      0x5b9 .build/obj_ut472_th3v3gas/common/keyboard.o
 .debug_line    0x0000b150     0x1616 .build/obj_ut472_th3v3gas/common/action.o
 .debug_line    0x0000c766      0xcef .build/obj_ut472_th3v3gas/common/action_tapping.o
 .debug_line    0x0000d455      0x525 .build/obj_ut472_th3v3gas/common/action_macro.o
 .debug_line    0x0000d97a      0x983 .build/obj_ut472_th3v3gas/common/action_layer.o
 .debug_line    0x0000e2fd      0x9e4 .build/obj_ut472_th3v3gas/common/action_util.o
 .debug_line    0x0000ece1       0xac .build/obj_ut472_th3v3gas/common/debug.o
 .debug_line    0x0000ed8d      0x579 .build/obj_ut472_th3v3gas/common/eeconfig.o
 .debug_line    0x0000f306      0x61e .build/obj_ut472_th3v3gas/common/report.o
 .debug_line    0x0000f924      0x4dd .build/obj_ut472_th3v3gas/common/avr/suspend.o
 .debug_line    0x0000fe01      0x529 .build/obj_ut472_th3v3gas/common/avr/timer.o
 .debug_line    0x0001032a      0x3a7 .build/obj_ut472_th3v3gas/common/avr/bootloader.o
 .debug_line    0x000106d1      0x964 .build/obj_ut472_th3v3gas/common/bootmagic.o
 .debug_line    0x00011035      0xe42 .build/obj_ut472_th3v3gas/common/mousekey.o
 .debug_line    0x00011e77     0x12f9 .build/obj_ut472_th3v3gas/lufa.o
 .debug_line    0x00013170      0x406 .build/obj_ut472_th3v3gas/usb_descriptor.o
 .debug_line    0x00013576      0x296 .build/obj_ut472_th3v3gas/outputselect.o
 .debug_line    0x0001380c      0x271 .build/obj_ut472_th3v3gas/lib/lufa/LUFA/Drivers/USB/Core/AVR8/Device_AVR8.o
 .debug_line    0x00013a7d     0x3353 .build/obj_ut472_th3v3gas/lib/lufa/LUFA/Drivers/USB/Core/AVR8/EndpointStream_AVR8.o
 .debug_line    0x00016dd0      0x9cb .build/obj_ut472_th3v3gas/lib/lufa/LUFA/Drivers/USB/Core/AVR8/Endpoint_AVR8.o
 .debug_line    0x0001779b      0x60b .build/obj_ut472_th3v3gas/lib/lufa/LUFA/Drivers/USB/Core/AVR8/USBController_AVR8.o
 .debug_line    0x00017da6      0xb7e .build/obj_ut472_th3v3gas/lib/lufa/LUFA/Drivers/USB/Core/AVR8/USBInterrupt_AVR8.o
 .debug_line    0x00018924      0xd8e .build/obj_ut472_th3v3gas/lib/lufa/LUFA/Drivers/USB/Core/DeviceStandardReq.o
 .debug_line    0x000196b2      0x121 .build/obj_ut472_th3v3gas/lib/lufa/LUFA/Drivers/USB/Core/Events.o
 .debug_line    0x000197d3      0x29b .build/obj_ut472_th3v3gas/lib/lufa/LUFA/Drivers/USB/Core/USBTask.o
 .debug_line    0x00019a6e       0x8b c:/users/nonej/documents/keyboard/msys64/home/nonej/qmk_utils/avr8-gnu-toolchain/bin/../lib/gcc/avr/8.3.0/avr35\libgcc.a(_mulqi3.o)
 .debug_line    0x00019af9       0xbb c:/users/nonej/documents/keyboard/msys64/home/nonej/qmk_utils/avr8-gnu-toolchain/bin/../lib/gcc/avr/8.3.0/avr35\libgcc.a(_mulhi3.o)
 .debug_line    0x00019bb4       0xcd c:/users/nonej/documents/keyboard/msys64/home/nonej/qmk_utils/avr8-gnu-toolchain/bin/../lib/gcc/avr/8.3.0/avr35\libgcc.a(_udivmodhi4.o)
 .debug_line    0x00019c81       0xc7 c:/users/nonej/documents/keyboard/msys64/home/nonej/qmk_utils/avr8-gnu-toolchain/bin/../lib/gcc/avr/8.3.0/avr35\libgcc.a(_divmodhi4.o)
 .debug_line    0x00019d48       0x61 c:/users/nonej/documents/keyboard/msys64/home/nonej/qmk_utils/avr8-gnu-toolchain/bin/../lib/gcc/avr/8.3.0/avr35\libgcc.a(_exit.o)
 .debug_line    0x00019da9       0x79 c:/users/nonej/documents/keyboard/msys64/home/nonej/qmk_utils/avr8-gnu-toolchain/bin/../lib/gcc/avr/8.3.0/avr35\libgcc.a(_tablejump2.o)
 .debug_line    0x00019e22       0x97 c:/users/nonej/documents/keyboard/msys64/home/nonej/qmk_utils/avr8-gnu-toolchain/bin/../lib/gcc/avr/8.3.0/avr35\libgcc.a(_copy_data.o)
 .debug_line    0x00019eb9       0x85 c:/users/nonej/documents/keyboard/msys64/home/nonej/qmk_utils/avr8-gnu-toolchain/bin/../lib/gcc/avr/8.3.0/avr35\libgcc.a(_clear_bss.o)

.debug_frame    0x00000000     0x2d8c
 *(.debug_frame)
 .debug_frame   0x00000000       0x34 .build/obj_ut472_th3v3gas/keyboards/ut472/ut472.o
 .debug_frame   0x00000034       0x74 .build/obj_ut472_th3v3gas/keyboards/ut472/keymaps/th3v3gas/keymap.o
 .debug_frame   0x000000a8      0x3ac .build/obj_ut472_th3v3gas/quantum/quantum.o
 .debug_frame   0x00000454       0x70 .build/obj_ut472_th3v3gas/quantum/keymap_common.o
 .debug_frame   0x000004c4       0x34 .build/obj_ut472_th3v3gas/quantum/keycode_config.o
 .debug_frame   0x000004f8      0x130 .build/obj_ut472_th3v3gas/quantum/matrix_common.o
 .debug_frame   0x00000628       0xa0 .build/obj_ut472_th3v3gas/quantum/matrix.o
 .debug_frame   0x000006c8       0x64 .build/obj_ut472_th3v3gas/quantum/debounce/sym_g.o
 .debug_frame   0x0000072c       0xf0 .build/obj_ut472_th3v3gas/quantum/process_keycode/process_combo.o
 .debug_frame   0x0000081c       0x30 .build/obj_ut472_th3v3gas/quantum/process_keycode/process_unicode.o
 .debug_frame   0x0000084c      0x1a8 .build/obj_ut472_th3v3gas/quantum/process_keycode/process_unicode_common.o
 .debug_frame   0x000009f4       0x54 .build/obj_ut472_th3v3gas/quantum/color.o
 .debug_frame   0x00000a48      0x760 .build/obj_ut472_th3v3gas/quantum/rgblight.o
 .debug_frame   0x000011a8      0x114 .build/obj_ut472_th3v3gas/quantum/process_keycode/process_rgb.o
 .debug_frame   0x000012bc      0x170 .build/obj_ut472_th3v3gas/quantum/process_keycode/process_tap_dance.o
 .debug_frame   0x0000142c       0x54 .build/obj_ut472_th3v3gas/ws2812.o
 .debug_frame   0x00001480       0x4c .build/obj_ut472_th3v3gas/quantum/process_keycode/process_space_cadet.o
 .debug_frame   0x000014cc       0x30 .build/obj_ut472_th3v3gas/quantum/process_keycode/process_magic.o
 .debug_frame   0x000014fc       0x30 .build/obj_ut472_th3v3gas/quantum/process_keycode/process_grave_esc.o
 .debug_frame   0x0000152c       0xb4 .build/obj_ut472_th3v3gas/common/host.o
 .debug_frame   0x000015e0      0x118 .build/obj_ut472_th3v3gas/common/keyboard.o
 .debug_frame   0x000016f8      0x1f8 .build/obj_ut472_th3v3gas/common/action.o
 .debug_frame   0x000018f0       0xf0 .build/obj_ut472_th3v3gas/common/action_tapping.o
 .debug_frame   0x000019e0       0x48 .build/obj_ut472_th3v3gas/common/action_macro.o
 .debug_frame   0x00001a28      0x2a0 .build/obj_ut472_th3v3gas/common/action_layer.o
 .debug_frame   0x00001cc8      0x284 .build/obj_ut472_th3v3gas/common/action_util.o
 .debug_frame   0x00001f4c      0x1c4 .build/obj_ut472_th3v3gas/common/eeconfig.o
 .debug_frame   0x00002110       0xb0 .build/obj_ut472_th3v3gas/common/report.o
 .debug_frame   0x000021c0       0xe0 .build/obj_ut472_th3v3gas/common/avr/suspend.o
 .debug_frame   0x000022a0       0xbc .build/obj_ut472_th3v3gas/common/avr/timer.o
 .debug_frame   0x0000235c       0x34 .build/obj_ut472_th3v3gas/common/avr/bootloader.o
 .debug_frame   0x00002390       0x8c .build/obj_ut472_th3v3gas/common/bootmagic.o
 .debug_frame   0x0000241c       0x98 .build/obj_ut472_th3v3gas/common/mousekey.o
 .debug_frame   0x000024b4      0x14c .build/obj_ut472_th3v3gas/lufa.o
 .debug_frame   0x00002600       0x24 .build/obj_ut472_th3v3gas/usb_descriptor.o
 .debug_frame   0x00002624       0x5c .build/obj_ut472_th3v3gas/outputselect.o
 .debug_frame   0x00002680       0x24 .build/obj_ut472_th3v3gas/lib/lufa/LUFA/Drivers/USB/Core/AVR8/Device_AVR8.o
 .debug_frame   0x000026a4      0x474 .build/obj_ut472_th3v3gas/lib/lufa/LUFA/Drivers/USB/Core/AVR8/EndpointStream_AVR8.o
 .debug_frame   0x00002b18       0x7c .build/obj_ut472_th3v3gas/lib/lufa/LUFA/Drivers/USB/Core/AVR8/Endpoint_AVR8.o
 .debug_frame   0x00002b94       0x44 .build/obj_ut472_th3v3gas/lib/lufa/LUFA/Drivers/USB/Core/AVR8/USBController_AVR8.o
 .debug_frame   0x00002bd8      0x108 .build/obj_ut472_th3v3gas/lib/lufa/LUFA/Drivers/USB/Core/AVR8/USBInterrupt_AVR8.o
 .debug_frame   0x00002ce0       0x3c .build/obj_ut472_th3v3gas/lib/lufa/LUFA/Drivers/USB/Core/DeviceStandardReq.o
 .debug_frame   0x00002d1c       0x44 .build/obj_ut472_th3v3gas/lib/lufa/LUFA/Drivers/USB/Core/Events.o
 .debug_frame   0x00002d60       0x2c .build/obj_ut472_th3v3gas/lib/lufa/LUFA/Drivers/USB/Core/USBTask.o

.debug_str      0x00000000     0x6fd5
 *(.debug_str)
 .debug_str     0x00000000      0x262 c:/users/nonej/documents/keyboard/msys64/home/nonej/qmk_utils/avr8-gnu-toolchain/bin/../lib/gcc/avr/8.3.0/../../../../avr/lib/avr35/crtatmega32u2.o
 .debug_str     0x00000262      0x6ba .build/obj_ut472_th3v3gas/keyboards/ut472/ut472.o
                                0x7c9 (size before relaxing)
 .debug_str     0x0000091c     0x16b3 .build/obj_ut472_th3v3gas/keyboards/ut472/keymaps/th3v3gas/keymap.o
                               0x1e79 (size before relaxing)
 .debug_str     0x00001fcf      0x4da .build/obj_ut472_th3v3gas/quantum/quantum.o
                               0x21a6 (size before relaxing)
 .debug_str     0x000024a9      0x6e3 .build/obj_ut472_th3v3gas/quantum/keymap_common.o
                               0x235e (size before relaxing)
 .debug_str     0x00002b8c       0x19 .build/obj_ut472_th3v3gas/quantum/keycode_config.o
                                0x8a2 (size before relaxing)
 .debug_str     0x00002ba5      0x11e .build/obj_ut472_th3v3gas/quantum/matrix_common.o
                                0x3c7 (size before relaxing)
 .debug_str     0x00002cc3       0x8e .build/obj_ut472_th3v3gas/quantum/matrix.o
                                0x8a0 (size before relaxing)
 .debug_str     0x00002d51       0x5d .build/obj_ut472_th3v3gas/quantum/debounce/sym_g.o
                                0x80a (size before relaxing)
 .debug_str     0x00002dae      0x12a .build/obj_ut472_th3v3gas/quantum/process_keycode/process_combo.o
                               0x1815 (size before relaxing)
 .debug_str     0x00002ed8       0x70 .build/obj_ut472_th3v3gas/quantum/process_keycode/process_unicode.o
                               0x16a4 (size before relaxing)
 .debug_str     0x00002f48      0x138 .build/obj_ut472_th3v3gas/quantum/process_keycode/process_unicode_common.o
                               0x1e99 (size before relaxing)
 .debug_str     0x00003080       0x4e .build/obj_ut472_th3v3gas/quantum/color.o
                                0x201 (size before relaxing)
 .debug_str     0x000030ce      0xe70 .build/obj_ut472_th3v3gas/quantum/rgblight.o
                               0x12c4 (size before relaxing)
 .debug_str     0x00003f3e       0x6f .build/obj_ut472_th3v3gas/quantum/process_keycode/process_rgb.o
                               0x21c1 (size before relaxing)
 .debug_str     0x00003fad      0x21a .build/obj_ut472_th3v3gas/quantum/process_keycode/process_tap_dance.o
                               0x1918 (size before relaxing)
 .debug_str     0x000041c7       0x87 .build/obj_ut472_th3v3gas/ws2812.o
                                0x28c (size before relaxing)
 .debug_str     0x0000424e       0x15 .build/obj_ut472_th3v3gas/quantum/led_tables.o
                                0x1ca (size before relaxing)
 .debug_str     0x00004263       0x72 .build/obj_ut472_th3v3gas/quantum/process_keycode/process_space_cadet.o
                               0x1ca6 (size before relaxing)
 .debug_str     0x000042d5       0x6f .build/obj_ut472_th3v3gas/quantum/process_keycode/process_magic.o
                               0x16c0 (size before relaxing)
 .debug_str     0x00004344       0x52 .build/obj_ut472_th3v3gas/quantum/process_keycode/process_grave_esc.o
                               0x1c7a (size before relaxing)
 .debug_str     0x00004396      0x12b .build/obj_ut472_th3v3gas/common/host.o
                                0x5be (size before relaxing)
 .debug_str     0x000044c1      0x1cb .build/obj_ut472_th3v3gas/common/keyboard.o
                                0x808 (size before relaxing)
 .debug_str     0x0000468c      0x364 .build/obj_ut472_th3v3gas/common/action.o
                               0x1695 (size before relaxing)
 .debug_str     0x000049f0       0xf7 .build/obj_ut472_th3v3gas/common/action_tapping.o
                                0xc19 (size before relaxing)
 .debug_str     0x00004ae7       0x74 .build/obj_ut472_th3v3gas/common/action_macro.o
                                0xa49 (size before relaxing)
 .debug_str     0x00004b5b       0xd3 .build/obj_ut472_th3v3gas/common/action_layer.o
                                0x5ed (size before relaxing)
 .debug_str     0x00004c2e      0x203 .build/obj_ut472_th3v3gas/common/action_util.o
                                0x89b (size before relaxing)
 .debug_str     0x00004e31       0x18 .build/obj_ut472_th3v3gas/common/debug.o
                                0x1f3 (size before relaxing)
 .debug_str     0x00004e49      0x1d1 .build/obj_ut472_th3v3gas/common/eeconfig.o
                                0x4a1 (size before relaxing)
 .debug_str     0x0000501a       0x65 .build/obj_ut472_th3v3gas/common/report.o
                                0x4d7 (size before relaxing)
 .debug_str     0x0000507f      0x1ce .build/obj_ut472_th3v3gas/common/avr/suspend.o
                                0x5dc (size before relaxing)
 .debug_str     0x0000524d       0x84 .build/obj_ut472_th3v3gas/common/avr/timer.o
                                0x25e (size before relaxing)
 .debug_str     0x000052d1       0x5b .build/obj_ut472_th3v3gas/common/avr/bootloader.o
                                0x38e (size before relaxing)
 .debug_str     0x0000532c       0x33 .build/obj_ut472_th3v3gas/common/bootmagic.o
                                0xbda (size before relaxing)
 .debug_str     0x0000535f       0x7b .build/obj_ut472_th3v3gas/common/mousekey.o
                                0x57d (size before relaxing)
 .debug_str     0x000053da      0x5fe .build/obj_ut472_th3v3gas/lufa.o
                                0xf9c (size before relaxing)
 .debug_str     0x000059d8      0x6bc .build/obj_ut472_th3v3gas/usb_descriptor.o
                                0xa7c (size before relaxing)
 .debug_str     0x00006094       0x63 .build/obj_ut472_th3v3gas/outputselect.o
                                0x4fd (size before relaxing)
 .debug_str     0x000060f7       0x5e .build/obj_ut472_th3v3gas/lib/lufa/LUFA/Drivers/USB/Core/AVR8/Device_AVR8.o
                                0x2f1 (size before relaxing)
 .debug_str     0x00006155      0x4a3 .build/obj_ut472_th3v3gas/lib/lufa/LUFA/Drivers/USB/Core/AVR8/EndpointStream_AVR8.o
                                0x8e5 (size before relaxing)
 .debug_str     0x000065f8      0x254 .build/obj_ut472_th3v3gas/lib/lufa/LUFA/Drivers/USB/Core/AVR8/Endpoint_AVR8.o
                                0x6a5 (size before relaxing)
 .debug_str     0x0000684c      0x14c .build/obj_ut472_th3v3gas/lib/lufa/LUFA/Drivers/USB/Core/AVR8/USBController_AVR8.o
                                0x5a0 (size before relaxing)
 .debug_str     0x00006998      0x133 .build/obj_ut472_th3v3gas/lib/lufa/LUFA/Drivers/USB/Core/AVR8/USBInterrupt_AVR8.o
                                0x642 (size before relaxing)
 .debug_str     0x00006acb      0x40d .build/obj_ut472_th3v3gas/lib/lufa/LUFA/Drivers/USB/Core/DeviceStandardReq.o
                                0x9d6 (size before relaxing)
 .debug_str     0x00006ed8       0x59 .build/obj_ut472_th3v3gas/lib/lufa/LUFA/Drivers/USB/Core/Events.o
                                0x1ec (size before relaxing)
 .debug_str     0x00006f31       0x45 .build/obj_ut472_th3v3gas/lib/lufa/LUFA/Drivers/USB/Core/USBTask.o
                                0x3f8 (size before relaxing)
 .debug_str     0x00006f76       0x5f c:/users/nonej/documents/keyboard/msys64/home/nonej/qmk_utils/avr8-gnu-toolchain/bin/../lib/gcc/avr/8.3.0/avr35\libgcc.a(_mulqi3.o)
 .debug_str     0x00006fd5       0x5f c:/users/nonej/documents/keyboard/msys64/home/nonej/qmk_utils/avr8-gnu-toolchain/bin/../lib/gcc/avr/8.3.0/avr35\libgcc.a(_mulhi3.o)
 .debug_str     0x00006fd5       0x5f c:/users/nonej/documents/keyboard/msys64/home/nonej/qmk_utils/avr8-gnu-toolchain/bin/../lib/gcc/avr/8.3.0/avr35\libgcc.a(_udivmodhi4.o)
 .debug_str     0x00006fd5       0x5f c:/users/nonej/documents/keyboard/msys64/home/nonej/qmk_utils/avr8-gnu-toolchain/bin/../lib/gcc/avr/8.3.0/avr35\libgcc.a(_divmodhi4.o)
 .debug_str     0x00006fd5       0x5f c:/users/nonej/documents/keyboard/msys64/home/nonej/qmk_utils/avr8-gnu-toolchain/bin/../lib/gcc/avr/8.3.0/avr35\libgcc.a(_exit.o)
 .debug_str     0x00006fd5       0x5f c:/users/nonej/documents/keyboard/msys64/home/nonej/qmk_utils/avr8-gnu-toolchain/bin/../lib/gcc/avr/8.3.0/avr35\libgcc.a(_tablejump2.o)
 .debug_str     0x00006fd5       0x5f c:/users/nonej/documents/keyboard/msys64/home/nonej/qmk_utils/avr8-gnu-toolchain/bin/../lib/gcc/avr/8.3.0/avr35\libgcc.a(_copy_data.o)
 .debug_str     0x00006fd5       0x5f c:/users/nonej/documents/keyboard/msys64/home/nonej/qmk_utils/avr8-gnu-toolchain/bin/../lib/gcc/avr/8.3.0/avr35\libgcc.a(_clear_bss.o)

.debug_loc      0x00000000     0xf0f6
 *(.debug_loc)
 .debug_loc     0x00000000      0x304 .build/obj_ut472_th3v3gas/keyboards/ut472/keymaps/th3v3gas/keymap.o
 .debug_loc     0x00000304     0x1435 .build/obj_ut472_th3v3gas/quantum/quantum.o
 .debug_loc     0x00001739      0x7f5 .build/obj_ut472_th3v3gas/quantum/keymap_common.o
 .debug_loc     0x00001f2e      0x203 .build/obj_ut472_th3v3gas/quantum/keycode_config.o
 .debug_loc     0x00002131      0x1ee .build/obj_ut472_th3v3gas/quantum/matrix_common.o
 .debug_loc     0x0000231f      0x401 .build/obj_ut472_th3v3gas/quantum/matrix.o
 .debug_loc     0x00002720      0x13a .build/obj_ut472_th3v3gas/quantum/debounce/sym_g.o
 .debug_loc     0x0000285a      0x6d5 .build/obj_ut472_th3v3gas/quantum/process_keycode/process_combo.o
 .debug_loc     0x00002f2f       0x95 .build/obj_ut472_th3v3gas/quantum/process_keycode/process_unicode.o
 .debug_loc     0x00002fc4      0x6bb .build/obj_ut472_th3v3gas/quantum/process_keycode/process_unicode_common.o
 .debug_loc     0x0000367f      0x37d .build/obj_ut472_th3v3gas/quantum/color.o
 .debug_loc     0x000039fc     0x2922 .build/obj_ut472_th3v3gas/quantum/rgblight.o
 .debug_loc     0x0000631e      0x2b0 .build/obj_ut472_th3v3gas/quantum/process_keycode/process_rgb.o
 .debug_loc     0x000065ce      0xafa .build/obj_ut472_th3v3gas/quantum/process_keycode/process_tap_dance.o
 .debug_loc     0x000070c8      0x268 .build/obj_ut472_th3v3gas/ws2812.o
 .debug_loc     0x00007330      0x421 .build/obj_ut472_th3v3gas/quantum/process_keycode/process_space_cadet.o
 .debug_loc     0x00007751       0xb9 .build/obj_ut472_th3v3gas/quantum/process_keycode/process_magic.o
 .debug_loc     0x0000780a      0x143 .build/obj_ut472_th3v3gas/quantum/process_keycode/process_grave_esc.o
 .debug_loc     0x0000794d       0xf0 .build/obj_ut472_th3v3gas/common/host.o
 .debug_loc     0x00007a3d      0x228 .build/obj_ut472_th3v3gas/common/keyboard.o
 .debug_loc     0x00007c65      0xb79 .build/obj_ut472_th3v3gas/common/action.o
 .debug_loc     0x000087de      0x5ef .build/obj_ut472_th3v3gas/common/action_tapping.o
 .debug_loc     0x00008dcd      0x583 .build/obj_ut472_th3v3gas/common/action_macro.o
 .debug_loc     0x00009350      0x9a3 .build/obj_ut472_th3v3gas/common/action_layer.o
 .debug_loc     0x00009cf3      0x2b6 .build/obj_ut472_th3v3gas/common/action_util.o
 .debug_loc     0x00009fa9      0x1f8 .build/obj_ut472_th3v3gas/common/eeconfig.o
 .debug_loc     0x0000a1a1      0x41b .build/obj_ut472_th3v3gas/common/report.o
 .debug_loc     0x0000a5bc       0xdf .build/obj_ut472_th3v3gas/common/avr/suspend.o
 .debug_loc     0x0000a69b      0x35b .build/obj_ut472_th3v3gas/common/avr/timer.o
 .debug_loc     0x0000a9f6       0x4e .build/obj_ut472_th3v3gas/common/avr/bootloader.o
 .debug_loc     0x0000aa44      0x2eb .build/obj_ut472_th3v3gas/common/bootmagic.o
 .debug_loc     0x0000ad2f      0x4bc .build/obj_ut472_th3v3gas/common/mousekey.o
 .debug_loc     0x0000b1eb      0x767 .build/obj_ut472_th3v3gas/lufa.o
 .debug_loc     0x0000b952      0x28b .build/obj_ut472_th3v3gas/usb_descriptor.o
 .debug_loc     0x0000bbdd       0x55 .build/obj_ut472_th3v3gas/outputselect.o
 .debug_loc     0x0000bc32     0x2752 .build/obj_ut472_th3v3gas/lib/lufa/LUFA/Drivers/USB/Core/AVR8/EndpointStream_AVR8.o
 .debug_loc     0x0000e384      0x4a0 .build/obj_ut472_th3v3gas/lib/lufa/LUFA/Drivers/USB/Core/AVR8/Endpoint_AVR8.o
 .debug_loc     0x0000e824       0x9a .build/obj_ut472_th3v3gas/lib/lufa/LUFA/Drivers/USB/Core/AVR8/USBController_AVR8.o
 .debug_loc     0x0000e8be      0x450 .build/obj_ut472_th3v3gas/lib/lufa/LUFA/Drivers/USB/Core/AVR8/USBInterrupt_AVR8.o
 .debug_loc     0x0000ed0e      0x386 .build/obj_ut472_th3v3gas/lib/lufa/LUFA/Drivers/USB/Core/DeviceStandardReq.o
 .debug_loc     0x0000f094       0x62 .build/obj_ut472_th3v3gas/lib/lufa/LUFA/Drivers/USB/Core/USBTask.o

.debug_macinfo
 *(.debug_macinfo)

.debug_weaknames
 *(.debug_weaknames)

.debug_funcnames
 *(.debug_funcnames)

.debug_typenames
 *(.debug_typenames)

.debug_varnames
 *(.debug_varnames)

.debug_pubtypes
 *(.debug_pubtypes)

.debug_ranges   0x00000000     0x1af0
 *(.debug_ranges)
 .debug_ranges  0x00000000       0x18 .build/obj_ut472_th3v3gas/keyboards/ut472/ut472.o
 .debug_ranges  0x00000018       0x38 .build/obj_ut472_th3v3gas/keyboards/ut472/keymaps/th3v3gas/keymap.o
 .debug_ranges  0x00000050      0x180 .build/obj_ut472_th3v3gas/quantum/quantum.o
 .debug_ranges  0x000001d0       0x30 .build/obj_ut472_th3v3gas/quantum/keymap_common.o
 .debug_ranges  0x00000200       0x18 .build/obj_ut472_th3v3gas/quantum/keycode_config.o
 .debug_ranges  0x00000218       0x90 .build/obj_ut472_th3v3gas/quantum/matrix_common.o
 .debug_ranges  0x000002a8       0xc0 .build/obj_ut472_th3v3gas/quantum/matrix.o
 .debug_ranges  0x00000368       0x38 .build/obj_ut472_th3v3gas/quantum/debounce/sym_g.o
 .debug_ranges  0x000003a0       0xe8 .build/obj_ut472_th3v3gas/quantum/process_keycode/process_combo.o
 .debug_ranges  0x00000488       0x10 .build/obj_ut472_th3v3gas/quantum/process_keycode/process_unicode.o
 .debug_ranges  0x00000498       0xe0 .build/obj_ut472_th3v3gas/quantum/process_keycode/process_unicode_common.o
 .debug_ranges  0x00000578       0x10 .build/obj_ut472_th3v3gas/quantum/color.o
 .debug_ranges  0x00000588      0x558 .build/obj_ut472_th3v3gas/quantum/rgblight.o
 .debug_ranges  0x00000ae0       0x40 .build/obj_ut472_th3v3gas/quantum/process_keycode/process_rgb.o
 .debug_ranges  0x00000b20       0xc0 .build/obj_ut472_th3v3gas/quantum/process_keycode/process_tap_dance.o
 .debug_ranges  0x00000be0       0x28 .build/obj_ut472_th3v3gas/ws2812.o
 .debug_ranges  0x00000c08       0x18 .build/obj_ut472_th3v3gas/quantum/process_keycode/process_space_cadet.o
 .debug_ranges  0x00000c20       0x10 .build/obj_ut472_th3v3gas/quantum/process_keycode/process_magic.o
 .debug_ranges  0x00000c30       0x28 .build/obj_ut472_th3v3gas/quantum/process_keycode/process_grave_esc.o
 .debug_ranges  0x00000c58       0x58 .build/obj_ut472_th3v3gas/common/host.o
 .debug_ranges  0x00000cb0       0xc0 .build/obj_ut472_th3v3gas/common/keyboard.o
 .debug_ranges  0x00000d70      0x100 .build/obj_ut472_th3v3gas/common/action.o
 .debug_ranges  0x00000e70       0xd0 .build/obj_ut472_th3v3gas/common/action_tapping.o
 .debug_ranges  0x00000f40       0x28 .build/obj_ut472_th3v3gas/common/action_macro.o
 .debug_ranges  0x00000f68      0x128 .build/obj_ut472_th3v3gas/common/action_layer.o
 .debug_ranges  0x00001090      0x130 .build/obj_ut472_th3v3gas/common/action_util.o
 .debug_ranges  0x000011c0       0xd8 .build/obj_ut472_th3v3gas/common/eeconfig.o
 .debug_ranges  0x00001298       0x50 .build/obj_ut472_th3v3gas/common/report.o
 .debug_ranges  0x000012e8       0x90 .build/obj_ut472_th3v3gas/common/avr/suspend.o
 .debug_ranges  0x00001378       0x40 .build/obj_ut472_th3v3gas/common/avr/timer.o
 .debug_ranges  0x000013b8       0x30 .build/obj_ut472_th3v3gas/common/avr/bootloader.o
 .debug_ranges  0x000013e8       0x78 .build/obj_ut472_th3v3gas/common/bootmagic.o
 .debug_ranges  0x00001460       0x40 .build/obj_ut472_th3v3gas/common/mousekey.o
 .debug_ranges  0x000014a0      0x140 .build/obj_ut472_th3v3gas/lufa.o
 .debug_ranges  0x000015e0       0x28 .build/obj_ut472_th3v3gas/usb_descriptor.o
 .debug_ranges  0x00001608       0x28 .build/obj_ut472_th3v3gas/outputselect.o
 .debug_ranges  0x00001630       0x10 .build/obj_ut472_th3v3gas/lib/lufa/LUFA/Drivers/USB/Core/AVR8/Device_AVR8.o
 .debug_ranges  0x00001640      0x1f8 .build/obj_ut472_th3v3gas/lib/lufa/LUFA/Drivers/USB/Core/AVR8/EndpointStream_AVR8.o
 .debug_ranges  0x00001838       0xd8 .build/obj_ut472_th3v3gas/lib/lufa/LUFA/Drivers/USB/Core/AVR8/Endpoint_AVR8.o
 .debug_ranges  0x00001910       0x50 .build/obj_ut472_th3v3gas/lib/lufa/LUFA/Drivers/USB/Core/AVR8/USBController_AVR8.o
 .debug_ranges  0x00001960       0x70 .build/obj_ut472_th3v3gas/lib/lufa/LUFA/Drivers/USB/Core/AVR8/USBInterrupt_AVR8.o
 .debug_ranges  0x000019d0       0xf0 .build/obj_ut472_th3v3gas/lib/lufa/LUFA/Drivers/USB/Core/DeviceStandardReq.o
 .debug_ranges  0x00001ac0       0x20 .build/obj_ut472_th3v3gas/lib/lufa/LUFA/Drivers/USB/Core/Events.o
 .debug_ranges  0x00001ae0       0x10 .build/obj_ut472_th3v3gas/lib/lufa/LUFA/Drivers/USB/Core/USBTask.o

.debug_macro
 *(.debug_macro)

.debug_addr
 *(.debug_addr)
OUTPUT(.build/ut472_th3v3gas.elf elf32-avr)
LOAD linker stubs

Cross Reference Table

Symbol                                            File
CALLBACK_HIDParser_FilterHIDReportItem            .build/obj_ut472_th3v3gas/lib/lufa/LUFA/Drivers/USB/Class/Common/HIDParser.o
CALLBACK_USB_GetDescriptor                        .build/obj_ut472_th3v3gas/lufa.o
                                                  .build/obj_ut472_th3v3gas/lib/lufa/LUFA/Drivers/USB/Core/DeviceStandardReq.o
CIE1931_CURVE                                     .build/obj_ut472_th3v3gas/quantum/led_tables.o
                                                  .build/obj_ut472_th3v3gas/quantum/color.o
ConfigurationDescriptor                           .build/obj_ut472_th3v3gas/usb_descriptor.o
DeviceDescriptor                                  .build/obj_ut472_th3v3gas/usb_descriptor.o
EVENT_USB_Device_ConfigurationChanged             .build/obj_ut472_th3v3gas/lufa.o
                                                  .build/obj_ut472_th3v3gas/lib/lufa/LUFA/Drivers/USB/Core/DeviceStandardReq.o
EVENT_USB_Device_Connect                          .build/obj_ut472_th3v3gas/lufa.o
EVENT_USB_Device_ControlRequest                   .build/obj_ut472_th3v3gas/lufa.o
                                                  .build/obj_ut472_th3v3gas/lib/lufa/LUFA/Drivers/USB/Core/DeviceStandardReq.o
EVENT_USB_Device_Disconnect                       .build/obj_ut472_th3v3gas/lufa.o
EVENT_USB_Device_Reset                            .build/obj_ut472_th3v3gas/lufa.o
                                                  .build/obj_ut472_th3v3gas/lib/lufa/LUFA/Drivers/USB/Core/AVR8/USBInterrupt_AVR8.o
EVENT_USB_Device_StartOfFrame                     .build/obj_ut472_th3v3gas/lib/lufa/LUFA/Drivers/USB/Core/Events.o
                                                  .build/obj_ut472_th3v3gas/lib/lufa/LUFA/Drivers/USB/Core/AVR8/USBInterrupt_AVR8.o
EVENT_USB_Device_Suspend                          .build/obj_ut472_th3v3gas/lufa.o
                                                  .build/obj_ut472_th3v3gas/lib/lufa/LUFA/Drivers/USB/Core/AVR8/USBInterrupt_AVR8.o
EVENT_USB_Device_WakeUp                           .build/obj_ut472_th3v3gas/lufa.o
                                                  .build/obj_ut472_th3v3gas/lib/lufa/LUFA/Drivers/USB/Core/AVR8/USBInterrupt_AVR8.o
Endpoint_ClearEndpoints                           .build/obj_ut472_th3v3gas/lib/lufa/LUFA/Drivers/USB/Core/AVR8/Endpoint_AVR8.o
Endpoint_ClearStatusStage                         .build/obj_ut472_th3v3gas/lib/lufa/LUFA/Drivers/USB/Core/AVR8/Endpoint_AVR8.o
                                                  .build/obj_ut472_th3v3gas/lib/lufa/LUFA/Drivers/USB/Core/DeviceStandardReq.o
                                                  .build/obj_ut472_th3v3gas/lufa.o
Endpoint_ConfigureEndpointTable                   .build/obj_ut472_th3v3gas/lib/lufa/LUFA/Drivers/USB/Core/AVR8/Endpoint_AVR8.o
Endpoint_ConfigureEndpoint_Prv                    .build/obj_ut472_th3v3gas/lib/lufa/LUFA/Drivers/USB/Core/AVR8/Endpoint_AVR8.o
                                                  .build/obj_ut472_th3v3gas/lib/lufa/LUFA/Drivers/USB/Core/AVR8/USBInterrupt_AVR8.o
                                                  .build/obj_ut472_th3v3gas/lib/lufa/LUFA/Drivers/USB/Core/AVR8/USBController_AVR8.o
                                                  .build/obj_ut472_th3v3gas/lufa.o
Endpoint_Discard_Stream                           .build/obj_ut472_th3v3gas/lib/lufa/LUFA/Drivers/USB/Core/AVR8/EndpointStream_AVR8.o
Endpoint_Null_Stream                              .build/obj_ut472_th3v3gas/lib/lufa/LUFA/Drivers/USB/Core/AVR8/EndpointStream_AVR8.o
Endpoint_Read_Control_EStream_BE                  .build/obj_ut472_th3v3gas/lib/lufa/LUFA/Drivers/USB/Core/AVR8/EndpointStream_AVR8.o
Endpoint_Read_Control_EStream_LE                  .build/obj_ut472_th3v3gas/lib/lufa/LUFA/Drivers/USB/Core/AVR8/EndpointStream_AVR8.o
Endpoint_Read_Control_Stream_BE                   .build/obj_ut472_th3v3gas/lib/lufa/LUFA/Drivers/USB/Core/AVR8/EndpointStream_AVR8.o
Endpoint_Read_Control_Stream_LE                   .build/obj_ut472_th3v3gas/lib/lufa/LUFA/Drivers/USB/Core/AVR8/EndpointStream_AVR8.o
Endpoint_Read_EStream_BE                          .build/obj_ut472_th3v3gas/lib/lufa/LUFA/Drivers/USB/Core/AVR8/EndpointStream_AVR8.o
Endpoint_Read_EStream_LE                          .build/obj_ut472_th3v3gas/lib/lufa/LUFA/Drivers/USB/Core/AVR8/EndpointStream_AVR8.o
Endpoint_Read_Stream_BE                           .build/obj_ut472_th3v3gas/lib/lufa/LUFA/Drivers/USB/Core/AVR8/EndpointStream_AVR8.o
Endpoint_Read_Stream_LE                           .build/obj_ut472_th3v3gas/lib/lufa/LUFA/Drivers/USB/Core/AVR8/EndpointStream_AVR8.o
Endpoint_WaitUntilReady                           .build/obj_ut472_th3v3gas/lib/lufa/LUFA/Drivers/USB/Core/AVR8/Endpoint_AVR8.o
                                                  .build/obj_ut472_th3v3gas/lib/lufa/LUFA/Drivers/USB/Core/AVR8/EndpointStream_AVR8.o
Endpoint_Write_Control_EStream_BE                 .build/obj_ut472_th3v3gas/lib/lufa/LUFA/Drivers/USB/Core/AVR8/EndpointStream_AVR8.o
Endpoint_Write_Control_EStream_LE                 .build/obj_ut472_th3v3gas/lib/lufa/LUFA/Drivers/USB/Core/AVR8/EndpointStream_AVR8.o
Endpoint_Write_Control_PStream_BE                 .build/obj_ut472_th3v3gas/lib/lufa/LUFA/Drivers/USB/Core/AVR8/EndpointStream_AVR8.o
Endpoint_Write_Control_PStream_LE                 .build/obj_ut472_th3v3gas/lib/lufa/LUFA/Drivers/USB/Core/AVR8/EndpointStream_AVR8.o
                                                  .build/obj_ut472_th3v3gas/lib/lufa/LUFA/Drivers/USB/Core/DeviceStandardReq.o
Endpoint_Write_Control_Stream_BE                  .build/obj_ut472_th3v3gas/lib/lufa/LUFA/Drivers/USB/Core/AVR8/EndpointStream_AVR8.o
Endpoint_Write_Control_Stream_LE                  .build/obj_ut472_th3v3gas/lib/lufa/LUFA/Drivers/USB/Core/AVR8/EndpointStream_AVR8.o
                                                  .build/obj_ut472_th3v3gas/lib/lufa/LUFA/Drivers/USB/Core/DeviceStandardReq.o
                                                  .build/obj_ut472_th3v3gas/lufa.o
Endpoint_Write_EStream_BE                         .build/obj_ut472_th3v3gas/lib/lufa/LUFA/Drivers/USB/Core/AVR8/EndpointStream_AVR8.o
Endpoint_Write_EStream_LE                         .build/obj_ut472_th3v3gas/lib/lufa/LUFA/Drivers/USB/Core/AVR8/EndpointStream_AVR8.o
Endpoint_Write_PStream_BE                         .build/obj_ut472_th3v3gas/lib/lufa/LUFA/Drivers/USB/Core/AVR8/EndpointStream_AVR8.o
Endpoint_Write_PStream_LE                         .build/obj_ut472_th3v3gas/lib/lufa/LUFA/Drivers/USB/Core/AVR8/EndpointStream_AVR8.o
Endpoint_Write_Stream_BE                          .build/obj_ut472_th3v3gas/lib/lufa/LUFA/Drivers/USB/Core/AVR8/EndpointStream_AVR8.o
Endpoint_Write_Stream_LE                          .build/obj_ut472_th3v3gas/lib/lufa/LUFA/Drivers/USB/Core/AVR8/EndpointStream_AVR8.o
                                                  .build/obj_ut472_th3v3gas/lufa.o
KeyboardReport                                    .build/obj_ut472_th3v3gas/usb_descriptor.o
LED_BREATHING_TABLE                               .build/obj_ut472_th3v3gas/quantum/led_tables.o
LanguageString                                    .build/obj_ut472_th3v3gas/usb_descriptor.o
ManufacturerString                                .build/obj_ut472_th3v3gas/usb_descriptor.o
ProductString                                     .build/obj_ut472_th3v3gas/usb_descriptor.o
RGBLED_BREATHING_INTERVALS                        .build/obj_ut472_th3v3gas/quantum/rgblight.o
RGBLED_GRADIENT_RANGES                            .build/obj_ut472_th3v3gas/quantum/rgblight.o
RGBLED_KNIGHT_INTERVALS                           .build/obj_ut472_th3v3gas/quantum/rgblight.o
RGBLED_RAINBOW_MOOD_INTERVALS                     .build/obj_ut472_th3v3gas/quantum/rgblight.o
RGBLED_RAINBOW_SWIRL_INTERVALS                    .build/obj_ut472_th3v3gas/quantum/rgblight.o
RGBLED_RGBTEST_INTERVALS                          .build/obj_ut472_th3v3gas/quantum/rgblight.o
RGBLED_SNAKE_INTERVALS                            .build/obj_ut472_th3v3gas/quantum/rgblight.o
SerialNumberString                                .build/obj_ut472_th3v3gas/usb_descriptor.o
SharedReport                                      .build/obj_ut472_th3v3gas/usb_descriptor.o
TDEMOTE                                           .build/obj_ut472_th3v3gas/keyboards/ut472/keymaps/th3v3gas/keymap.o
USB_ControlRequest                                .build/obj_ut472_th3v3gas/lib/lufa/LUFA/Drivers/USB/Core/USBTask.o
                                                  .build/obj_ut472_th3v3gas/lib/lufa/LUFA/Drivers/USB/Core/DeviceStandardReq.o
                                                  .build/obj_ut472_th3v3gas/lib/lufa/LUFA/Drivers/USB/Core/AVR8/Endpoint_AVR8.o
                                                  .build/obj_ut472_th3v3gas/lib/lufa/LUFA/Drivers/USB/Core/AVR8/EndpointStream_AVR8.o
                                                  .build/obj_ut472_th3v3gas/lufa.o
USB_DeviceState                                   .build/obj_ut472_th3v3gas/lib/lufa/LUFA/Drivers/USB/Core/USBTask.o
                                                  .build/obj_ut472_th3v3gas/lib/lufa/LUFA/Drivers/USB/Core/DeviceStandardReq.o
                                                  .build/obj_ut472_th3v3gas/lib/lufa/LUFA/Drivers/USB/Core/AVR8/USBInterrupt_AVR8.o
                                                  .build/obj_ut472_th3v3gas/lib/lufa/LUFA/Drivers/USB/Core/AVR8/USBController_AVR8.o
                                                  .build/obj_ut472_th3v3gas/lib/lufa/LUFA/Drivers/USB/Core/AVR8/Endpoint_AVR8.o
                                                  .build/obj_ut472_th3v3gas/lib/lufa/LUFA/Drivers/USB/Core/AVR8/EndpointStream_AVR8.o
                                                  .build/obj_ut472_th3v3gas/outputselect.o
                                                  .build/obj_ut472_th3v3gas/lufa.o
                                                  .build/obj_ut472_th3v3gas/common/avr/suspend.o
USB_Device_ConfigurationNumber                    .build/obj_ut472_th3v3gas/lib/lufa/LUFA/Drivers/USB/Core/DeviceStandardReq.o
                                                  .build/obj_ut472_th3v3gas/lib/lufa/LUFA/Drivers/USB/Core/AVR8/USBInterrupt_AVR8.o
                                                  .build/obj_ut472_th3v3gas/lib/lufa/LUFA/Drivers/USB/Core/AVR8/USBController_AVR8.o
USB_Device_CurrentlySelfPowered                   .build/obj_ut472_th3v3gas/lib/lufa/LUFA/Drivers/USB/Core/DeviceStandardReq.o
                                                  .build/obj_ut472_th3v3gas/lib/lufa/LUFA/Drivers/USB/Core/AVR8/USBController_AVR8.o
USB_Device_ProcessControlRequest                  .build/obj_ut472_th3v3gas/lib/lufa/LUFA/Drivers/USB/Core/DeviceStandardReq.o
                                                  .build/obj_ut472_th3v3gas/lib/lufa/LUFA/Drivers/USB/Core/USBTask.o
                                                  .build/obj_ut472_th3v3gas/lib/lufa/LUFA/Drivers/USB/Core/AVR8/USBInterrupt_AVR8.o
USB_Device_RemoteWakeupEnabled                    .build/obj_ut472_th3v3gas/lib/lufa/LUFA/Drivers/USB/Core/DeviceStandardReq.o
                                                  .build/obj_ut472_th3v3gas/lib/lufa/LUFA/Drivers/USB/Core/AVR8/USBController_AVR8.o
                                                  .build/obj_ut472_th3v3gas/lufa.o
USB_Device_SendRemoteWakeup                       .build/obj_ut472_th3v3gas/lib/lufa/LUFA/Drivers/USB/Core/AVR8/Device_AVR8.o
                                                  .build/obj_ut472_th3v3gas/lufa.o
USB_Disable                                       .build/obj_ut472_th3v3gas/lib/lufa/LUFA/Drivers/USB/Core/AVR8/USBController_AVR8.o
                                                  .build/obj_ut472_th3v3gas/lufa.o
USB_Event_Stub                                    .build/obj_ut472_th3v3gas/lib/lufa/LUFA/Drivers/USB/Core/Events.o
USB_Event_Stub_2                                  .build/obj_ut472_th3v3gas/lib/lufa/LUFA/Drivers/USB/Core/Events.o
USB_Event_Stub_3                                  .build/obj_ut472_th3v3gas/lib/lufa/LUFA/Drivers/USB/Core/Events.o
USB_GetHIDReportItemInfo                          .build/obj_ut472_th3v3gas/lib/lufa/LUFA/Drivers/USB/Class/Common/HIDParser.o
USB_GetHIDReportSize                              .build/obj_ut472_th3v3gas/lib/lufa/LUFA/Drivers/USB/Class/Common/HIDParser.o
USB_GetNextDescriptorComp                         .build/obj_ut472_th3v3gas/lib/lufa/LUFA/Drivers/USB/Core/ConfigDescriptors.o
USB_GetNextDescriptorOfType                       .build/obj_ut472_th3v3gas/lib/lufa/LUFA/Drivers/USB/Core/ConfigDescriptors.o
USB_GetNextDescriptorOfTypeAfter                  .build/obj_ut472_th3v3gas/lib/lufa/LUFA/Drivers/USB/Core/ConfigDescriptors.o
USB_GetNextDescriptorOfTypeBefore                 .build/obj_ut472_th3v3gas/lib/lufa/LUFA/Drivers/USB/Core/ConfigDescriptors.o
USB_INT_ClearAllInterrupts                        .build/obj_ut472_th3v3gas/lib/lufa/LUFA/Drivers/USB/Core/AVR8/USBInterrupt_AVR8.o
                                                  .build/obj_ut472_th3v3gas/lib/lufa/LUFA/Drivers/USB/Core/AVR8/USBController_AVR8.o
USB_INT_DisableAllInterrupts                      .build/obj_ut472_th3v3gas/lib/lufa/LUFA/Drivers/USB/Core/AVR8/USBInterrupt_AVR8.o
                                                  .build/obj_ut472_th3v3gas/lib/lufa/LUFA/Drivers/USB/Core/AVR8/USBController_AVR8.o
USB_Init                                          .build/obj_ut472_th3v3gas/lib/lufa/LUFA/Drivers/USB/Core/AVR8/USBController_AVR8.o
                                                  .build/obj_ut472_th3v3gas/lufa.o
USB_IsInitialized                                 .build/obj_ut472_th3v3gas/lib/lufa/LUFA/Drivers/USB/Core/USBTask.o
                                                  .build/obj_ut472_th3v3gas/lib/lufa/LUFA/Drivers/USB/Core/AVR8/USBController_AVR8.o
                                                  .build/obj_ut472_th3v3gas/lufa.o
USB_ProcessHIDReport                              .build/obj_ut472_th3v3gas/lib/lufa/LUFA/Drivers/USB/Class/Common/HIDParser.o
USB_ResetInterface                                .build/obj_ut472_th3v3gas/lib/lufa/LUFA/Drivers/USB/Core/AVR8/USBController_AVR8.o
USB_SetHIDReportItemInfo                          .build/obj_ut472_th3v3gas/lib/lufa/LUFA/Drivers/USB/Class/Common/HIDParser.o
USB_USBTask                                       .build/obj_ut472_th3v3gas/lib/lufa/LUFA/Drivers/USB/Core/USBTask.o
                                                  .build/obj_ut472_th3v3gas/lufa.o
__bad_interrupt                                   c:/users/nonej/documents/keyboard/msys64/home/nonej/qmk_utils/avr8-gnu-toolchain/bin/../lib/gcc/avr/8.3.0/../../../../avr/lib/avr35/crtatmega32u2.o
__bss_end                                         c:/users/nonej/documents/keyboard/msys64/home/nonej/qmk_utils/avr8-gnu-toolchain/bin/../lib/gcc/avr/8.3.0/avr35\libgcc.a(_clear_bss.o)
__bss_start                                       c:/users/nonej/documents/keyboard/msys64/home/nonej/qmk_utils/avr8-gnu-toolchain/bin/../lib/gcc/avr/8.3.0/avr35\libgcc.a(_clear_bss.o)
__data_end                                        c:/users/nonej/documents/keyboard/msys64/home/nonej/qmk_utils/avr8-gnu-toolchain/bin/../lib/gcc/avr/8.3.0/avr35\libgcc.a(_copy_data.o)
__data_load_start                                 c:/users/nonej/documents/keyboard/msys64/home/nonej/qmk_utils/avr8-gnu-toolchain/bin/../lib/gcc/avr/8.3.0/avr35\libgcc.a(_copy_data.o)
__data_start                                      c:/users/nonej/documents/keyboard/msys64/home/nonej/qmk_utils/avr8-gnu-toolchain/bin/../lib/gcc/avr/8.3.0/avr35\libgcc.a(_copy_data.o)
__divmodhi4                                       c:/users/nonej/documents/keyboard/msys64/home/nonej/qmk_utils/avr8-gnu-toolchain/bin/../lib/gcc/avr/8.3.0/avr35\libgcc.a(_divmodhi4.o)
                                                  .build/obj_ut472_th3v3gas/common/mousekey.o
                                                  .build/obj_ut472_th3v3gas/quantum/rgblight.o
                                                  .build/obj_ut472_th3v3gas/quantum/quantum.o
__divmodsi4                                       c:/users/nonej/documents/keyboard/msys64/home/nonej/qmk_utils/avr8-gnu-toolchain/bin/../lib/gcc/avr/8.3.0/avr35\libgcc.a(_divmodsi4.o)
                                                  c:/users/nonej/documents/keyboard/msys64/home/nonej/qmk_utils/avr8-gnu-toolchain/bin/../lib/gcc/avr/8.3.0/../../../../avr/lib/avr35\libc.a(rand.o)
__do_clear_bss                                    c:/users/nonej/documents/keyboard/msys64/home/nonej/qmk_utils/avr8-gnu-toolchain/bin/../lib/gcc/avr/8.3.0/avr35\libgcc.a(_clear_bss.o)
                                                  .build/obj_ut472_th3v3gas/lib/lufa/LUFA/Drivers/USB/Core/USBTask.o
                                                  .build/obj_ut472_th3v3gas/lib/lufa/LUFA/Drivers/USB/Core/DeviceStandardReq.o
                                                  .build/obj_ut472_th3v3gas/outputselect.o
                                                  .build/obj_ut472_th3v3gas/lufa.o
                                                  .build/obj_ut472_th3v3gas/common/mousekey.o
                                                  .build/obj_ut472_th3v3gas/common/bootmagic.o
                                                  .build/obj_ut472_th3v3gas/common/avr/timer.o
                                                  .build/obj_ut472_th3v3gas/common/avr/suspend.o
                                                  .build/obj_ut472_th3v3gas/common/debug.o
                                                  .build/obj_ut472_th3v3gas/common/action_util.o
                                                  .build/obj_ut472_th3v3gas/common/action_layer.o
                                                  .build/obj_ut472_th3v3gas/common/action_tapping.o
                                                  .build/obj_ut472_th3v3gas/common/action.o
                                                  .build/obj_ut472_th3v3gas/common/keyboard.o
                                                  .build/obj_ut472_th3v3gas/common/host.o
                                                  .build/obj_ut472_th3v3gas/quantum/process_keycode/process_grave_esc.o
                                                  .build/obj_ut472_th3v3gas/quantum/process_keycode/process_space_cadet.o
                                                  .build/obj_ut472_th3v3gas/quantum/process_keycode/process_tap_dance.o
                                                  .build/obj_ut472_th3v3gas/quantum/rgblight.o
                                                  .build/obj_ut472_th3v3gas/quantum/process_keycode/process_unicode_common.o
                                                  .build/obj_ut472_th3v3gas/quantum/process_keycode/process_combo.o
                                                  .build/obj_ut472_th3v3gas/quantum/debounce/sym_g.o
                                                  .build/obj_ut472_th3v3gas/quantum/matrix_common.o
                                                  .build/obj_ut472_th3v3gas/keyboards/ut472/keymaps/th3v3gas/keymap.o
__do_copy_data                                    c:/users/nonej/documents/keyboard/msys64/home/nonej/qmk_utils/avr8-gnu-toolchain/bin/../lib/gcc/avr/8.3.0/avr35\libgcc.a(_copy_data.o)
                                                  c:/users/nonej/documents/keyboard/msys64/home/nonej/qmk_utils/avr8-gnu-toolchain/bin/../lib/gcc/avr/8.3.0/../../../../avr/lib/avr35\libc.a(rand.o)
                                                  .build/obj_ut472_th3v3gas/lufa.o
                                                  .build/obj_ut472_th3v3gas/common/mousekey.o
                                                  .build/obj_ut472_th3v3gas/common/action_util.o
                                                  .build/obj_ut472_th3v3gas/common/action.o
                                                  .build/obj_ut472_th3v3gas/quantum/process_keycode/process_tap_dance.o
                                                  .build/obj_ut472_th3v3gas/quantum/rgblight.o
                                                  .build/obj_ut472_th3v3gas/quantum/process_keycode/process_unicode_common.o
                                                  .build/obj_ut472_th3v3gas/quantum/process_keycode/process_combo.o
                                                  .build/obj_ut472_th3v3gas/quantum/matrix.o
                                                  .build/obj_ut472_th3v3gas/quantum/keymap_common.o
                                                  .build/obj_ut472_th3v3gas/keyboards/ut472/keymaps/th3v3gas/keymap.o
__heap_end                                        c:/users/nonej/documents/keyboard/msys64/home/nonej/qmk_utils/avr8-gnu-toolchain/bin/../lib/gcc/avr/8.3.0/../../../../avr/lib/avr35/crtatmega32u2.o
__init                                            c:/users/nonej/documents/keyboard/msys64/home/nonej/qmk_utils/avr8-gnu-toolchain/bin/../lib/gcc/avr/8.3.0/../../../../avr/lib/avr35/crtatmega32u2.o
__mulhi3                                          c:/users/nonej/documents/keyboard/msys64/home/nonej/qmk_utils/avr8-gnu-toolchain/bin/../lib/gcc/avr/8.3.0/avr35\libgcc.a(_mulhi3.o)
                                                  .build/obj_ut472_th3v3gas/lib/lufa/LUFA/Drivers/USB/Class/Common/HIDParser.o
                                                  .build/obj_ut472_th3v3gas/common/mousekey.o
                                                  .build/obj_ut472_th3v3gas/common/action_layer.o
                                                  .build/obj_ut472_th3v3gas/common/action_tapping.o
                                                  .build/obj_ut472_th3v3gas/ws2812.o
                                                  .build/obj_ut472_th3v3gas/quantum/process_keycode/process_tap_dance.o
                                                  .build/obj_ut472_th3v3gas/quantum/rgblight.o
                                                  .build/obj_ut472_th3v3gas/quantum/color.o
                                                  .build/obj_ut472_th3v3gas/quantum/process_keycode/process_combo.o
                                                  .build/obj_ut472_th3v3gas/quantum/keymap_common.o
__mulqi3                                          c:/users/nonej/documents/keyboard/msys64/home/nonej/qmk_utils/avr8-gnu-toolchain/bin/../lib/gcc/avr/8.3.0/avr35\libgcc.a(_mulqi3.o)
                                                  .build/obj_ut472_th3v3gas/common/action_layer.o
                                                  .build/obj_ut472_th3v3gas/quantum/rgblight.o
__mulsi3                                          c:/users/nonej/documents/keyboard/msys64/home/nonej/qmk_utils/avr8-gnu-toolchain/bin/../lib/gcc/avr/8.3.0/avr35\libgcc.a(_mulsi3.o)
                                                  c:/users/nonej/documents/keyboard/msys64/home/nonej/qmk_utils/avr8-gnu-toolchain/bin/../lib/gcc/avr/8.3.0/../../../../avr/lib/avr35\libc.a(rand.o)
__mulsi3_helper                                   c:/users/nonej/documents/keyboard/msys64/home/nonej/qmk_utils/avr8-gnu-toolchain/bin/../lib/gcc/avr/8.3.0/avr35\libgcc.a(_mulsi3.o)
__negsi2                                          c:/users/nonej/documents/keyboard/msys64/home/nonej/qmk_utils/avr8-gnu-toolchain/bin/../lib/gcc/avr/8.3.0/avr35\libgcc.a(_negsi2.o)
                                                  c:/users/nonej/documents/keyboard/msys64/home/nonej/qmk_utils/avr8-gnu-toolchain/bin/../lib/gcc/avr/8.3.0/avr35\libgcc.a(_divmodsi4.o)
__stack                                           c:/users/nonej/documents/keyboard/msys64/home/nonej/qmk_utils/avr8-gnu-toolchain/bin/../lib/gcc/avr/8.3.0/../../../../avr/lib/avr35/crtatmega32u2.o
__tablejump2__                                    c:/users/nonej/documents/keyboard/msys64/home/nonej/qmk_utils/avr8-gnu-toolchain/bin/../lib/gcc/avr/8.3.0/avr35\libgcc.a(_tablejump2.o)
                                                  .build/obj_ut472_th3v3gas/lib/lufa/LUFA/Drivers/USB/Core/DeviceStandardReq.o
                                                  .build/obj_ut472_th3v3gas/common/action.o
                                                  .build/obj_ut472_th3v3gas/quantum/process_keycode/process_rgb.o
__udivmodhi4                                      c:/users/nonej/documents/keyboard/msys64/home/nonej/qmk_utils/avr8-gnu-toolchain/bin/../lib/gcc/avr/8.3.0/avr35\libgcc.a(_udivmodhi4.o)
                                                  c:/users/nonej/documents/keyboard/msys64/home/nonej/qmk_utils/avr8-gnu-toolchain/bin/../lib/gcc/avr/8.3.0/avr35\libgcc.a(_divmodhi4.o)
                                                  .build/obj_ut472_th3v3gas/quantum/rgblight.o
                                                  .build/obj_ut472_th3v3gas/quantum/color.o
__udivmodsi4                                      c:/users/nonej/documents/keyboard/msys64/home/nonej/qmk_utils/avr8-gnu-toolchain/bin/../lib/gcc/avr/8.3.0/avr35\libgcc.a(_udivmodsi4.o)
                                                  c:/users/nonej/documents/keyboard/msys64/home/nonej/qmk_utils/avr8-gnu-toolchain/bin/../lib/gcc/avr/8.3.0/avr35\libgcc.a(_divmodsi4.o)
__vector_1                                        c:/users/nonej/documents/keyboard/msys64/home/nonej/qmk_utils/avr8-gnu-toolchain/bin/../lib/gcc/avr/8.3.0/../../../../avr/lib/avr35/crtatmega32u2.o
__vector_10                                       c:/users/nonej/documents/keyboard/msys64/home/nonej/qmk_utils/avr8-gnu-toolchain/bin/../lib/gcc/avr/8.3.0/../../../../avr/lib/avr35/crtatmega32u2.o
__vector_11                                       .build/obj_ut472_th3v3gas/lib/lufa/LUFA/Drivers/USB/Core/AVR8/USBInterrupt_AVR8.o
                                                  c:/users/nonej/documents/keyboard/msys64/home/nonej/qmk_utils/avr8-gnu-toolchain/bin/../lib/gcc/avr/8.3.0/../../../../avr/lib/avr35/crtatmega32u2.o
__vector_12                                       .build/obj_ut472_th3v3gas/lib/lufa/LUFA/Drivers/USB/Core/AVR8/USBInterrupt_AVR8.o
                                                  c:/users/nonej/documents/keyboard/msys64/home/nonej/qmk_utils/avr8-gnu-toolchain/bin/../lib/gcc/avr/8.3.0/../../../../avr/lib/avr35/crtatmega32u2.o
__vector_13                                       .build/obj_ut472_th3v3gas/common/avr/suspend.o
                                                  c:/users/nonej/documents/keyboard/msys64/home/nonej/qmk_utils/avr8-gnu-toolchain/bin/../lib/gcc/avr/8.3.0/../../../../avr/lib/avr35/crtatmega32u2.o
__vector_14                                       c:/users/nonej/documents/keyboard/msys64/home/nonej/qmk_utils/avr8-gnu-toolchain/bin/../lib/gcc/avr/8.3.0/../../../../avr/lib/avr35/crtatmega32u2.o
__vector_15                                       c:/users/nonej/documents/keyboard/msys64/home/nonej/qmk_utils/avr8-gnu-toolchain/bin/../lib/gcc/avr/8.3.0/../../../../avr/lib/avr35/crtatmega32u2.o
__vector_16                                       c:/users/nonej/documents/keyboard/msys64/home/nonej/qmk_utils/avr8-gnu-toolchain/bin/../lib/gcc/avr/8.3.0/../../../../avr/lib/avr35/crtatmega32u2.o
__vector_17                                       c:/users/nonej/documents/keyboard/msys64/home/nonej/qmk_utils/avr8-gnu-toolchain/bin/../lib/gcc/avr/8.3.0/../../../../avr/lib/avr35/crtatmega32u2.o
__vector_18                                       c:/users/nonej/documents/keyboard/msys64/home/nonej/qmk_utils/avr8-gnu-toolchain/bin/../lib/gcc/avr/8.3.0/../../../../avr/lib/avr35/crtatmega32u2.o
__vector_19                                       .build/obj_ut472_th3v3gas/common/avr/timer.o
                                                  c:/users/nonej/documents/keyboard/msys64/home/nonej/qmk_utils/avr8-gnu-toolchain/bin/../lib/gcc/avr/8.3.0/../../../../avr/lib/avr35/crtatmega32u2.o
__vector_2                                        c:/users/nonej/documents/keyboard/msys64/home/nonej/qmk_utils/avr8-gnu-toolchain/bin/../lib/gcc/avr/8.3.0/../../../../avr/lib/avr35/crtatmega32u2.o
__vector_20                                       c:/users/nonej/documents/keyboard/msys64/home/nonej/qmk_utils/avr8-gnu-toolchain/bin/../lib/gcc/avr/8.3.0/../../../../avr/lib/avr35/crtatmega32u2.o
__vector_21                                       c:/users/nonej/documents/keyboard/msys64/home/nonej/qmk_utils/avr8-gnu-toolchain/bin/../lib/gcc/avr/8.3.0/../../../../avr/lib/avr35/crtatmega32u2.o
__vector_22                                       c:/users/nonej/documents/keyboard/msys64/home/nonej/qmk_utils/avr8-gnu-toolchain/bin/../lib/gcc/avr/8.3.0/../../../../avr/lib/avr35/crtatmega32u2.o
__vector_23                                       c:/users/nonej/documents/keyboard/msys64/home/nonej/qmk_utils/avr8-gnu-toolchain/bin/../lib/gcc/avr/8.3.0/../../../../avr/lib/avr35/crtatmega32u2.o
__vector_24                                       c:/users/nonej/documents/keyboard/msys64/home/nonej/qmk_utils/avr8-gnu-toolchain/bin/../lib/gcc/avr/8.3.0/../../../../avr/lib/avr35/crtatmega32u2.o
__vector_25                                       c:/users/nonej/documents/keyboard/msys64/home/nonej/qmk_utils/avr8-gnu-toolchain/bin/../lib/gcc/avr/8.3.0/../../../../avr/lib/avr35/crtatmega32u2.o
__vector_26                                       c:/users/nonej/documents/keyboard/msys64/home/nonej/qmk_utils/avr8-gnu-toolchain/bin/../lib/gcc/avr/8.3.0/../../../../avr/lib/avr35/crtatmega32u2.o
__vector_27                                       c:/users/nonej/documents/keyboard/msys64/home/nonej/qmk_utils/avr8-gnu-toolchain/bin/../lib/gcc/avr/8.3.0/../../../../avr/lib/avr35/crtatmega32u2.o
__vector_28                                       c:/users/nonej/documents/keyboard/msys64/home/nonej/qmk_utils/avr8-gnu-toolchain/bin/../lib/gcc/avr/8.3.0/../../../../avr/lib/avr35/crtatmega32u2.o
__vector_3                                        c:/users/nonej/documents/keyboard/msys64/home/nonej/qmk_utils/avr8-gnu-toolchain/bin/../lib/gcc/avr/8.3.0/../../../../avr/lib/avr35/crtatmega32u2.o
__vector_4                                        c:/users/nonej/documents/keyboard/msys64/home/nonej/qmk_utils/avr8-gnu-toolchain/bin/../lib/gcc/avr/8.3.0/../../../../avr/lib/avr35/crtatmega32u2.o
__vector_5                                        c:/users/nonej/documents/keyboard/msys64/home/nonej/qmk_utils/avr8-gnu-toolchain/bin/../lib/gcc/avr/8.3.0/../../../../avr/lib/avr35/crtatmega32u2.o
__vector_6                                        c:/users/nonej/documents/keyboard/msys64/home/nonej/qmk_utils/avr8-gnu-toolchain/bin/../lib/gcc/avr/8.3.0/../../../../avr/lib/avr35/crtatmega32u2.o
__vector_7                                        c:/users/nonej/documents/keyboard/msys64/home/nonej/qmk_utils/avr8-gnu-toolchain/bin/../lib/gcc/avr/8.3.0/../../../../avr/lib/avr35/crtatmega32u2.o
__vector_8                                        c:/users/nonej/documents/keyboard/msys64/home/nonej/qmk_utils/avr8-gnu-toolchain/bin/../lib/gcc/avr/8.3.0/../../../../avr/lib/avr35/crtatmega32u2.o
__vector_9                                        c:/users/nonej/documents/keyboard/msys64/home/nonej/qmk_utils/avr8-gnu-toolchain/bin/../lib/gcc/avr/8.3.0/../../../../avr/lib/avr35/crtatmega32u2.o
__vector_default                                  c:/users/nonej/documents/keyboard/msys64/home/nonej/qmk_utils/avr8-gnu-toolchain/bin/../lib/gcc/avr/8.3.0/../../../../avr/lib/avr35/crtatmega32u2.o
__vectors                                         c:/users/nonej/documents/keyboard/msys64/home/nonej/qmk_utils/avr8-gnu-toolchain/bin/../lib/gcc/avr/8.3.0/../../../../avr/lib/avr35/crtatmega32u2.o
__xprintf                                         .build/obj_ut472_th3v3gas/common/avr/xprintf.o
_div                                              c:/users/nonej/documents/keyboard/msys64/home/nonej/qmk_utils/avr8-gnu-toolchain/bin/../lib/gcc/avr/8.3.0/avr35\libgcc.a(_divmodhi4.o)
_exit                                             c:/users/nonej/documents/keyboard/msys64/home/nonej/qmk_utils/avr8-gnu-toolchain/bin/../lib/gcc/avr/8.3.0/avr35\libgcc.a(_exit.o)
action_exec                                       .build/obj_ut472_th3v3gas/common/action.o
                                                  .build/obj_ut472_th3v3gas/common/keyboard.o
action_for_key                                    .build/obj_ut472_th3v3gas/quantum/keymap_common.o
                                                  .build/obj_ut472_th3v3gas/common/action_layer.o
action_function                                   .build/obj_ut472_th3v3gas/quantum/keymap_common.o
                                                  .build/obj_ut472_th3v3gas/common/action.o
action_get_macro                                  .build/obj_ut472_th3v3gas/quantum/keymap_common.o
                                                  .build/obj_ut472_th3v3gas/common/action.o
action_macro_play                                 .build/obj_ut472_th3v3gas/common/action_macro.o
                                                  .build/obj_ut472_th3v3gas/common/action.o
action_tapping_process                            .build/obj_ut472_th3v3gas/common/action_tapping.o
                                                  .build/obj_ut472_th3v3gas/common/action.o
add_key                                           .build/obj_ut472_th3v3gas/common/action_util.o
                                                  .build/obj_ut472_th3v3gas/common/action.o
                                                  .build/obj_ut472_th3v3gas/quantum/process_keycode/process_grave_esc.o
add_key_bit                                       .build/obj_ut472_th3v3gas/common/report.o
add_key_byte                                      .build/obj_ut472_th3v3gas/common/report.o
add_key_to_report                                 .build/obj_ut472_th3v3gas/common/report.o
                                                  .build/obj_ut472_th3v3gas/common/action_util.o
add_macro_mods                                    .build/obj_ut472_th3v3gas/common/action_util.o
                                                  .build/obj_ut472_th3v3gas/common/action_macro.o
add_mods                                          .build/obj_ut472_th3v3gas/common/action_util.o
                                                  .build/obj_ut472_th3v3gas/common/action.o
                                                  .build/obj_ut472_th3v3gas/quantum/process_keycode/process_tap_dance.o
add_weak_mods                                     .build/obj_ut472_th3v3gas/common/action_util.o
                                                  .build/obj_ut472_th3v3gas/common/action.o
                                                  .build/obj_ut472_th3v3gas/quantum/process_keycode/process_tap_dance.o
animation_status                                  .build/obj_ut472_th3v3gas/quantum/rgblight.o
api_send_unicode                                  .build/obj_ut472_th3v3gas/quantum/quantum.o
ascii_to_altgr_lut                                .build/obj_ut472_th3v3gas/quantum/quantum.o
ascii_to_keycode_lut                              .build/obj_ut472_th3v3gas/quantum/quantum.o
ascii_to_shift_lut                                .build/obj_ut472_th3v3gas/quantum/quantum.o
auto_detect_output                                .build/obj_ut472_th3v3gas/outputselect.o
biton                                             .build/obj_ut472_th3v3gas/common/util.o
                                                  .build/obj_ut472_th3v3gas/common/report.o
biton16                                           .build/obj_ut472_th3v3gas/common/util.o
biton32                                           .build/obj_ut472_th3v3gas/common/util.o
bitpop                                            .build/obj_ut472_th3v3gas/common/util.o
                                                  .build/obj_ut472_th3v3gas/common/action_util.o
bitpop16                                          .build/obj_ut472_th3v3gas/common/util.o
                                                  .build/obj_ut472_th3v3gas/quantum/matrix_common.o
bitpop32                                          .build/obj_ut472_th3v3gas/common/util.o
bitrev                                            .build/obj_ut472_th3v3gas/common/util.o
bitrev16                                          .build/obj_ut472_th3v3gas/common/util.o
bitrev32                                          .build/obj_ut472_th3v3gas/common/util.o
bootloader_jump                                   .build/obj_ut472_th3v3gas/common/avr/bootloader.o
                                                  .build/obj_ut472_th3v3gas/common/bootmagic.o
                                                  .build/obj_ut472_th3v3gas/quantum/quantum.o
bootloader_jump_after_watchdog_reset              .build/obj_ut472_th3v3gas/common/avr/bootloader.o
bootmagic                                         .build/obj_ut472_th3v3gas/common/bootmagic.o
                                                  .build/obj_ut472_th3v3gas/common/keyboard.o
bootmagic_lite                                    .build/obj_ut472_th3v3gas/quantum/quantum.o
bootmagic_scan_keycode                            .build/obj_ut472_th3v3gas/common/bootmagic.o
clear_keyboard                                    .build/obj_ut472_th3v3gas/common/action.o
                                                  .build/obj_ut472_th3v3gas/lufa.o
                                                  .build/obj_ut472_th3v3gas/common/avr/suspend.o
                                                  .build/obj_ut472_th3v3gas/common/action_tapping.o
                                                  .build/obj_ut472_th3v3gas/quantum/process_keycode/process_magic.o
                                                  .build/obj_ut472_th3v3gas/quantum/quantum.o
clear_keyboard_but_mods                           .build/obj_ut472_th3v3gas/common/action.o
clear_keyboard_but_mods_and_keys                  .build/obj_ut472_th3v3gas/common/action.o
                                                  .build/obj_ut472_th3v3gas/common/action_layer.o
clear_keys                                        .build/obj_ut472_th3v3gas/common/action_util.o
                                                  .build/obj_ut472_th3v3gas/common/action.o
clear_keys_from_report                            .build/obj_ut472_th3v3gas/common/report.o
                                                  .build/obj_ut472_th3v3gas/common/action_util.o
clear_macro_mods                                  .build/obj_ut472_th3v3gas/common/action_util.o
                                                  .build/obj_ut472_th3v3gas/common/action.o
clear_mods                                        .build/obj_ut472_th3v3gas/common/action_util.o
                                                  .build/obj_ut472_th3v3gas/common/action.o
                                                  .build/obj_ut472_th3v3gas/quantum/process_keycode/process_unicode_common.o
clear_oneshot_layer_state                         .build/obj_ut472_th3v3gas/common/action_util.o
                                                  .build/obj_ut472_th3v3gas/common/action.o
clear_oneshot_locked_mods                         .build/obj_ut472_th3v3gas/common/action_util.o
clear_oneshot_mods                                .build/obj_ut472_th3v3gas/common/action_util.o
                                                  .build/obj_ut472_th3v3gas/common/action.o
clear_weak_mods                                   .build/obj_ut472_th3v3gas/common/action_util.o
                                                  .build/obj_ut472_th3v3gas/common/action.o
combo_disable                                     .build/obj_ut472_th3v3gas/quantum/process_keycode/process_combo.o
combo_enable                                      .build/obj_ut472_th3v3gas/quantum/process_keycode/process_combo.o
combo_toggle                                      .build/obj_ut472_th3v3gas/quantum/process_keycode/process_combo.o
cur_dance                                         .build/obj_ut472_th3v3gas/keyboards/ut472/keymaps/th3v3gas/keymap.o
cycle_unicode_input_mode                          .build/obj_ut472_th3v3gas/quantum/process_keycode/process_unicode_common.o
debounce                                          .build/obj_ut472_th3v3gas/quantum/debounce/sym_g.o
                                                  .build/obj_ut472_th3v3gas/quantum/matrix.o
                                                  .build/obj_ut472_th3v3gas/quantum/matrix_common.o
debounce_active                                   .build/obj_ut472_th3v3gas/quantum/debounce/sym_g.o
                                                  .build/obj_ut472_th3v3gas/quantum/matrix_common.o
debounce_init                                     .build/obj_ut472_th3v3gas/quantum/debounce/sym_g.o
                                                  .build/obj_ut472_th3v3gas/quantum/matrix.o
                                                  .build/obj_ut472_th3v3gas/quantum/matrix_common.o
debug_action                                      .build/obj_ut472_th3v3gas/common/action.o
debug_config                                      .build/obj_ut472_th3v3gas/common/debug.o
                                                  .build/obj_ut472_th3v3gas/common/bootmagic.o
                                                  .build/obj_ut472_th3v3gas/common/keyboard.o
debug_event                                       .build/obj_ut472_th3v3gas/common/action.o
                                                  .build/obj_ut472_th3v3gas/common/action_tapping.o
debug_record                                      .build/obj_ut472_th3v3gas/common/action.o
                                                  .build/obj_ut472_th3v3gas/common/action_tapping.o
decode_utf8                                       .build/obj_ut472_th3v3gas/quantum/process_keycode/process_unicode_common.o
default_layer_and                                 .build/obj_ut472_th3v3gas/common/action_layer.o
                                                  .build/obj_ut472_th3v3gas/common/action.o
default_layer_debug                               .build/obj_ut472_th3v3gas/common/action_layer.o
                                                  .build/obj_ut472_th3v3gas/common/action.o
default_layer_or                                  .build/obj_ut472_th3v3gas/common/action_layer.o
                                                  .build/obj_ut472_th3v3gas/common/action.o
default_layer_set                                 .build/obj_ut472_th3v3gas/common/action_layer.o
                                                  .build/obj_ut472_th3v3gas/common/bootmagic.o
                                                  .build/obj_ut472_th3v3gas/common/action.o
                                                  .build/obj_ut472_th3v3gas/quantum/quantum.o
default_layer_state                               .build/obj_ut472_th3v3gas/common/action_layer.o
                                                  .build/obj_ut472_th3v3gas/common/eeconfig.o
default_layer_state_set_kb                        .build/obj_ut472_th3v3gas/common/action_layer.o
default_layer_state_set_user                      .build/obj_ut472_th3v3gas/common/action_layer.o
default_layer_xor                                 .build/obj_ut472_th3v3gas/common/action_layer.o
                                                  .build/obj_ut472_th3v3gas/common/action.o
del_key                                           .build/obj_ut472_th3v3gas/common/action_util.o
                                                  .build/obj_ut472_th3v3gas/common/action.o
                                                  .build/obj_ut472_th3v3gas/quantum/process_keycode/process_grave_esc.o
del_key_bit                                       .build/obj_ut472_th3v3gas/common/report.o
del_key_byte                                      .build/obj_ut472_th3v3gas/common/report.o
del_key_from_report                               .build/obj_ut472_th3v3gas/common/report.o
                                                  .build/obj_ut472_th3v3gas/common/action_util.o
del_macro_mods                                    .build/obj_ut472_th3v3gas/common/action_util.o
                                                  .build/obj_ut472_th3v3gas/common/action_macro.o
del_mods                                          .build/obj_ut472_th3v3gas/common/action_util.o
                                                  .build/obj_ut472_th3v3gas/common/action.o
                                                  .build/obj_ut472_th3v3gas/quantum/process_keycode/process_tap_dance.o
del_weak_mods                                     .build/obj_ut472_th3v3gas/common/action_util.o
                                                  .build/obj_ut472_th3v3gas/common/action.o
                                                  .build/obj_ut472_th3v3gas/quantum/process_keycode/process_tap_dance.o
desired_output                                    .build/obj_ut472_th3v3gas/outputselect.o
disable_action_cache                              .build/obj_ut472_th3v3gas/common/action.o
                                                  .build/obj_ut472_th3v3gas/common/action_layer.o
                                                  .build/obj_ut472_th3v3gas/quantum/quantum.o
disable_jtag                                      .build/obj_ut472_th3v3gas/common/keyboard.o
eeconfig_debug_rgblight                           .build/obj_ut472_th3v3gas/quantum/rgblight.o
eeconfig_disable                                  .build/obj_ut472_th3v3gas/common/eeconfig.o
                                                  .build/obj_ut472_th3v3gas/quantum/quantum.o
eeconfig_enable                                   .build/obj_ut472_th3v3gas/common/eeconfig.o
eeconfig_init                                     .build/obj_ut472_th3v3gas/common/eeconfig.o
                                                  .build/obj_ut472_th3v3gas/common/bootmagic.o
                                                  .build/obj_ut472_th3v3gas/quantum/rgblight.o
                                                  .build/obj_ut472_th3v3gas/quantum/quantum.o
eeconfig_init_kb                                  .build/obj_ut472_th3v3gas/common/eeconfig.o
eeconfig_init_quantum                             .build/obj_ut472_th3v3gas/common/eeconfig.o
eeconfig_init_user                                .build/obj_ut472_th3v3gas/common/eeconfig.o
eeconfig_is_disabled                              .build/obj_ut472_th3v3gas/common/eeconfig.o
eeconfig_is_enabled                               .build/obj_ut472_th3v3gas/common/eeconfig.o
                                                  .build/obj_ut472_th3v3gas/common/bootmagic.o
                                                  .build/obj_ut472_th3v3gas/quantum/rgblight.o
                                                  .build/obj_ut472_th3v3gas/quantum/quantum.o
eeconfig_read_audio                               .build/obj_ut472_th3v3gas/common/eeconfig.o
eeconfig_read_backlight                           .build/obj_ut472_th3v3gas/common/eeconfig.o
eeconfig_read_debug                               .build/obj_ut472_th3v3gas/common/eeconfig.o
                                                  .build/obj_ut472_th3v3gas/common/bootmagic.o
eeconfig_read_default_layer                       .build/obj_ut472_th3v3gas/common/eeconfig.o
                                                  .build/obj_ut472_th3v3gas/common/bootmagic.o
eeconfig_read_handedness                          .build/obj_ut472_th3v3gas/common/eeconfig.o
eeconfig_read_haptic                              .build/obj_ut472_th3v3gas/common/eeconfig.o
eeconfig_read_kb                                  .build/obj_ut472_th3v3gas/common/eeconfig.o
eeconfig_read_keymap                              .build/obj_ut472_th3v3gas/common/eeconfig.o
                                                  .build/obj_ut472_th3v3gas/common/bootmagic.o
                                                  .build/obj_ut472_th3v3gas/quantum/process_keycode/process_magic.o
eeconfig_read_rgblight                            .build/obj_ut472_th3v3gas/quantum/rgblight.o
eeconfig_read_user                                .build/obj_ut472_th3v3gas/common/eeconfig.o
eeconfig_update_audio                             .build/obj_ut472_th3v3gas/common/eeconfig.o
eeconfig_update_backlight                         .build/obj_ut472_th3v3gas/common/eeconfig.o
eeconfig_update_debug                             .build/obj_ut472_th3v3gas/common/eeconfig.o
                                                  .build/obj_ut472_th3v3gas/common/bootmagic.o
eeconfig_update_default_layer                     .build/obj_ut472_th3v3gas/common/eeconfig.o
                                                  .build/obj_ut472_th3v3gas/common/bootmagic.o
                                                  .build/obj_ut472_th3v3gas/quantum/quantum.o
eeconfig_update_handedness                        .build/obj_ut472_th3v3gas/common/eeconfig.o
                                                  .build/obj_ut472_th3v3gas/common/bootmagic.o
                                                  .build/obj_ut472_th3v3gas/quantum/process_keycode/process_magic.o
eeconfig_update_haptic                            .build/obj_ut472_th3v3gas/common/eeconfig.o
eeconfig_update_kb                                .build/obj_ut472_th3v3gas/common/eeconfig.o
eeconfig_update_keymap                            .build/obj_ut472_th3v3gas/common/eeconfig.o
                                                  .build/obj_ut472_th3v3gas/common/bootmagic.o
                                                  .build/obj_ut472_th3v3gas/quantum/process_keycode/process_magic.o
eeconfig_update_rgblight                          .build/obj_ut472_th3v3gas/quantum/rgblight.o
eeconfig_update_rgblight_current                  .build/obj_ut472_th3v3gas/quantum/rgblight.o
eeconfig_update_rgblight_default                  .build/obj_ut472_th3v3gas/quantum/rgblight.o
eeconfig_update_user                              .build/obj_ut472_th3v3gas/common/eeconfig.o
eeprom_read_block                                 c:/users/nonej/documents/keyboard/msys64/home/nonej/qmk_utils/avr8-gnu-toolchain/bin/../lib/gcc/avr/8.3.0/../../../../avr/lib/avr35\libatmega32u2.a(eerd_block.o)
eeprom_read_blraw                                 c:/users/nonej/documents/keyboard/msys64/home/nonej/qmk_utils/avr8-gnu-toolchain/bin/../lib/gcc/avr/8.3.0/../../../../avr/lib/avr35\libatmega32u2.a(eerd_block.o)
                                                  c:/users/nonej/documents/keyboard/msys64/home/nonej/qmk_utils/avr8-gnu-toolchain/bin/../lib/gcc/avr/8.3.0/../../../../avr/lib/avr35\libatmega32u2.a(eerd_word.o)
                                                  c:/users/nonej/documents/keyboard/msys64/home/nonej/qmk_utils/avr8-gnu-toolchain/bin/../lib/gcc/avr/8.3.0/../../../../avr/lib/avr35\libatmega32u2.a(eerd_dword.o)
eeprom_read_byte                                  c:/users/nonej/documents/keyboard/msys64/home/nonej/qmk_utils/avr8-gnu-toolchain/bin/../lib/gcc/avr/8.3.0/../../../../avr/lib/avr35\libatmega32u2.a(eerd_byte.o)
                                                  .build/obj_ut472_th3v3gas/lib/lufa/LUFA/Drivers/USB/Core/AVR8/EndpointStream_AVR8.o
                                                  .build/obj_ut472_th3v3gas/common/eeconfig.o
                                                  .build/obj_ut472_th3v3gas/quantum/process_keycode/process_unicode_common.o
eeprom_read_dword                                 c:/users/nonej/documents/keyboard/msys64/home/nonej/qmk_utils/avr8-gnu-toolchain/bin/../lib/gcc/avr/8.3.0/../../../../avr/lib/avr35\libatmega32u2.a(eerd_dword.o)
                                                  .build/obj_ut472_th3v3gas/common/eeconfig.o
                                                  .build/obj_ut472_th3v3gas/quantum/rgblight.o
eeprom_read_float                                 c:/users/nonej/documents/keyboard/msys64/home/nonej/qmk_utils/avr8-gnu-toolchain/bin/../lib/gcc/avr/8.3.0/../../../../avr/lib/avr35\libatmega32u2.a(eerd_dword.o)
eeprom_read_word                                  c:/users/nonej/documents/keyboard/msys64/home/nonej/qmk_utils/avr8-gnu-toolchain/bin/../lib/gcc/avr/8.3.0/../../../../avr/lib/avr35\libatmega32u2.a(eerd_word.o)
                                                  .build/obj_ut472_th3v3gas/common/eeconfig.o
eeprom_update_byte                                c:/users/nonej/documents/keyboard/msys64/home/nonej/qmk_utils/avr8-gnu-toolchain/bin/../lib/gcc/avr/8.3.0/../../../../avr/lib/avr35\libatmega32u2.a(eeupd_byte.o)
                                                  c:/users/nonej/documents/keyboard/msys64/home/nonej/qmk_utils/avr8-gnu-toolchain/bin/../lib/gcc/avr/8.3.0/../../../../avr/lib/avr35\libatmega32u2.a(eeupd_word.o)
                                                  c:/users/nonej/documents/keyboard/msys64/home/nonej/qmk_utils/avr8-gnu-toolchain/bin/../lib/gcc/avr/8.3.0/../../../../avr/lib/avr35\libatmega32u2.a(eeupd_dword.o)
                                                  .build/obj_ut472_th3v3gas/lib/lufa/LUFA/Drivers/USB/Core/AVR8/EndpointStream_AVR8.o
                                                  .build/obj_ut472_th3v3gas/common/eeconfig.o
                                                  .build/obj_ut472_th3v3gas/quantum/process_keycode/process_unicode_common.o
eeprom_update_dword                               c:/users/nonej/documents/keyboard/msys64/home/nonej/qmk_utils/avr8-gnu-toolchain/bin/../lib/gcc/avr/8.3.0/../../../../avr/lib/avr35\libatmega32u2.a(eeupd_dword.o)
                                                  .build/obj_ut472_th3v3gas/common/eeconfig.o
                                                  .build/obj_ut472_th3v3gas/quantum/rgblight.o
eeprom_update_float                               c:/users/nonej/documents/keyboard/msys64/home/nonej/qmk_utils/avr8-gnu-toolchain/bin/../lib/gcc/avr/8.3.0/../../../../avr/lib/avr35\libatmega32u2.a(eeupd_dword.o)
eeprom_update_r18                                 c:/users/nonej/documents/keyboard/msys64/home/nonej/qmk_utils/avr8-gnu-toolchain/bin/../lib/gcc/avr/8.3.0/../../../../avr/lib/avr35\libatmega32u2.a(eeupd_byte.o)
                                                  c:/users/nonej/documents/keyboard/msys64/home/nonej/qmk_utils/avr8-gnu-toolchain/bin/../lib/gcc/avr/8.3.0/../../../../avr/lib/avr35\libatmega32u2.a(eeupd_word.o)
                                                  c:/users/nonej/documents/keyboard/msys64/home/nonej/qmk_utils/avr8-gnu-toolchain/bin/../lib/gcc/avr/8.3.0/../../../../avr/lib/avr35\libatmega32u2.a(eeupd_dword.o)
eeprom_update_word                                c:/users/nonej/documents/keyboard/msys64/home/nonej/qmk_utils/avr8-gnu-toolchain/bin/../lib/gcc/avr/8.3.0/../../../../avr/lib/avr35\libatmega32u2.a(eeupd_word.o)
                                                  .build/obj_ut472_th3v3gas/common/eeconfig.o
ep_combo                                          .build/obj_ut472_th3v3gas/keyboards/ut472/keymaps/th3v3gas/keymap.o
exit                                              c:/users/nonej/documents/keyboard/msys64/home/nonej/qmk_utils/avr8-gnu-toolchain/bin/../lib/gcc/avr/8.3.0/avr35\libgcc.a(_exit.o)
                                                  c:/users/nonej/documents/keyboard/msys64/home/nonej/qmk_utils/avr8-gnu-toolchain/bin/../lib/gcc/avr/8.3.0/../../../../avr/lib/avr35/crtatmega32u2.o
fn_actions                                        .build/obj_ut472_th3v3gas/quantum/keymap_common.o
get_event_keycode                                 .build/obj_ut472_th3v3gas/quantum/quantum.o
get_first_key                                     .build/obj_ut472_th3v3gas/common/report.o
get_macro_mods                                    .build/obj_ut472_th3v3gas/common/action_util.o
get_mods                                          .build/obj_ut472_th3v3gas/common/action_util.o
                                                  .build/obj_ut472_th3v3gas/quantum/process_keycode/process_grave_esc.o
                                                  .build/obj_ut472_th3v3gas/quantum/process_keycode/process_tap_dance.o
                                                  .build/obj_ut472_th3v3gas/quantum/process_keycode/process_rgb.o
                                                  .build/obj_ut472_th3v3gas/quantum/process_keycode/process_unicode_common.o
get_oneshot_layer                                 .build/obj_ut472_th3v3gas/common/action_util.o
                                                  .build/obj_ut472_th3v3gas/common/action.o
get_oneshot_layer_state                           .build/obj_ut472_th3v3gas/common/action_util.o
                                                  .build/obj_ut472_th3v3gas/common/action.o
get_oneshot_locked_mods                           .build/obj_ut472_th3v3gas/common/action_util.o
get_oneshot_mods                                  .build/obj_ut472_th3v3gas/common/action_util.o
                                                  .build/obj_ut472_th3v3gas/common/action.o
                                                  .build/obj_ut472_th3v3gas/quantum/process_keycode/process_tap_dance.o
get_record_keycode                                .build/obj_ut472_th3v3gas/quantum/quantum.o
get_tapping_term                                  .build/obj_ut472_th3v3gas/common/action_tapping.o
get_unicode_input_mode                            .build/obj_ut472_th3v3gas/quantum/process_keycode/process_unicode_common.o
get_usb_descriptor                                .build/obj_ut472_th3v3gas/usb_descriptor.o
                                                  .build/obj_ut472_th3v3gas/lufa.o
get_weak_mods                                     .build/obj_ut472_th3v3gas/common/action_util.o
                                                  .build/obj_ut472_th3v3gas/quantum/process_keycode/process_tap_dance.o
has_anykey                                        .build/obj_ut472_th3v3gas/common/report.o
                                                  .build/obj_ut472_th3v3gas/common/action_util.o
has_anymod                                        .build/obj_ut472_th3v3gas/common/action_util.o
has_oneshot_mods_timed_out                        .build/obj_ut472_th3v3gas/common/action_util.o
hex_to_keycode                                    .build/obj_ut472_th3v3gas/quantum/quantum.o
host_consumer_send                                .build/obj_ut472_th3v3gas/common/host.o
                                                  .build/obj_ut472_th3v3gas/common/action.o
host_get_driver                                   .build/obj_ut472_th3v3gas/common/host.o
host_keyboard_led_state                           .build/obj_ut472_th3v3gas/common/host.o
host_keyboard_leds                                .build/obj_ut472_th3v3gas/common/host.o
                                                  .build/obj_ut472_th3v3gas/common/avr/suspend.o
                                                  .build/obj_ut472_th3v3gas/common/action.o
                                                  .build/obj_ut472_th3v3gas/common/keyboard.o
host_keyboard_send                                .build/obj_ut472_th3v3gas/common/host.o
                                                  .build/obj_ut472_th3v3gas/common/action_util.o
host_last_consumer_report                         .build/obj_ut472_th3v3gas/common/host.o
host_last_system_report                           .build/obj_ut472_th3v3gas/common/host.o
host_mouse_send                                   .build/obj_ut472_th3v3gas/common/host.o
                                                  .build/obj_ut472_th3v3gas/common/mousekey.o
host_set_driver                                   .build/obj_ut472_th3v3gas/common/host.o
                                                  .build/obj_ut472_th3v3gas/lufa.o
host_system_send                                  .build/obj_ut472_th3v3gas/common/host.o
                                                  .build/obj_ut472_th3v3gas/common/action.o
hsv_to_rgb                                        .build/obj_ut472_th3v3gas/quantum/color.o
                                                  .build/obj_ut472_th3v3gas/quantum/rgblight.o
is_combo_enabled                                  .build/obj_ut472_th3v3gas/quantum/process_keycode/process_combo.o
is_keyboard_master                                .build/obj_ut472_th3v3gas/common/keyboard.o
is_oneshot_layer_active                           .build/obj_ut472_th3v3gas/common/action_util.o
                                                  .build/obj_ut472_th3v3gas/common/action.o
is_rgblight_initialized                           .build/obj_ut472_th3v3gas/quantum/rgblight.o
is_tap_action                                     .build/obj_ut472_th3v3gas/common/action.o
is_tap_key                                        .build/obj_ut472_th3v3gas/common/action.o
                                                  .build/obj_ut472_th3v3gas/common/action_tapping.o
key_combos                                        .build/obj_ut472_th3v3gas/keyboards/ut472/keymaps/th3v3gas/keymap.o
keyboard_idle                                     .build/obj_ut472_th3v3gas/lufa.o
keyboard_init                                     .build/obj_ut472_th3v3gas/common/keyboard.o
                                                  .build/obj_ut472_th3v3gas/lufa.o
keyboard_post_init_kb                             .build/obj_ut472_th3v3gas/common/keyboard.o
keyboard_post_init_user                           .build/obj_ut472_th3v3gas/common/keyboard.o
keyboard_pre_init_kb                              .build/obj_ut472_th3v3gas/common/keyboard.o
keyboard_pre_init_user                            .build/obj_ut472_th3v3gas/common/keyboard.o
keyboard_protocol                                 .build/obj_ut472_th3v3gas/lufa.o
                                                  .build/obj_ut472_th3v3gas/common/report.o
                                                  .build/obj_ut472_th3v3gas/common/host.o
keyboard_report                                   .build/obj_ut472_th3v3gas/common/action_util.o
keyboard_set_leds                                 .build/obj_ut472_th3v3gas/common/keyboard.o
keyboard_setup                                    .build/obj_ut472_th3v3gas/common/keyboard.o
                                                  .build/obj_ut472_th3v3gas/lufa.o
keyboard_task                                     .build/obj_ut472_th3v3gas/common/keyboard.o
                                                  .build/obj_ut472_th3v3gas/lufa.o
keycode_config                                    .build/obj_ut472_th3v3gas/quantum/keycode_config.o
                                                  .build/obj_ut472_th3v3gas/quantum/keymap_common.o
keymap_config                                     .build/obj_ut472_th3v3gas/common/bootmagic.o
                                                  .build/obj_ut472_th3v3gas/lufa.o
                                                  .build/obj_ut472_th3v3gas/common/report.o
                                                  .build/obj_ut472_th3v3gas/common/host.o
                                                  .build/obj_ut472_th3v3gas/quantum/process_keycode/process_magic.o
                                                  .build/obj_ut472_th3v3gas/quantum/keycode_config.o
keymap_function_id_to_action                      .build/obj_ut472_th3v3gas/quantum/keymap_common.o
keymap_key_to_keycode                             .build/obj_ut472_th3v3gas/quantum/keymap_common.o
                                                  .build/obj_ut472_th3v3gas/common/bootmagic.o
                                                  .build/obj_ut472_th3v3gas/quantum/quantum.o
keymaps                                           .build/obj_ut472_th3v3gas/keyboards/ut472/keymaps/th3v3gas/keymap.o
                                                  .build/obj_ut472_th3v3gas/quantum/keymap_common.o
layer_and                                         .build/obj_ut472_th3v3gas/common/action_layer.o
                                                  .build/obj_ut472_th3v3gas/common/action.o
layer_clear                                       .build/obj_ut472_th3v3gas/common/action_layer.o
                                                  .build/obj_ut472_th3v3gas/common/action.o
                                                  .build/obj_ut472_th3v3gas/keyboards/ut472/keymaps/th3v3gas/keymap.o
layer_debug                                       .build/obj_ut472_th3v3gas/common/action_layer.o
                                                  .build/obj_ut472_th3v3gas/common/action.o
layer_invert                                      .build/obj_ut472_th3v3gas/common/action_layer.o
                                                  .build/obj_ut472_th3v3gas/common/action.o
layer_move                                        .build/obj_ut472_th3v3gas/common/action_layer.o
                                                  .build/obj_ut472_th3v3gas/common/action.o
                                                  .build/obj_ut472_th3v3gas/quantum/process_keycode/process_tap_dance.o
                                                  .build/obj_ut472_th3v3gas/keyboards/ut472/keymaps/th3v3gas/keymap.o
layer_off                                         .build/obj_ut472_th3v3gas/common/action_layer.o
                                                  .build/obj_ut472_th3v3gas/common/action_util.o
                                                  .build/obj_ut472_th3v3gas/common/action.o
                                                  .build/obj_ut472_th3v3gas/keyboards/ut472/keymaps/th3v3gas/keymap.o
layer_on                                          .build/obj_ut472_th3v3gas/common/action_layer.o
                                                  .build/obj_ut472_th3v3gas/common/action_util.o
                                                  .build/obj_ut472_th3v3gas/common/action.o
                                                  .build/obj_ut472_th3v3gas/keyboards/ut472/keymaps/th3v3gas/keymap.o
layer_or                                          .build/obj_ut472_th3v3gas/common/action_layer.o
                                                  .build/obj_ut472_th3v3gas/common/action.o
layer_state                                       .build/obj_ut472_th3v3gas/common/action_layer.o
                                                  .build/obj_ut472_th3v3gas/quantum/quantum.o
layer_state_cmp                                   .build/obj_ut472_th3v3gas/common/action_layer.o
layer_state_is                                    .build/obj_ut472_th3v3gas/common/action_layer.o
layer_state_set                                   .build/obj_ut472_th3v3gas/common/action_layer.o
                                                  .build/obj_ut472_th3v3gas/common/action.o
                                                  .build/obj_ut472_th3v3gas/quantum/quantum.o
layer_state_set_kb                                .build/obj_ut472_th3v3gas/common/action_layer.o
layer_state_set_user                              .build/obj_ut472_th3v3gas/common/action_layer.o
layer_switch_get_action                           .build/obj_ut472_th3v3gas/common/action_layer.o
                                                  .build/obj_ut472_th3v3gas/common/action_tapping.o
                                                  .build/obj_ut472_th3v3gas/common/action.o
layer_switch_get_layer                            .build/obj_ut472_th3v3gas/common/action_layer.o
                                                  .build/obj_ut472_th3v3gas/quantum/quantum.o
layer_xor                                         .build/obj_ut472_th3v3gas/common/action_layer.o
                                                  .build/obj_ut472_th3v3gas/common/action.o
led                                               .build/obj_ut472_th3v3gas/quantum/rgblight.o
led_init_ports                                    .build/obj_ut472_th3v3gas/quantum/quantum.o
led_set                                           .build/obj_ut472_th3v3gas/quantum/quantum.o
                                                  .build/obj_ut472_th3v3gas/common/avr/suspend.o
                                                  .build/obj_ut472_th3v3gas/common/action.o
                                                  .build/obj_ut472_th3v3gas/common/keyboard.o
led_set_kb                                        .build/obj_ut472_th3v3gas/quantum/quantum.o
led_set_user                                      .build/obj_ut472_th3v3gas/quantum/quantum.o
led_update_kb                                     .build/obj_ut472_th3v3gas/quantum/quantum.o
led_update_user                                   .build/obj_ut472_th3v3gas/quantum/quantum.o
lufa_driver                                       .build/obj_ut472_th3v3gas/lufa.o
main                                              .build/obj_ut472_th3v3gas/lufa.o
                                                  c:/users/nonej/documents/keyboard/msys64/home/nonej/qmk_utils/avr8-gnu-toolchain/bin/../lib/gcc/avr/8.3.0/../../../../avr/lib/avr35/crtatmega32u2.o
matrix                                            .build/obj_ut472_th3v3gas/quantum/matrix_common.o
                                                  .build/obj_ut472_th3v3gas/quantum/matrix.o
matrix_cols                                       .build/obj_ut472_th3v3gas/quantum/matrix_common.o
matrix_get_row                                    .build/obj_ut472_th3v3gas/quantum/matrix_common.o
                                                  .build/obj_ut472_th3v3gas/common/bootmagic.o
                                                  .build/obj_ut472_th3v3gas/common/avr/suspend.o
                                                  .build/obj_ut472_th3v3gas/common/keyboard.o
                                                  .build/obj_ut472_th3v3gas/quantum/quantum.o
matrix_init                                       .build/obj_ut472_th3v3gas/quantum/matrix.o
                                                  .build/obj_ut472_th3v3gas/quantum/matrix_common.o
                                                  .build/obj_ut472_th3v3gas/common/keyboard.o
matrix_init_custom                                .build/obj_ut472_th3v3gas/quantum/matrix_common.o
matrix_init_kb                                    .build/obj_ut472_th3v3gas/keyboards/ut472/ut472.o
                                                  .build/obj_ut472_th3v3gas/quantum/quantum.o
matrix_init_quantum                               .build/obj_ut472_th3v3gas/quantum/quantum.o
                                                  .build/obj_ut472_th3v3gas/quantum/matrix.o
                                                  .build/obj_ut472_th3v3gas/quantum/matrix_common.o
matrix_init_user                                  .build/obj_ut472_th3v3gas/keyboards/ut472/keymaps/th3v3gas/keymap.o
                                                  .build/obj_ut472_th3v3gas/keyboards/ut472/ut472.o
matrix_io_delay                                   .build/obj_ut472_th3v3gas/quantum/matrix_common.o
                                                  .build/obj_ut472_th3v3gas/quantum/matrix.o
matrix_is_modified                                .build/obj_ut472_th3v3gas/quantum/matrix_common.o
matrix_is_on                                      .build/obj_ut472_th3v3gas/quantum/matrix_common.o
matrix_key_count                                  .build/obj_ut472_th3v3gas/quantum/matrix_common.o
matrix_power_down                                 .build/obj_ut472_th3v3gas/common/avr/suspend.o
matrix_power_up                                   .build/obj_ut472_th3v3gas/common/avr/suspend.o
matrix_print                                      .build/obj_ut472_th3v3gas/quantum/matrix_common.o
                                                  .build/obj_ut472_th3v3gas/common/keyboard.o
matrix_rows                                       .build/obj_ut472_th3v3gas/quantum/matrix_common.o
matrix_scan                                       .build/obj_ut472_th3v3gas/quantum/matrix.o
                                                  .build/obj_ut472_th3v3gas/quantum/matrix_common.o
                                                  .build/obj_ut472_th3v3gas/common/bootmagic.o
                                                  .build/obj_ut472_th3v3gas/common/avr/suspend.o
                                                  .build/obj_ut472_th3v3gas/common/keyboard.o
                                                  .build/obj_ut472_th3v3gas/quantum/quantum.o
matrix_scan_combo                                 .build/obj_ut472_th3v3gas/quantum/process_keycode/process_combo.o
                                                  .build/obj_ut472_th3v3gas/quantum/quantum.o
matrix_scan_custom                                .build/obj_ut472_th3v3gas/quantum/matrix_common.o
matrix_scan_kb                                    .build/obj_ut472_th3v3gas/keyboards/ut472/ut472.o
                                                  .build/obj_ut472_th3v3gas/quantum/quantum.o
matrix_scan_quantum                               .build/obj_ut472_th3v3gas/quantum/quantum.o
                                                  .build/obj_ut472_th3v3gas/quantum/matrix.o
                                                  .build/obj_ut472_th3v3gas/quantum/matrix_common.o
matrix_scan_tap_dance                             .build/obj_ut472_th3v3gas/quantum/process_keycode/process_tap_dance.o
                                                  .build/obj_ut472_th3v3gas/quantum/quantum.o
matrix_scan_user                                  .build/obj_ut472_th3v3gas/quantum/matrix_common.o
                                                  .build/obj_ut472_th3v3gas/keyboards/ut472/ut472.o
matrix_setup                                      .build/obj_ut472_th3v3gas/common/keyboard.o
memchr                                            c:/users/nonej/documents/keyboard/msys64/home/nonej/qmk_utils/avr8-gnu-toolchain/bin/../lib/gcc/avr/8.3.0/../../../../avr/lib/avr35\libc.a(memchr.o)
                                                  .build/obj_ut472_th3v3gas/quantum/rgblight.o
mk_delay                                          .build/obj_ut472_th3v3gas/common/mousekey.o
mk_interval                                       .build/obj_ut472_th3v3gas/common/mousekey.o
mk_max_speed                                      .build/obj_ut472_th3v3gas/common/mousekey.o
mk_time_to_max                                    .build/obj_ut472_th3v3gas/common/mousekey.o
mk_wheel_max_speed                                .build/obj_ut472_th3v3gas/common/mousekey.o
mk_wheel_time_to_max                              .build/obj_ut472_th3v3gas/common/mousekey.o
mod_config                                        .build/obj_ut472_th3v3gas/quantum/keycode_config.o
                                                  .build/obj_ut472_th3v3gas/quantum/keymap_common.o
mousekey_clear                                    .build/obj_ut472_th3v3gas/common/mousekey.o
                                                  .build/obj_ut472_th3v3gas/common/action.o
mousekey_off                                      .build/obj_ut472_th3v3gas/common/mousekey.o
                                                  .build/obj_ut472_th3v3gas/common/action.o
mousekey_on                                       .build/obj_ut472_th3v3gas/common/mousekey.o
                                                  .build/obj_ut472_th3v3gas/common/action.o
mousekey_send                                     .build/obj_ut472_th3v3gas/common/mousekey.o
                                                  .build/obj_ut472_th3v3gas/common/action.o
mousekey_task                                     .build/obj_ut472_th3v3gas/common/mousekey.o
                                                  .build/obj_ut472_th3v3gas/common/keyboard.o
oneshot_layer_changed_kb                          .build/obj_ut472_th3v3gas/common/action_util.o
oneshot_layer_changed_user                        .build/obj_ut472_th3v3gas/common/action_util.o
oneshot_locked_mods_changed_kb                    .build/obj_ut472_th3v3gas/common/action_util.o
oneshot_locked_mods_changed_user                  .build/obj_ut472_th3v3gas/common/action_util.o
oneshot_mods_changed_kb                           .build/obj_ut472_th3v3gas/common/action_util.o
oneshot_mods_changed_user                         .build/obj_ut472_th3v3gas/common/action_util.o
perform_space_cadet                               .build/obj_ut472_th3v3gas/quantum/process_keycode/process_space_cadet.o
persist_unicode_input_mode                        .build/obj_ut472_th3v3gas/quantum/process_keycode/process_unicode_common.o
preprocess_tap_dance                              .build/obj_ut472_th3v3gas/quantum/process_keycode/process_tap_dance.o
                                                  .build/obj_ut472_th3v3gas/quantum/quantum.o
process_action                                    .build/obj_ut472_th3v3gas/common/action.o
process_action_kb                                 .build/obj_ut472_th3v3gas/quantum/quantum.o
process_combo                                     .build/obj_ut472_th3v3gas/quantum/process_keycode/process_combo.o
                                                  .build/obj_ut472_th3v3gas/quantum/quantum.o
process_combo_event                               .build/obj_ut472_th3v3gas/quantum/process_keycode/process_combo.o
process_grave_esc                                 .build/obj_ut472_th3v3gas/quantum/process_keycode/process_grave_esc.o
                                                  .build/obj_ut472_th3v3gas/quantum/quantum.o
process_magic                                     .build/obj_ut472_th3v3gas/quantum/process_keycode/process_magic.o
                                                  .build/obj_ut472_th3v3gas/quantum/quantum.o
process_record                                    .build/obj_ut472_th3v3gas/common/action.o
                                                  .build/obj_ut472_th3v3gas/common/action_tapping.o
process_record_kb                                 .build/obj_ut472_th3v3gas/quantum/quantum.o
process_record_nocache                            .build/obj_ut472_th3v3gas/common/action.o
process_record_quantum                            .build/obj_ut472_th3v3gas/quantum/quantum.o
process_record_tap_hint                           .build/obj_ut472_th3v3gas/common/action.o
                                                  .build/obj_ut472_th3v3gas/common/action_tapping.o
process_record_user                               .build/obj_ut472_th3v3gas/keyboards/ut472/keymaps/th3v3gas/keymap.o
process_rgb                                       .build/obj_ut472_th3v3gas/quantum/process_keycode/process_rgb.o
                                                  .build/obj_ut472_th3v3gas/quantum/quantum.o
process_space_cadet                               .build/obj_ut472_th3v3gas/quantum/process_keycode/process_space_cadet.o
                                                  .build/obj_ut472_th3v3gas/quantum/quantum.o
process_tap_dance                                 .build/obj_ut472_th3v3gas/quantum/process_keycode/process_tap_dance.o
                                                  .build/obj_ut472_th3v3gas/quantum/quantum.o
process_unicode                                   .build/obj_ut472_th3v3gas/quantum/process_keycode/process_unicode.o
                                                  .build/obj_ut472_th3v3gas/quantum/process_keycode/process_unicode_common.o
process_unicode_common                            .build/obj_ut472_th3v3gas/quantum/process_keycode/process_unicode_common.o
                                                  .build/obj_ut472_th3v3gas/quantum/quantum.o
qk_tap_dance_dual_role_finished                   .build/obj_ut472_th3v3gas/quantum/process_keycode/process_tap_dance.o
qk_tap_dance_dual_role_on_each_tap                .build/obj_ut472_th3v3gas/quantum/process_keycode/process_tap_dance.o
qk_tap_dance_dual_role_reset                      .build/obj_ut472_th3v3gas/quantum/process_keycode/process_tap_dance.o
qk_tap_dance_pair_finished                        .build/obj_ut472_th3v3gas/quantum/process_keycode/process_tap_dance.o
                                                  .build/obj_ut472_th3v3gas/keyboards/ut472/keymaps/th3v3gas/keymap.o
qk_tap_dance_pair_on_each_tap                     .build/obj_ut472_th3v3gas/quantum/process_keycode/process_tap_dance.o
                                                  .build/obj_ut472_th3v3gas/keyboards/ut472/keymaps/th3v3gas/keymap.o
qk_tap_dance_pair_reset                           .build/obj_ut472_th3v3gas/quantum/process_keycode/process_tap_dance.o
                                                  .build/obj_ut472_th3v3gas/keyboards/ut472/keymaps/th3v3gas/keymap.o
qm_combo                                          .build/obj_ut472_th3v3gas/keyboards/ut472/keymaps/th3v3gas/keymap.o
rand                                              c:/users/nonej/documents/keyboard/msys64/home/nonej/qmk_utils/avr8-gnu-toolchain/bin/../lib/gcc/avr/8.3.0/../../../../avr/lib/avr35\libc.a(rand.o)
                                                  .build/obj_ut472_th3v3gas/quantum/quantum.o
rand_r                                            c:/users/nonej/documents/keyboard/msys64/home/nonej/qmk_utils/avr8-gnu-toolchain/bin/../lib/gcc/avr/8.3.0/../../../../avr/lib/avr35\libc.a(rand.o)
raw_matrix                                        .build/obj_ut472_th3v3gas/quantum/matrix_common.o
                                                  .build/obj_ut472_th3v3gas/quantum/matrix.o
read_source_layers_cache                          .build/obj_ut472_th3v3gas/common/action_layer.o
                                                  .build/obj_ut472_th3v3gas/quantum/quantum.o
register_code                                     .build/obj_ut472_th3v3gas/common/action.o
                                                  .build/obj_ut472_th3v3gas/common/action_macro.o
                                                  .build/obj_ut472_th3v3gas/quantum/process_keycode/process_unicode_common.o
                                                  .build/obj_ut472_th3v3gas/quantum/quantum.o
register_code16                                   .build/obj_ut472_th3v3gas/quantum/quantum.o
                                                  .build/obj_ut472_th3v3gas/quantum/process_keycode/process_tap_dance.o
                                                  .build/obj_ut472_th3v3gas/quantum/process_keycode/process_combo.o
                                                  .build/obj_ut472_th3v3gas/keyboards/ut472/keymaps/th3v3gas/keymap.o
register_hex                                      .build/obj_ut472_th3v3gas/quantum/process_keycode/process_unicode_common.o
                                                  .build/obj_ut472_th3v3gas/quantum/process_keycode/process_unicode.o
register_mods                                     .build/obj_ut472_th3v3gas/common/action.o
                                                  .build/obj_ut472_th3v3gas/quantum/process_keycode/process_space_cadet.o
                                                  .build/obj_ut472_th3v3gas/quantum/quantum.o
register_weak_mods                                .build/obj_ut472_th3v3gas/common/action.o
                                                  .build/obj_ut472_th3v3gas/quantum/quantum.o
reset_key                                         .build/obj_ut472_th3v3gas/common/avr/bootloader.o
reset_keyboard                                    .build/obj_ut472_th3v3gas/quantum/quantum.o
reset_oneshot_layer                               .build/obj_ut472_th3v3gas/common/action_util.o
reset_tap_dance                                   .build/obj_ut472_th3v3gas/quantum/process_keycode/process_tap_dance.o
rgblight_check_config                             .build/obj_ut472_th3v3gas/quantum/rgblight.o
rgblight_config                                   .build/obj_ut472_th3v3gas/quantum/rgblight.o
rgblight_decrease                                 .build/obj_ut472_th3v3gas/quantum/rgblight.o
rgblight_decrease_hue                             .build/obj_ut472_th3v3gas/quantum/rgblight.o
rgblight_decrease_hue_helper                      .build/obj_ut472_th3v3gas/quantum/rgblight.o
rgblight_decrease_hue_noeeprom                    .build/obj_ut472_th3v3gas/quantum/rgblight.o
rgblight_decrease_sat                             .build/obj_ut472_th3v3gas/quantum/rgblight.o
rgblight_decrease_sat_helper                      .build/obj_ut472_th3v3gas/quantum/rgblight.o
rgblight_decrease_sat_noeeprom                    .build/obj_ut472_th3v3gas/quantum/rgblight.o
rgblight_decrease_speed                           .build/obj_ut472_th3v3gas/quantum/rgblight.o
rgblight_decrease_val                             .build/obj_ut472_th3v3gas/quantum/rgblight.o
rgblight_decrease_val_helper                      .build/obj_ut472_th3v3gas/quantum/rgblight.o
rgblight_decrease_val_noeeprom                    .build/obj_ut472_th3v3gas/quantum/rgblight.o
rgblight_disable                                  .build/obj_ut472_th3v3gas/quantum/rgblight.o
rgblight_disable_noeeprom                         .build/obj_ut472_th3v3gas/quantum/rgblight.o
rgblight_effect_alternating                       .build/obj_ut472_th3v3gas/quantum/rgblight.o
rgblight_effect_breathe_table                     .build/obj_ut472_th3v3gas/quantum/rgblight.o
rgblight_effect_breathing                         .build/obj_ut472_th3v3gas/quantum/rgblight.o
rgblight_effect_christmas                         .build/obj_ut472_th3v3gas/quantum/rgblight.o
rgblight_effect_knight                            .build/obj_ut472_th3v3gas/quantum/rgblight.o
rgblight_effect_rainbow_mood                      .build/obj_ut472_th3v3gas/quantum/rgblight.o
rgblight_effect_rainbow_swirl                     .build/obj_ut472_th3v3gas/quantum/rgblight.o
rgblight_effect_rgbtest                           .build/obj_ut472_th3v3gas/quantum/rgblight.o
rgblight_effect_snake                             .build/obj_ut472_th3v3gas/quantum/rgblight.o
rgblight_enable                                   .build/obj_ut472_th3v3gas/quantum/rgblight.o
rgblight_enable_noeeprom                          .build/obj_ut472_th3v3gas/quantum/rgblight.o
rgblight_get_hue                                  .build/obj_ut472_th3v3gas/quantum/rgblight.o
rgblight_get_mode                                 .build/obj_ut472_th3v3gas/quantum/rgblight.o
                                                  .build/obj_ut472_th3v3gas/quantum/process_keycode/process_rgb.o
rgblight_get_sat                                  .build/obj_ut472_th3v3gas/quantum/rgblight.o
rgblight_get_speed                                .build/obj_ut472_th3v3gas/quantum/rgblight.o
rgblight_get_val                                  .build/obj_ut472_th3v3gas/quantum/rgblight.o
rgblight_increase                                 .build/obj_ut472_th3v3gas/quantum/rgblight.o
rgblight_increase_hue                             .build/obj_ut472_th3v3gas/quantum/rgblight.o
rgblight_increase_hue_helper                      .build/obj_ut472_th3v3gas/quantum/rgblight.o
rgblight_increase_hue_noeeprom                    .build/obj_ut472_th3v3gas/quantum/rgblight.o
rgblight_increase_sat                             .build/obj_ut472_th3v3gas/quantum/rgblight.o
rgblight_increase_sat_helper                      .build/obj_ut472_th3v3gas/quantum/rgblight.o
rgblight_increase_sat_noeeprom                    .build/obj_ut472_th3v3gas/quantum/rgblight.o
rgblight_increase_speed                           .build/obj_ut472_th3v3gas/quantum/rgblight.o
rgblight_increase_val                             .build/obj_ut472_th3v3gas/quantum/rgblight.o
rgblight_increase_val_helper                      .build/obj_ut472_th3v3gas/quantum/rgblight.o
rgblight_increase_val_noeeprom                    .build/obj_ut472_th3v3gas/quantum/rgblight.o
rgblight_init                                     .build/obj_ut472_th3v3gas/quantum/rgblight.o
                                                  .build/obj_ut472_th3v3gas/common/keyboard.o
rgblight_mode                                     .build/obj_ut472_th3v3gas/quantum/rgblight.o
                                                  .build/obj_ut472_th3v3gas/quantum/process_keycode/process_rgb.o
rgblight_mode_eeprom_helper                       .build/obj_ut472_th3v3gas/quantum/rgblight.o
rgblight_mode_noeeprom                            .build/obj_ut472_th3v3gas/quantum/rgblight.o
rgblight_read_dword                               .build/obj_ut472_th3v3gas/quantum/rgblight.o
rgblight_set                                      .build/obj_ut472_th3v3gas/quantum/rgblight.o
rgblight_set_clipping_range                       .build/obj_ut472_th3v3gas/quantum/rgblight.o
rgblight_set_effect_range                         .build/obj_ut472_th3v3gas/quantum/rgblight.o
rgblight_set_speed                                .build/obj_ut472_th3v3gas/quantum/rgblight.o
rgblight_set_speed_eeprom_helper                  .build/obj_ut472_th3v3gas/quantum/rgblight.o
rgblight_set_speed_noeeprom                       .build/obj_ut472_th3v3gas/quantum/rgblight.o
rgblight_sethsv                                   .build/obj_ut472_th3v3gas/quantum/rgblight.o
rgblight_sethsv_at                                .build/obj_ut472_th3v3gas/quantum/rgblight.o
rgblight_sethsv_eeprom_helper                     .build/obj_ut472_th3v3gas/quantum/rgblight.o
rgblight_sethsv_master                            .build/obj_ut472_th3v3gas/quantum/rgblight.o
rgblight_sethsv_noeeprom                          .build/obj_ut472_th3v3gas/quantum/rgblight.o
rgblight_sethsv_noeeprom_old                      .build/obj_ut472_th3v3gas/quantum/rgblight.o
rgblight_sethsv_range                             .build/obj_ut472_th3v3gas/quantum/rgblight.o
rgblight_sethsv_slave                             .build/obj_ut472_th3v3gas/quantum/rgblight.o
rgblight_setrgb                                   .build/obj_ut472_th3v3gas/quantum/rgblight.o
rgblight_setrgb_at                                .build/obj_ut472_th3v3gas/quantum/rgblight.o
rgblight_setrgb_master                            .build/obj_ut472_th3v3gas/quantum/rgblight.o
rgblight_setrgb_range                             .build/obj_ut472_th3v3gas/quantum/rgblight.o
rgblight_setrgb_slave                             .build/obj_ut472_th3v3gas/quantum/rgblight.o
rgblight_show_solid_color                         .build/obj_ut472_th3v3gas/quantum/rgblight.o
rgblight_status                                   .build/obj_ut472_th3v3gas/quantum/rgblight.o
rgblight_step                                     .build/obj_ut472_th3v3gas/quantum/rgblight.o
rgblight_step_helper                              .build/obj_ut472_th3v3gas/quantum/rgblight.o
rgblight_step_noeeprom                            .build/obj_ut472_th3v3gas/quantum/rgblight.o
rgblight_step_reverse                             .build/obj_ut472_th3v3gas/quantum/rgblight.o
rgblight_step_reverse_helper                      .build/obj_ut472_th3v3gas/quantum/rgblight.o
rgblight_step_reverse_noeeprom                    .build/obj_ut472_th3v3gas/quantum/rgblight.o
rgblight_task                                     .build/obj_ut472_th3v3gas/quantum/rgblight.o
                                                  .build/obj_ut472_th3v3gas/common/keyboard.o
rgblight_timer_disable                            .build/obj_ut472_th3v3gas/quantum/rgblight.o
rgblight_timer_enable                             .build/obj_ut472_th3v3gas/quantum/rgblight.o
rgblight_timer_init                               .build/obj_ut472_th3v3gas/quantum/rgblight.o
rgblight_timer_toggle                             .build/obj_ut472_th3v3gas/quantum/rgblight.o
rgblight_toggle                                   .build/obj_ut472_th3v3gas/quantum/rgblight.o
rgblight_toggle_noeeprom                          .build/obj_ut472_th3v3gas/quantum/rgblight.o
rgblight_update_dword                             .build/obj_ut472_th3v3gas/quantum/rgblight.o
send_byte                                         .build/obj_ut472_th3v3gas/quantum/quantum.o
send_char                                         .build/obj_ut472_th3v3gas/quantum/quantum.o
send_dword                                        .build/obj_ut472_th3v3gas/quantum/quantum.o
send_keyboard_report                              .build/obj_ut472_th3v3gas/common/action_util.o
                                                  .build/obj_ut472_th3v3gas/common/action_macro.o
                                                  .build/obj_ut472_th3v3gas/common/action.o
                                                  .build/obj_ut472_th3v3gas/quantum/process_keycode/process_grave_esc.o
                                                  .build/obj_ut472_th3v3gas/quantum/process_keycode/process_tap_dance.o
                                                  .build/obj_ut472_th3v3gas/quantum/process_keycode/process_combo.o
send_nibble                                       .build/obj_ut472_th3v3gas/quantum/quantum.o
send_string                                       .build/obj_ut472_th3v3gas/quantum/quantum.o
                                                  .build/obj_ut472_th3v3gas/quantum/process_keycode/process_unicode_common.o
                                                  .build/obj_ut472_th3v3gas/keyboards/ut472/keymaps/th3v3gas/keymap.o
send_string_P                                     .build/obj_ut472_th3v3gas/quantum/quantum.o
send_string_with_delay                            .build/obj_ut472_th3v3gas/quantum/quantum.o
send_string_with_delay_P                          .build/obj_ut472_th3v3gas/quantum/quantum.o
send_unicode_hex_string                           .build/obj_ut472_th3v3gas/quantum/process_keycode/process_unicode_common.o
send_unicode_string                               .build/obj_ut472_th3v3gas/quantum/process_keycode/process_unicode_common.o
send_word                                         .build/obj_ut472_th3v3gas/quantum/quantum.o
sendchar                                          .build/obj_ut472_th3v3gas/lufa.o
set_macro_mods                                    .build/obj_ut472_th3v3gas/common/action_util.o
set_mods                                          .build/obj_ut472_th3v3gas/common/action_util.o
                                                  .build/obj_ut472_th3v3gas/quantum/process_keycode/process_unicode_common.o
set_oneshot_layer                                 .build/obj_ut472_th3v3gas/common/action_util.o
                                                  .build/obj_ut472_th3v3gas/common/action.o
set_oneshot_locked_mods                           .build/obj_ut472_th3v3gas/common/action_util.o
set_oneshot_mods                                  .build/obj_ut472_th3v3gas/common/action_util.o
                                                  .build/obj_ut472_th3v3gas/common/action.o
set_output                                        .build/obj_ut472_th3v3gas/outputselect.o
set_output_user                                   .build/obj_ut472_th3v3gas/outputselect.o
set_single_persistent_default_layer               .build/obj_ut472_th3v3gas/quantum/quantum.o
set_unicode_input_mode                            .build/obj_ut472_th3v3gas/quantum/process_keycode/process_unicode_common.o
                                                  .build/obj_ut472_th3v3gas/keyboards/ut472/keymaps/th3v3gas/keymap.o
set_weak_mods                                     .build/obj_ut472_th3v3gas/common/action_util.o
sethsv                                            .build/obj_ut472_th3v3gas/quantum/rgblight.o
sethsv_raw                                        .build/obj_ut472_th3v3gas/quantum/rgblight.o
setrgb                                            .build/obj_ut472_th3v3gas/quantum/rgblight.o
shutdown_user                                     .build/obj_ut472_th3v3gas/quantum/quantum.o
source_layers_cache                               .build/obj_ut472_th3v3gas/common/action_layer.o
srand                                             c:/users/nonej/documents/keyboard/msys64/home/nonej/qmk_utils/avr8-gnu-toolchain/bin/../lib/gcc/avr/8.3.0/../../../../avr/lib/avr35\libc.a(rand.o)
startup_user                                      .build/obj_ut472_th3v3gas/quantum/quantum.o
store_or_get_action                               .build/obj_ut472_th3v3gas/common/action_layer.o
                                                  .build/obj_ut472_th3v3gas/common/action.o
strcspn                                           c:/users/nonej/documents/keyboard/msys64/home/nonej/qmk_utils/avr8-gnu-toolchain/bin/../lib/gcc/avr/8.3.0/../../../../avr/lib/avr35\libc.a(strcspn.o)
                                                  .build/obj_ut472_th3v3gas/quantum/process_keycode/process_unicode_common.o
strncpy                                           c:/users/nonej/documents/keyboard/msys64/home/nonej/qmk_utils/avr8-gnu-toolchain/bin/../lib/gcc/avr/8.3.0/../../../../avr/lib/avr35\libc.a(strncpy.o)
                                                  .build/obj_ut472_th3v3gas/quantum/process_keycode/process_unicode_common.o
suspend_idle                                      .build/obj_ut472_th3v3gas/common/avr/suspend.o
suspend_power_down                                .build/obj_ut472_th3v3gas/common/avr/suspend.o
                                                  .build/obj_ut472_th3v3gas/lufa.o
suspend_power_down_kb                             .build/obj_ut472_th3v3gas/common/avr/suspend.o
suspend_power_down_user                           .build/obj_ut472_th3v3gas/common/avr/suspend.o
suspend_wakeup_condition                          .build/obj_ut472_th3v3gas/common/avr/suspend.o
                                                  .build/obj_ut472_th3v3gas/lufa.o
suspend_wakeup_init                               .build/obj_ut472_th3v3gas/common/avr/suspend.o
                                                  .build/obj_ut472_th3v3gas/lufa.o
suspend_wakeup_init_kb                            .build/obj_ut472_th3v3gas/common/avr/suspend.o
suspend_wakeup_init_user                          .build/obj_ut472_th3v3gas/common/avr/suspend.o
tap_code                                          .build/obj_ut472_th3v3gas/common/action.o
                                                  .build/obj_ut472_th3v3gas/quantum/process_keycode/process_space_cadet.o
                                                  .build/obj_ut472_th3v3gas/quantum/process_keycode/process_unicode_common.o
                                                  .build/obj_ut472_th3v3gas/quantum/quantum.o
tap_code16                                        .build/obj_ut472_th3v3gas/quantum/quantum.o
                                                  .build/obj_ut472_th3v3gas/quantum/process_keycode/process_unicode_common.o
tap_dance_actions                                 .build/obj_ut472_th3v3gas/keyboards/ut472/keymaps/th3v3gas/keymap.o
                                                  .build/obj_ut472_th3v3gas/quantum/process_keycode/process_tap_dance.o
tap_random_base64                                 .build/obj_ut472_th3v3gas/quantum/quantum.o
tdgame_finished                                   .build/obj_ut472_th3v3gas/keyboards/ut472/keymaps/th3v3gas/keymap.o
tdgame_reset                                      .build/obj_ut472_th3v3gas/keyboards/ut472/keymaps/th3v3gas/keymap.o
timer_clear                                       .build/obj_ut472_th3v3gas/common/avr/timer.o
timer_count                                       .build/obj_ut472_th3v3gas/common/avr/timer.o
                                                  .build/obj_ut472_th3v3gas/common/avr/suspend.o
timer_elapsed                                     .build/obj_ut472_th3v3gas/common/avr/timer.o
                                                  .build/obj_ut472_th3v3gas/common/mousekey.o
                                                  .build/obj_ut472_th3v3gas/quantum/process_keycode/process_space_cadet.o
                                                  .build/obj_ut472_th3v3gas/quantum/process_keycode/process_tap_dance.o
                                                  .build/obj_ut472_th3v3gas/quantum/rgblight.o
                                                  .build/obj_ut472_th3v3gas/quantum/process_keycode/process_combo.o
                                                  .build/obj_ut472_th3v3gas/quantum/debounce/sym_g.o
timer_elapsed32                                   .build/obj_ut472_th3v3gas/common/avr/timer.o
timer_init                                        .build/obj_ut472_th3v3gas/common/avr/timer.o
                                                  .build/obj_ut472_th3v3gas/common/keyboard.o
timer_read                                        .build/obj_ut472_th3v3gas/common/avr/timer.o
                                                  .build/obj_ut472_th3v3gas/common/mousekey.o
                                                  .build/obj_ut472_th3v3gas/common/keyboard.o
                                                  .build/obj_ut472_th3v3gas/quantum/process_keycode/process_space_cadet.o
                                                  .build/obj_ut472_th3v3gas/quantum/process_keycode/process_tap_dance.o
                                                  .build/obj_ut472_th3v3gas/quantum/rgblight.o
                                                  .build/obj_ut472_th3v3gas/quantum/process_keycode/process_combo.o
                                                  .build/obj_ut472_th3v3gas/quantum/debounce/sym_g.o
timer_read32                                      .build/obj_ut472_th3v3gas/common/avr/timer.o
tolower                                           c:/users/nonej/documents/keyboard/msys64/home/nonej/qmk_utils/avr8-gnu-toolchain/bin/../lib/gcc/avr/8.3.0/../../../../avr/lib/avr35\libc.a(tolower.o)
                                                  .build/obj_ut472_th3v3gas/quantum/process_keycode/process_unicode_common.o
tp_buttons                                        .build/obj_ut472_th3v3gas/common/action.o
unicode_config                                    .build/obj_ut472_th3v3gas/quantum/process_keycode/process_unicode_common.o
unicode_input_cancel                              .build/obj_ut472_th3v3gas/quantum/process_keycode/process_unicode_common.o
unicode_input_finish                              .build/obj_ut472_th3v3gas/quantum/process_keycode/process_unicode_common.o
                                                  .build/obj_ut472_th3v3gas/quantum/process_keycode/process_unicode.o
unicode_input_mode_init                           .build/obj_ut472_th3v3gas/quantum/process_keycode/process_unicode_common.o
                                                  .build/obj_ut472_th3v3gas/quantum/quantum.o
unicode_input_start                               .build/obj_ut472_th3v3gas/quantum/process_keycode/process_unicode_common.o
                                                  .build/obj_ut472_th3v3gas/quantum/process_keycode/process_unicode.o
unicode_saved_mods                                .build/obj_ut472_th3v3gas/quantum/process_keycode/process_unicode_common.o
unregister_code                                   .build/obj_ut472_th3v3gas/common/action.o
                                                  .build/obj_ut472_th3v3gas/common/action_macro.o
                                                  .build/obj_ut472_th3v3gas/quantum/process_keycode/process_unicode_common.o
                                                  .build/obj_ut472_th3v3gas/quantum/quantum.o
unregister_code16                                 .build/obj_ut472_th3v3gas/quantum/quantum.o
                                                  .build/obj_ut472_th3v3gas/quantum/process_keycode/process_tap_dance.o
                                                  .build/obj_ut472_th3v3gas/quantum/process_keycode/process_combo.o
                                                  .build/obj_ut472_th3v3gas/keyboards/ut472/keymaps/th3v3gas/keymap.o
unregister_mods                                   .build/obj_ut472_th3v3gas/common/action.o
                                                  .build/obj_ut472_th3v3gas/quantum/process_keycode/process_space_cadet.o
                                                  .build/obj_ut472_th3v3gas/quantum/quantum.o
unregister_weak_mods                              .build/obj_ut472_th3v3gas/common/action.o
                                                  .build/obj_ut472_th3v3gas/quantum/quantum.o
update_source_layers_cache                        .build/obj_ut472_th3v3gas/common/action_layer.o
                                                  .build/obj_ut472_th3v3gas/quantum/quantum.o
update_tri_layer                                  .build/obj_ut472_th3v3gas/quantum/quantum.o
update_tri_layer_state                            .build/obj_ut472_th3v3gas/quantum/quantum.o
where_to_send                                     .build/obj_ut472_th3v3gas/outputselect.o
                                                  .build/obj_ut472_th3v3gas/lufa.o
ws2812_sendarray                                  .build/obj_ut472_th3v3gas/ws2812.o
ws2812_sendarray_mask                             .build/obj_ut472_th3v3gas/ws2812.o
ws2812_setleds                                    .build/obj_ut472_th3v3gas/ws2812.o
                                                  .build/obj_ut472_th3v3gas/quantum/rgblight.o
ws2812_setleds_pin                                .build/obj_ut472_th3v3gas/ws2812.o
xfunc_out                                         .build/obj_ut472_th3v3gas/common/avr/xprintf.o
xitoa                                             .build/obj_ut472_th3v3gas/common/avr/xprintf.o
xputc                                             .build/obj_ut472_th3v3gas/common/avr/xprintf.o
xputs                                             .build/obj_ut472_th3v3gas/common/avr/xprintf.o
