   1               		.file	"rgblight.c"
   2               	__SP_H__ = 0x3e
   3               	__SP_L__ = 0x3d
   4               	__SREG__ = 0x3f
   5               	__tmp_reg__ = 0
   6               	__zero_reg__ = 1
   7               		.text
   8               	.Ltext0:
   9               		.cfi_sections	.debug_frame
  10               		.section	.text.rgblight_effect_dummy,"ax",@progbits
  12               	rgblight_effect_dummy:
  13               	.LVL0:
  14               	.LFB161:
  15               		.file 1 "quantum/rgblight.c"
   1:quantum/rgblight.c **** /* Copyright 2016-2017 Yang Liu
   2:quantum/rgblight.c ****  *
   3:quantum/rgblight.c ****  * This program is free software: you can redistribute it and/or modify
   4:quantum/rgblight.c ****  * it under the terms of the GNU General Public License as published by
   5:quantum/rgblight.c ****  * the Free Software Foundation, either version 2 of the License, or
   6:quantum/rgblight.c ****  * (at your option) any later version.
   7:quantum/rgblight.c ****  *
   8:quantum/rgblight.c ****  * This program is distributed in the hope that it will be useful,
   9:quantum/rgblight.c ****  * but WITHOUT ANY WARRANTY; without even the implied warranty of
  10:quantum/rgblight.c ****  * MERCHANTABILITY or FITNESS FOR A PARTICULAR PURPOSE.  See the
  11:quantum/rgblight.c ****  * GNU General Public License for more details.
  12:quantum/rgblight.c ****  *
  13:quantum/rgblight.c ****  * You should have received a copy of the GNU General Public License
  14:quantum/rgblight.c ****  * along with this program.  If not, see <http://www.gnu.org/licenses/>.
  15:quantum/rgblight.c ****  */
  16:quantum/rgblight.c **** #include <math.h>
  17:quantum/rgblight.c **** #include <string.h>
  18:quantum/rgblight.c **** #ifdef __AVR__
  19:quantum/rgblight.c **** #    include <avr/eeprom.h>
  20:quantum/rgblight.c **** #    include <avr/interrupt.h>
  21:quantum/rgblight.c **** #endif
  22:quantum/rgblight.c **** #ifdef EEPROM_ENABLE
  23:quantum/rgblight.c **** #    include "eeprom.h"
  24:quantum/rgblight.c **** #endif
  25:quantum/rgblight.c **** #ifdef STM32_EEPROM_ENABLE
  26:quantum/rgblight.c **** #    include "hal.h"
  27:quantum/rgblight.c **** #    include "eeprom_stm32.h"
  28:quantum/rgblight.c **** #endif
  29:quantum/rgblight.c **** #include "wait.h"
  30:quantum/rgblight.c **** #include "progmem.h"
  31:quantum/rgblight.c **** #include "timer.h"
  32:quantum/rgblight.c **** #include "rgblight.h"
  33:quantum/rgblight.c **** #include "color.h"
  34:quantum/rgblight.c **** #include "debug.h"
  35:quantum/rgblight.c **** #include "led_tables.h"
  36:quantum/rgblight.c **** #include "lib/lib8tion/lib8tion.h"
  37:quantum/rgblight.c **** #ifdef VELOCIKEY_ENABLE
  38:quantum/rgblight.c **** #    include "velocikey.h"
  39:quantum/rgblight.c **** #endif
  40:quantum/rgblight.c **** 
  41:quantum/rgblight.c **** #ifdef RGBLIGHT_SPLIT
  42:quantum/rgblight.c **** /* for split keyboard */
  43:quantum/rgblight.c **** #    define RGBLIGHT_SPLIT_SET_CHANGE_MODE rgblight_status.change_flags |= RGBLIGHT_STATUS_CHANGE_M
  44:quantum/rgblight.c **** #    define RGBLIGHT_SPLIT_SET_CHANGE_HSVS rgblight_status.change_flags |= RGBLIGHT_STATUS_CHANGE_H
  45:quantum/rgblight.c **** #    define RGBLIGHT_SPLIT_SET_CHANGE_MODEHSVS rgblight_status.change_flags |= (RGBLIGHT_STATUS_CHA
  46:quantum/rgblight.c **** #    define RGBLIGHT_SPLIT_SET_CHANGE_TIMER_ENABLE rgblight_status.change_flags |= RGBLIGHT_STATUS_
  47:quantum/rgblight.c **** #    define RGBLIGHT_SPLIT_ANIMATION_TICK rgblight_status.change_flags |= RGBLIGHT_STATUS_ANIMATION
  48:quantum/rgblight.c **** #else
  49:quantum/rgblight.c **** #    define RGBLIGHT_SPLIT_SET_CHANGE_MODE
  50:quantum/rgblight.c **** #    define RGBLIGHT_SPLIT_SET_CHANGE_HSVS
  51:quantum/rgblight.c **** #    define RGBLIGHT_SPLIT_SET_CHANGE_MODEHSVS
  52:quantum/rgblight.c **** #    define RGBLIGHT_SPLIT_SET_CHANGE_TIMER_ENABLE
  53:quantum/rgblight.c **** #    define RGBLIGHT_SPLIT_ANIMATION_TICK
  54:quantum/rgblight.c **** #endif
  55:quantum/rgblight.c **** 
  56:quantum/rgblight.c **** #define _RGBM_SINGLE_STATIC(sym) RGBLIGHT_MODE_##sym,
  57:quantum/rgblight.c **** #define _RGBM_SINGLE_DYNAMIC(sym)
  58:quantum/rgblight.c **** #define _RGBM_MULTI_STATIC(sym) RGBLIGHT_MODE_##sym,
  59:quantum/rgblight.c **** #define _RGBM_MULTI_DYNAMIC(sym)
  60:quantum/rgblight.c **** #define _RGBM_TMP_STATIC(sym, msym) RGBLIGHT_MODE_##sym,
  61:quantum/rgblight.c **** #define _RGBM_TMP_DYNAMIC(sym, msym)
  62:quantum/rgblight.c **** static uint8_t static_effect_table[] = {
  63:quantum/rgblight.c **** #include "rgblight_modes.h"
  64:quantum/rgblight.c **** };
  65:quantum/rgblight.c **** 
  66:quantum/rgblight.c **** #define _RGBM_SINGLE_STATIC(sym) RGBLIGHT_MODE_##sym,
  67:quantum/rgblight.c **** #define _RGBM_SINGLE_DYNAMIC(sym) RGBLIGHT_MODE_##sym,
  68:quantum/rgblight.c **** #define _RGBM_MULTI_STATIC(sym) RGBLIGHT_MODE_##sym,
  69:quantum/rgblight.c **** #define _RGBM_MULTI_DYNAMIC(sym) RGBLIGHT_MODE_##sym,
  70:quantum/rgblight.c **** #define _RGBM_TMP_STATIC(sym, msym) RGBLIGHT_MODE_##msym,
  71:quantum/rgblight.c **** #define _RGBM_TMP_DYNAMIC(sym, msym) RGBLIGHT_MODE_##msym,
  72:quantum/rgblight.c **** static uint8_t mode_base_table[] = {
  73:quantum/rgblight.c ****     0,  // RGBLIGHT_MODE_zero
  74:quantum/rgblight.c **** #include "rgblight_modes.h"
  75:quantum/rgblight.c **** };
  76:quantum/rgblight.c **** 
  77:quantum/rgblight.c **** static inline int is_static_effect(uint8_t mode) { return memchr(static_effect_table, mode, sizeof(
  78:quantum/rgblight.c **** 
  79:quantum/rgblight.c **** #ifdef RGBLIGHT_LED_MAP
  80:quantum/rgblight.c **** const uint8_t led_map[] PROGMEM = RGBLIGHT_LED_MAP;
  81:quantum/rgblight.c **** #endif
  82:quantum/rgblight.c **** 
  83:quantum/rgblight.c **** #ifdef RGBLIGHT_EFFECT_STATIC_GRADIENT
  84:quantum/rgblight.c **** __attribute__((weak)) const uint8_t RGBLED_GRADIENT_RANGES[] PROGMEM = {255, 170, 127, 85, 64};
  85:quantum/rgblight.c **** #endif
  86:quantum/rgblight.c **** 
  87:quantum/rgblight.c **** rgblight_config_t rgblight_config;
  88:quantum/rgblight.c **** rgblight_status_t rgblight_status         = {.timer_enabled = false};
  89:quantum/rgblight.c **** bool              is_rgblight_initialized = false;
  90:quantum/rgblight.c **** 
  91:quantum/rgblight.c **** #ifdef RGBLIGHT_USE_TIMER
  92:quantum/rgblight.c **** animation_status_t animation_status = {};
  93:quantum/rgblight.c **** #endif
  94:quantum/rgblight.c **** 
  95:quantum/rgblight.c **** #ifndef LED_ARRAY
  96:quantum/rgblight.c **** LED_TYPE led[RGBLED_NUM];
  97:quantum/rgblight.c **** #    define LED_ARRAY led
  98:quantum/rgblight.c **** #endif
  99:quantum/rgblight.c **** 
 100:quantum/rgblight.c **** static uint8_t clipping_start_pos = 0;
 101:quantum/rgblight.c **** static uint8_t clipping_num_leds  = RGBLED_NUM;
 102:quantum/rgblight.c **** static uint8_t effect_start_pos   = 0;
 103:quantum/rgblight.c **** static uint8_t effect_end_pos     = RGBLED_NUM;
 104:quantum/rgblight.c **** static uint8_t effect_num_leds    = RGBLED_NUM;
 105:quantum/rgblight.c **** 
 106:quantum/rgblight.c **** void rgblight_set_clipping_range(uint8_t start_pos, uint8_t num_leds) {
 107:quantum/rgblight.c ****     clipping_start_pos = start_pos;
 108:quantum/rgblight.c ****     clipping_num_leds  = num_leds;
 109:quantum/rgblight.c **** }
 110:quantum/rgblight.c **** 
 111:quantum/rgblight.c **** void rgblight_set_effect_range(uint8_t start_pos, uint8_t num_leds) {
 112:quantum/rgblight.c ****     if (start_pos >= RGBLED_NUM) return;
 113:quantum/rgblight.c ****     if (start_pos + num_leds > RGBLED_NUM) return;
 114:quantum/rgblight.c ****     effect_start_pos = start_pos;
 115:quantum/rgblight.c ****     effect_end_pos   = start_pos + num_leds;
 116:quantum/rgblight.c ****     effect_num_leds  = num_leds;
 117:quantum/rgblight.c **** }
 118:quantum/rgblight.c **** 
 119:quantum/rgblight.c **** void sethsv_raw(uint8_t hue, uint8_t sat, uint8_t val, LED_TYPE *led1) {
 120:quantum/rgblight.c ****     HSV hsv = {hue, sat, val};
 121:quantum/rgblight.c ****     RGB rgb = hsv_to_rgb(hsv);
 122:quantum/rgblight.c ****     setrgb(rgb.r, rgb.g, rgb.b, led1);
 123:quantum/rgblight.c **** }
 124:quantum/rgblight.c **** 
 125:quantum/rgblight.c **** void sethsv(uint8_t hue, uint8_t sat, uint8_t val, LED_TYPE *led1) { sethsv_raw(hue, sat, val > RGB
 126:quantum/rgblight.c **** 
 127:quantum/rgblight.c **** void setrgb(uint8_t r, uint8_t g, uint8_t b, LED_TYPE *led1) {
 128:quantum/rgblight.c ****     (*led1).r = r;
 129:quantum/rgblight.c ****     (*led1).g = g;
 130:quantum/rgblight.c ****     (*led1).b = b;
 131:quantum/rgblight.c **** #ifdef RGBW
 132:quantum/rgblight.c ****     (*led1).w = 0;
 133:quantum/rgblight.c **** #endif
 134:quantum/rgblight.c **** }
 135:quantum/rgblight.c **** 
 136:quantum/rgblight.c **** void rgblight_check_config(void) {
 137:quantum/rgblight.c ****     /* Add some out of bound checks for RGB light config */
 138:quantum/rgblight.c **** 
 139:quantum/rgblight.c ****     if (rgblight_config.mode < RGBLIGHT_MODE_STATIC_LIGHT) {
 140:quantum/rgblight.c ****         rgblight_config.mode = RGBLIGHT_MODE_STATIC_LIGHT;
 141:quantum/rgblight.c ****     } else if (rgblight_config.mode > RGBLIGHT_MODES) {
 142:quantum/rgblight.c ****         rgblight_config.mode = RGBLIGHT_MODES;
 143:quantum/rgblight.c ****     }
 144:quantum/rgblight.c **** 
 145:quantum/rgblight.c ****     if (rgblight_config.val > RGBLIGHT_LIMIT_VAL) {
 146:quantum/rgblight.c ****         rgblight_config.val = RGBLIGHT_LIMIT_VAL;
 147:quantum/rgblight.c ****     }
 148:quantum/rgblight.c **** }
 149:quantum/rgblight.c **** 
 150:quantum/rgblight.c **** uint32_t eeconfig_read_rgblight(void) {
 151:quantum/rgblight.c **** #ifdef EEPROM_ENABLE
 152:quantum/rgblight.c ****     return eeprom_read_dword(EECONFIG_RGBLIGHT);
 153:quantum/rgblight.c **** #else
 154:quantum/rgblight.c ****     return 0;
 155:quantum/rgblight.c **** #endif
 156:quantum/rgblight.c **** }
 157:quantum/rgblight.c **** 
 158:quantum/rgblight.c **** void eeconfig_update_rgblight(uint32_t val) {
 159:quantum/rgblight.c **** #ifdef EEPROM_ENABLE
 160:quantum/rgblight.c ****     rgblight_check_config();
 161:quantum/rgblight.c ****     eeprom_update_dword(EECONFIG_RGBLIGHT, val);
 162:quantum/rgblight.c **** #endif
 163:quantum/rgblight.c **** }
 164:quantum/rgblight.c **** 
 165:quantum/rgblight.c **** void eeconfig_update_rgblight_current(void) { eeconfig_update_rgblight(rgblight_config.raw); }
 166:quantum/rgblight.c **** 
 167:quantum/rgblight.c **** void eeconfig_update_rgblight_default(void) {
 168:quantum/rgblight.c ****     rgblight_config.enable = 1;
 169:quantum/rgblight.c ****     rgblight_config.mode   = RGBLIGHT_MODE_STATIC_LIGHT;
 170:quantum/rgblight.c ****     rgblight_config.hue    = 0;
 171:quantum/rgblight.c ****     rgblight_config.sat    = UINT8_MAX;
 172:quantum/rgblight.c ****     rgblight_config.val    = RGBLIGHT_LIMIT_VAL;
 173:quantum/rgblight.c ****     rgblight_config.speed  = 0;
 174:quantum/rgblight.c ****     RGBLIGHT_SPLIT_SET_CHANGE_MODEHSVS;
 175:quantum/rgblight.c ****     eeconfig_update_rgblight(rgblight_config.raw);
 176:quantum/rgblight.c **** }
 177:quantum/rgblight.c **** 
 178:quantum/rgblight.c **** void eeconfig_debug_rgblight(void) {
 179:quantum/rgblight.c ****     dprintf("rgblight_config EEPROM:\n");
 180:quantum/rgblight.c ****     dprintf("rgblight_config.enable = %d\n", rgblight_config.enable);
 181:quantum/rgblight.c ****     dprintf("rghlight_config.mode = %d\n", rgblight_config.mode);
 182:quantum/rgblight.c ****     dprintf("rgblight_config.hue = %d\n", rgblight_config.hue);
 183:quantum/rgblight.c ****     dprintf("rgblight_config.sat = %d\n", rgblight_config.sat);
 184:quantum/rgblight.c ****     dprintf("rgblight_config.val = %d\n", rgblight_config.val);
 185:quantum/rgblight.c ****     dprintf("rgblight_config.speed = %d\n", rgblight_config.speed);
 186:quantum/rgblight.c **** }
 187:quantum/rgblight.c **** 
 188:quantum/rgblight.c **** void rgblight_init(void) {
 189:quantum/rgblight.c ****     /* if already initialized, don't do it again.
 190:quantum/rgblight.c ****        If you must do it again, extern this and set to false, first.
 191:quantum/rgblight.c ****        This is a dirty, dirty hack until proper hooks can be added for keyboard startup. */
 192:quantum/rgblight.c ****     if (is_rgblight_initialized) {
 193:quantum/rgblight.c ****         return;
 194:quantum/rgblight.c ****     }
 195:quantum/rgblight.c **** 
 196:quantum/rgblight.c ****     dprintf("rgblight_init called.\n");
 197:quantum/rgblight.c ****     dprintf("rgblight_init start!\n");
 198:quantum/rgblight.c ****     if (!eeconfig_is_enabled()) {
 199:quantum/rgblight.c ****         dprintf("rgblight_init eeconfig is not enabled.\n");
 200:quantum/rgblight.c ****         eeconfig_init();
 201:quantum/rgblight.c ****         eeconfig_update_rgblight_default();
 202:quantum/rgblight.c ****     }
 203:quantum/rgblight.c ****     rgblight_config.raw = eeconfig_read_rgblight();
 204:quantum/rgblight.c ****     RGBLIGHT_SPLIT_SET_CHANGE_MODEHSVS;
 205:quantum/rgblight.c ****     if (!rgblight_config.mode) {
 206:quantum/rgblight.c ****         dprintf("rgblight_init rgblight_config.mode = 0. Write default values to EEPROM.\n");
 207:quantum/rgblight.c ****         eeconfig_update_rgblight_default();
 208:quantum/rgblight.c ****         rgblight_config.raw = eeconfig_read_rgblight();
 209:quantum/rgblight.c ****     }
 210:quantum/rgblight.c ****     rgblight_check_config();
 211:quantum/rgblight.c **** 
 212:quantum/rgblight.c ****     eeconfig_debug_rgblight();  // display current eeprom values
 213:quantum/rgblight.c **** 
 214:quantum/rgblight.c **** #ifdef RGBLIGHT_USE_TIMER
 215:quantum/rgblight.c ****     rgblight_timer_init();  // setup the timer
 216:quantum/rgblight.c **** #endif
 217:quantum/rgblight.c **** 
 218:quantum/rgblight.c ****     if (rgblight_config.enable) {
 219:quantum/rgblight.c ****         rgblight_mode_noeeprom(rgblight_config.mode);
 220:quantum/rgblight.c ****     }
 221:quantum/rgblight.c **** 
 222:quantum/rgblight.c ****     is_rgblight_initialized = true;
 223:quantum/rgblight.c **** }
 224:quantum/rgblight.c **** 
 225:quantum/rgblight.c **** uint32_t rgblight_read_dword(void) { return rgblight_config.raw; }
 226:quantum/rgblight.c **** 
 227:quantum/rgblight.c **** void rgblight_update_dword(uint32_t dword) {
 228:quantum/rgblight.c ****     RGBLIGHT_SPLIT_SET_CHANGE_MODEHSVS;
 229:quantum/rgblight.c ****     rgblight_config.raw = dword;
 230:quantum/rgblight.c ****     if (rgblight_config.enable)
 231:quantum/rgblight.c ****         rgblight_mode_noeeprom(rgblight_config.mode);
 232:quantum/rgblight.c ****     else {
 233:quantum/rgblight.c **** #ifdef RGBLIGHT_USE_TIMER
 234:quantum/rgblight.c ****         rgblight_timer_disable();
 235:quantum/rgblight.c **** #endif
 236:quantum/rgblight.c ****         rgblight_set();
 237:quantum/rgblight.c ****     }
 238:quantum/rgblight.c **** }
 239:quantum/rgblight.c **** 
 240:quantum/rgblight.c **** void rgblight_increase(void) {
 241:quantum/rgblight.c ****     uint8_t mode = 0;
 242:quantum/rgblight.c ****     if (rgblight_config.mode < RGBLIGHT_MODES) {
 243:quantum/rgblight.c ****         mode = rgblight_config.mode + 1;
 244:quantum/rgblight.c ****     }
 245:quantum/rgblight.c ****     rgblight_mode(mode);
 246:quantum/rgblight.c **** }
 247:quantum/rgblight.c **** void rgblight_decrease(void) {
 248:quantum/rgblight.c ****     uint8_t mode = 0;
 249:quantum/rgblight.c ****     // Mode will never be < 1. If it ever is, eeprom needs to be initialized.
 250:quantum/rgblight.c ****     if (rgblight_config.mode > RGBLIGHT_MODE_STATIC_LIGHT) {
 251:quantum/rgblight.c ****         mode = rgblight_config.mode - 1;
 252:quantum/rgblight.c ****     }
 253:quantum/rgblight.c ****     rgblight_mode(mode);
 254:quantum/rgblight.c **** }
 255:quantum/rgblight.c **** void rgblight_step_helper(bool write_to_eeprom) {
 256:quantum/rgblight.c ****     uint8_t mode = 0;
 257:quantum/rgblight.c ****     mode         = rgblight_config.mode + 1;
 258:quantum/rgblight.c ****     if (mode > RGBLIGHT_MODES) {
 259:quantum/rgblight.c ****         mode = 1;
 260:quantum/rgblight.c ****     }
 261:quantum/rgblight.c ****     rgblight_mode_eeprom_helper(mode, write_to_eeprom);
 262:quantum/rgblight.c **** }
 263:quantum/rgblight.c **** void rgblight_step_noeeprom(void) { rgblight_step_helper(false); }
 264:quantum/rgblight.c **** void rgblight_step(void) { rgblight_step_helper(true); }
 265:quantum/rgblight.c **** void rgblight_step_reverse_helper(bool write_to_eeprom) {
 266:quantum/rgblight.c ****     uint8_t mode = 0;
 267:quantum/rgblight.c ****     mode         = rgblight_config.mode - 1;
 268:quantum/rgblight.c ****     if (mode < 1) {
 269:quantum/rgblight.c ****         mode = RGBLIGHT_MODES;
 270:quantum/rgblight.c ****     }
 271:quantum/rgblight.c ****     rgblight_mode_eeprom_helper(mode, write_to_eeprom);
 272:quantum/rgblight.c **** }
 273:quantum/rgblight.c **** void rgblight_step_reverse_noeeprom(void) { rgblight_step_reverse_helper(false); }
 274:quantum/rgblight.c **** void rgblight_step_reverse(void) { rgblight_step_reverse_helper(true); }
 275:quantum/rgblight.c **** 
 276:quantum/rgblight.c **** uint8_t rgblight_get_mode(void) {
 277:quantum/rgblight.c ****     if (!rgblight_config.enable) {
 278:quantum/rgblight.c ****         return false;
 279:quantum/rgblight.c ****     }
 280:quantum/rgblight.c **** 
 281:quantum/rgblight.c ****     return rgblight_config.mode;
 282:quantum/rgblight.c **** }
 283:quantum/rgblight.c **** 
 284:quantum/rgblight.c **** void rgblight_mode_eeprom_helper(uint8_t mode, bool write_to_eeprom) {
 285:quantum/rgblight.c ****     if (!rgblight_config.enable) {
 286:quantum/rgblight.c ****         return;
 287:quantum/rgblight.c ****     }
 288:quantum/rgblight.c ****     if (mode < RGBLIGHT_MODE_STATIC_LIGHT) {
 289:quantum/rgblight.c ****         rgblight_config.mode = RGBLIGHT_MODE_STATIC_LIGHT;
 290:quantum/rgblight.c ****     } else if (mode > RGBLIGHT_MODES) {
 291:quantum/rgblight.c ****         rgblight_config.mode = RGBLIGHT_MODES;
 292:quantum/rgblight.c ****     } else {
 293:quantum/rgblight.c ****         rgblight_config.mode = mode;
 294:quantum/rgblight.c ****     }
 295:quantum/rgblight.c ****     RGBLIGHT_SPLIT_SET_CHANGE_MODE;
 296:quantum/rgblight.c ****     if (write_to_eeprom) {
 297:quantum/rgblight.c ****         eeconfig_update_rgblight(rgblight_config.raw);
 298:quantum/rgblight.c ****         dprintf("rgblight mode [EEPROM]: %u\n", rgblight_config.mode);
 299:quantum/rgblight.c ****     } else {
 300:quantum/rgblight.c ****         dprintf("rgblight mode [NOEEPROM]: %u\n", rgblight_config.mode);
 301:quantum/rgblight.c ****     }
 302:quantum/rgblight.c ****     if (is_static_effect(rgblight_config.mode)) {
 303:quantum/rgblight.c **** #ifdef RGBLIGHT_USE_TIMER
 304:quantum/rgblight.c ****         rgblight_timer_disable();
 305:quantum/rgblight.c **** #endif
 306:quantum/rgblight.c ****     } else {
 307:quantum/rgblight.c **** #ifdef RGBLIGHT_USE_TIMER
 308:quantum/rgblight.c ****         rgblight_timer_enable();
 309:quantum/rgblight.c **** #endif
 310:quantum/rgblight.c ****     }
 311:quantum/rgblight.c **** #ifdef RGBLIGHT_USE_TIMER
 312:quantum/rgblight.c ****     animation_status.restart = true;
 313:quantum/rgblight.c **** #endif
 314:quantum/rgblight.c ****     rgblight_sethsv_noeeprom(rgblight_config.hue, rgblight_config.sat, rgblight_config.val);
 315:quantum/rgblight.c **** }
 316:quantum/rgblight.c **** 
 317:quantum/rgblight.c **** void rgblight_mode(uint8_t mode) { rgblight_mode_eeprom_helper(mode, true); }
 318:quantum/rgblight.c **** 
 319:quantum/rgblight.c **** void rgblight_mode_noeeprom(uint8_t mode) { rgblight_mode_eeprom_helper(mode, false); }
 320:quantum/rgblight.c **** 
 321:quantum/rgblight.c **** void rgblight_toggle(void) {
 322:quantum/rgblight.c ****     dprintf("rgblight toggle [EEPROM]: rgblight_config.enable = %u\n", !rgblight_config.enable);
 323:quantum/rgblight.c ****     if (rgblight_config.enable) {
 324:quantum/rgblight.c ****         rgblight_disable();
 325:quantum/rgblight.c ****     } else {
 326:quantum/rgblight.c ****         rgblight_enable();
 327:quantum/rgblight.c ****     }
 328:quantum/rgblight.c **** }
 329:quantum/rgblight.c **** 
 330:quantum/rgblight.c **** void rgblight_toggle_noeeprom(void) {
 331:quantum/rgblight.c ****     dprintf("rgblight toggle [NOEEPROM]: rgblight_config.enable = %u\n", !rgblight_config.enable);
 332:quantum/rgblight.c ****     if (rgblight_config.enable) {
 333:quantum/rgblight.c ****         rgblight_disable_noeeprom();
 334:quantum/rgblight.c ****     } else {
 335:quantum/rgblight.c ****         rgblight_enable_noeeprom();
 336:quantum/rgblight.c ****     }
 337:quantum/rgblight.c **** }
 338:quantum/rgblight.c **** 
 339:quantum/rgblight.c **** void rgblight_enable(void) {
 340:quantum/rgblight.c ****     rgblight_config.enable = 1;
 341:quantum/rgblight.c ****     // No need to update EEPROM here. rgblight_mode() will do that, actually
 342:quantum/rgblight.c ****     // eeconfig_update_rgblight(rgblight_config.raw);
 343:quantum/rgblight.c ****     dprintf("rgblight enable [EEPROM]: rgblight_config.enable = %u\n", rgblight_config.enable);
 344:quantum/rgblight.c ****     rgblight_mode(rgblight_config.mode);
 345:quantum/rgblight.c **** }
 346:quantum/rgblight.c **** 
 347:quantum/rgblight.c **** void rgblight_enable_noeeprom(void) {
 348:quantum/rgblight.c ****     rgblight_config.enable = 1;
 349:quantum/rgblight.c ****     dprintf("rgblight enable [NOEEPROM]: rgblight_config.enable = %u\n", rgblight_config.enable);
 350:quantum/rgblight.c ****     rgblight_mode_noeeprom(rgblight_config.mode);
 351:quantum/rgblight.c **** }
 352:quantum/rgblight.c **** 
 353:quantum/rgblight.c **** void rgblight_disable(void) {
 354:quantum/rgblight.c ****     rgblight_config.enable = 0;
 355:quantum/rgblight.c ****     eeconfig_update_rgblight(rgblight_config.raw);
 356:quantum/rgblight.c ****     dprintf("rgblight disable [EEPROM]: rgblight_config.enable = %u\n", rgblight_config.enable);
 357:quantum/rgblight.c **** #ifdef RGBLIGHT_USE_TIMER
 358:quantum/rgblight.c ****     rgblight_timer_disable();
 359:quantum/rgblight.c **** #endif
 360:quantum/rgblight.c ****     RGBLIGHT_SPLIT_SET_CHANGE_MODE;
 361:quantum/rgblight.c ****     wait_ms(50);
 362:quantum/rgblight.c ****     rgblight_set();
 363:quantum/rgblight.c **** }
 364:quantum/rgblight.c **** 
 365:quantum/rgblight.c **** void rgblight_disable_noeeprom(void) {
 366:quantum/rgblight.c ****     rgblight_config.enable = 0;
 367:quantum/rgblight.c ****     dprintf("rgblight disable [NOEEPROM]: rgblight_config.enable = %u\n", rgblight_config.enable);
 368:quantum/rgblight.c **** #ifdef RGBLIGHT_USE_TIMER
 369:quantum/rgblight.c ****     rgblight_timer_disable();
 370:quantum/rgblight.c **** #endif
 371:quantum/rgblight.c ****     RGBLIGHT_SPLIT_SET_CHANGE_MODE;
 372:quantum/rgblight.c ****     wait_ms(50);
 373:quantum/rgblight.c ****     rgblight_set();
 374:quantum/rgblight.c **** }
 375:quantum/rgblight.c **** 
 376:quantum/rgblight.c **** void rgblight_increase_hue_helper(bool write_to_eeprom) {
 377:quantum/rgblight.c ****     uint8_t hue = rgblight_config.hue + RGBLIGHT_HUE_STEP;
 378:quantum/rgblight.c ****     rgblight_sethsv_eeprom_helper(hue, rgblight_config.sat, rgblight_config.val, write_to_eeprom);
 379:quantum/rgblight.c **** }
 380:quantum/rgblight.c **** void rgblight_increase_hue_noeeprom(void) { rgblight_increase_hue_helper(false); }
 381:quantum/rgblight.c **** void rgblight_increase_hue(void) { rgblight_increase_hue_helper(true); }
 382:quantum/rgblight.c **** void rgblight_decrease_hue_helper(bool write_to_eeprom) {
 383:quantum/rgblight.c ****     uint8_t hue = rgblight_config.hue - RGBLIGHT_HUE_STEP;
 384:quantum/rgblight.c ****     rgblight_sethsv_eeprom_helper(hue, rgblight_config.sat, rgblight_config.val, write_to_eeprom);
 385:quantum/rgblight.c **** }
 386:quantum/rgblight.c **** void rgblight_decrease_hue_noeeprom(void) { rgblight_decrease_hue_helper(false); }
 387:quantum/rgblight.c **** void rgblight_decrease_hue(void) { rgblight_decrease_hue_helper(true); }
 388:quantum/rgblight.c **** void rgblight_increase_sat_helper(bool write_to_eeprom) {
 389:quantum/rgblight.c ****     uint8_t sat = qadd8(rgblight_config.sat, RGBLIGHT_SAT_STEP);
 390:quantum/rgblight.c ****     rgblight_sethsv_eeprom_helper(rgblight_config.hue, sat, rgblight_config.val, write_to_eeprom);
 391:quantum/rgblight.c **** }
 392:quantum/rgblight.c **** void rgblight_increase_sat_noeeprom(void) { rgblight_increase_sat_helper(false); }
 393:quantum/rgblight.c **** void rgblight_increase_sat(void) { rgblight_increase_sat_helper(true); }
 394:quantum/rgblight.c **** void rgblight_decrease_sat_helper(bool write_to_eeprom) {
 395:quantum/rgblight.c ****     uint8_t sat = qsub8(rgblight_config.sat, RGBLIGHT_SAT_STEP);
 396:quantum/rgblight.c ****     rgblight_sethsv_eeprom_helper(rgblight_config.hue, sat, rgblight_config.val, write_to_eeprom);
 397:quantum/rgblight.c **** }
 398:quantum/rgblight.c **** void rgblight_decrease_sat_noeeprom(void) { rgblight_decrease_sat_helper(false); }
 399:quantum/rgblight.c **** void rgblight_decrease_sat(void) { rgblight_decrease_sat_helper(true); }
 400:quantum/rgblight.c **** void rgblight_increase_val_helper(bool write_to_eeprom) {
 401:quantum/rgblight.c ****     uint8_t val = qadd8(rgblight_config.val, RGBLIGHT_VAL_STEP);
 402:quantum/rgblight.c ****     rgblight_sethsv_eeprom_helper(rgblight_config.hue, rgblight_config.sat, val, write_to_eeprom);
 403:quantum/rgblight.c **** }
 404:quantum/rgblight.c **** void rgblight_increase_val_noeeprom(void) { rgblight_increase_val_helper(false); }
 405:quantum/rgblight.c **** void rgblight_increase_val(void) { rgblight_increase_val_helper(true); }
 406:quantum/rgblight.c **** void rgblight_decrease_val_helper(bool write_to_eeprom) {
 407:quantum/rgblight.c ****     uint8_t val = qsub8(rgblight_config.val, RGBLIGHT_VAL_STEP);
 408:quantum/rgblight.c ****     rgblight_sethsv_eeprom_helper(rgblight_config.hue, rgblight_config.sat, val, write_to_eeprom);
 409:quantum/rgblight.c **** }
 410:quantum/rgblight.c **** void rgblight_decrease_val_noeeprom(void) { rgblight_decrease_val_helper(false); }
 411:quantum/rgblight.c **** void rgblight_decrease_val(void) { rgblight_decrease_val_helper(true); }
 412:quantum/rgblight.c **** void rgblight_increase_speed(void) {
 413:quantum/rgblight.c ****     if (rgblight_config.speed < 3) rgblight_config.speed++;
 414:quantum/rgblight.c ****     // RGBLIGHT_SPLIT_SET_CHANGE_HSVS; // NEED?
 415:quantum/rgblight.c ****     eeconfig_update_rgblight(rgblight_config.raw);  // EECONFIG needs to be increased to support th
 416:quantum/rgblight.c **** }
 417:quantum/rgblight.c **** 
 418:quantum/rgblight.c **** void rgblight_decrease_speed(void) {
 419:quantum/rgblight.c ****     if (rgblight_config.speed > 0) rgblight_config.speed--;
 420:quantum/rgblight.c ****     // RGBLIGHT_SPLIT_SET_CHANGE_HSVS; // NEED??
 421:quantum/rgblight.c ****     eeconfig_update_rgblight(rgblight_config.raw);  // EECONFIG needs to be increased to support th
 422:quantum/rgblight.c **** }
 423:quantum/rgblight.c **** 
 424:quantum/rgblight.c **** void rgblight_sethsv_noeeprom_old(uint8_t hue, uint8_t sat, uint8_t val) {
 425:quantum/rgblight.c ****     if (rgblight_config.enable) {
 426:quantum/rgblight.c ****         LED_TYPE tmp_led;
 427:quantum/rgblight.c ****         sethsv(hue, sat, val, &tmp_led);
 428:quantum/rgblight.c ****         rgblight_setrgb(tmp_led.r, tmp_led.g, tmp_led.b);
 429:quantum/rgblight.c ****     }
 430:quantum/rgblight.c **** }
 431:quantum/rgblight.c **** 
 432:quantum/rgblight.c **** void rgblight_sethsv_eeprom_helper(uint8_t hue, uint8_t sat, uint8_t val, bool write_to_eeprom) {
 433:quantum/rgblight.c ****     if (rgblight_config.enable) {
 434:quantum/rgblight.c ****         rgblight_status.base_mode = mode_base_table[rgblight_config.mode];
 435:quantum/rgblight.c ****         if (rgblight_config.mode == RGBLIGHT_MODE_STATIC_LIGHT) {
 436:quantum/rgblight.c ****             // same static color
 437:quantum/rgblight.c ****             LED_TYPE tmp_led;
 438:quantum/rgblight.c ****             sethsv(hue, sat, val, &tmp_led);
 439:quantum/rgblight.c ****             rgblight_setrgb(tmp_led.r, tmp_led.g, tmp_led.b);
 440:quantum/rgblight.c ****         } else {
 441:quantum/rgblight.c ****             // all LEDs in same color
 442:quantum/rgblight.c ****             if (1 == 0) {  // dummy
 443:quantum/rgblight.c ****             }
 444:quantum/rgblight.c **** #ifdef RGBLIGHT_EFFECT_BREATHING
 445:quantum/rgblight.c ****             else if (rgblight_status.base_mode == RGBLIGHT_MODE_BREATHING) {
 446:quantum/rgblight.c ****                 // breathing mode, ignore the change of val, use in memory value instead
 447:quantum/rgblight.c ****                 val = rgblight_config.val;
 448:quantum/rgblight.c ****             }
 449:quantum/rgblight.c **** #endif
 450:quantum/rgblight.c **** #ifdef RGBLIGHT_EFFECT_RAINBOW_MOOD
 451:quantum/rgblight.c ****             else if (rgblight_status.base_mode == RGBLIGHT_MODE_RAINBOW_MOOD) {
 452:quantum/rgblight.c ****                 // rainbow mood, ignore the change of hue
 453:quantum/rgblight.c ****                 hue = rgblight_config.hue;
 454:quantum/rgblight.c ****             }
 455:quantum/rgblight.c **** #endif
 456:quantum/rgblight.c **** #ifdef RGBLIGHT_EFFECT_RAINBOW_SWIRL
 457:quantum/rgblight.c ****             else if (rgblight_status.base_mode == RGBLIGHT_MODE_RAINBOW_SWIRL) {
 458:quantum/rgblight.c ****                 // rainbow swirl, ignore the change of hue
 459:quantum/rgblight.c ****                 hue = rgblight_config.hue;
 460:quantum/rgblight.c ****             }
 461:quantum/rgblight.c **** #endif
 462:quantum/rgblight.c **** #ifdef RGBLIGHT_EFFECT_STATIC_GRADIENT
 463:quantum/rgblight.c ****             else if (rgblight_status.base_mode == RGBLIGHT_MODE_STATIC_GRADIENT) {
 464:quantum/rgblight.c ****                 // static gradient
 465:quantum/rgblight.c ****                 uint8_t delta     = rgblight_config.mode - rgblight_status.base_mode;
 466:quantum/rgblight.c ****                 bool    direction = (delta % 2) == 0;
 467:quantum/rgblight.c **** #    ifdef __AVR__
 468:quantum/rgblight.c ****                 // probably due to how pgm_read_word is defined for ARM, but the ARM compiler reall
 469:quantum/rgblight.c ****                 uint8_t range = pgm_read_word(&RGBLED_GRADIENT_RANGES[delta / 2]);
 470:quantum/rgblight.c **** #    else
 471:quantum/rgblight.c ****                 uint8_t range = RGBLED_GRADIENT_RANGES[delta / 2];
 472:quantum/rgblight.c **** #    endif
 473:quantum/rgblight.c ****                 for (uint8_t i = 0; i < effect_num_leds; i++) {
 474:quantum/rgblight.c ****                     uint8_t _hue = ((uint16_t)i * (uint16_t)range) / effect_num_leds;
 475:quantum/rgblight.c ****                     if (direction) {
 476:quantum/rgblight.c ****                         _hue = hue + _hue;
 477:quantum/rgblight.c ****                     } else {
 478:quantum/rgblight.c ****                         _hue = hue - _hue;
 479:quantum/rgblight.c ****                     }
 480:quantum/rgblight.c ****                     dprintf("rgblight rainbow set hsv: %d,%d,%d,%u\n", i, _hue, direction, range);
 481:quantum/rgblight.c ****                     sethsv(_hue, sat, val, (LED_TYPE *)&led[i + effect_start_pos]);
 482:quantum/rgblight.c ****                 }
 483:quantum/rgblight.c ****                 rgblight_set();
 484:quantum/rgblight.c ****             }
 485:quantum/rgblight.c **** #endif
 486:quantum/rgblight.c ****         }
 487:quantum/rgblight.c **** #ifdef RGBLIGHT_SPLIT
 488:quantum/rgblight.c ****         if (rgblight_config.hue != hue || rgblight_config.sat != sat || rgblight_config.val != val)
 489:quantum/rgblight.c ****             RGBLIGHT_SPLIT_SET_CHANGE_HSVS;
 490:quantum/rgblight.c ****         }
 491:quantum/rgblight.c **** #endif
 492:quantum/rgblight.c ****         rgblight_config.hue = hue;
 493:quantum/rgblight.c ****         rgblight_config.sat = sat;
 494:quantum/rgblight.c ****         rgblight_config.val = val;
 495:quantum/rgblight.c ****         if (write_to_eeprom) {
 496:quantum/rgblight.c ****             eeconfig_update_rgblight(rgblight_config.raw);
 497:quantum/rgblight.c ****             dprintf("rgblight set hsv [EEPROM]: %u,%u,%u\n", rgblight_config.hue, rgblight_config.s
 498:quantum/rgblight.c ****         } else {
 499:quantum/rgblight.c ****             dprintf("rgblight set hsv [NOEEPROM]: %u,%u,%u\n", rgblight_config.hue, rgblight_config
 500:quantum/rgblight.c ****         }
 501:quantum/rgblight.c ****     }
 502:quantum/rgblight.c **** }
 503:quantum/rgblight.c **** 
 504:quantum/rgblight.c **** void rgblight_sethsv(uint8_t hue, uint8_t sat, uint8_t val) { rgblight_sethsv_eeprom_helper(hue, sa
 505:quantum/rgblight.c **** 
 506:quantum/rgblight.c **** void rgblight_sethsv_noeeprom(uint8_t hue, uint8_t sat, uint8_t val) { rgblight_sethsv_eeprom_helpe
 507:quantum/rgblight.c **** 
 508:quantum/rgblight.c **** uint8_t rgblight_get_speed(void) { return rgblight_config.speed; }
 509:quantum/rgblight.c **** 
 510:quantum/rgblight.c **** void rgblight_set_speed_eeprom_helper(uint8_t speed, bool write_to_eeprom) {
 511:quantum/rgblight.c ****     rgblight_config.speed = speed;
 512:quantum/rgblight.c ****     if (write_to_eeprom) {
 513:quantum/rgblight.c ****         eeconfig_update_rgblight(rgblight_config.raw);  // EECONFIG needs to be increased to suppor
 514:quantum/rgblight.c ****         dprintf("rgblight set speed [EEPROM]: %u\n", rgblight_config.speed);
 515:quantum/rgblight.c ****     } else {
 516:quantum/rgblight.c ****         dprintf("rgblight set speed [NOEEPROM]: %u\n", rgblight_config.speed);
 517:quantum/rgblight.c ****     }
 518:quantum/rgblight.c **** }
 519:quantum/rgblight.c **** 
 520:quantum/rgblight.c **** void rgblight_set_speed(uint8_t speed) { rgblight_set_speed_eeprom_helper(speed, true); }
 521:quantum/rgblight.c **** 
 522:quantum/rgblight.c **** void rgblight_set_speed_noeeprom(uint8_t speed) { rgblight_set_speed_eeprom_helper(speed, false); }
 523:quantum/rgblight.c **** 
 524:quantum/rgblight.c **** uint8_t rgblight_get_hue(void) { return rgblight_config.hue; }
 525:quantum/rgblight.c **** 
 526:quantum/rgblight.c **** uint8_t rgblight_get_sat(void) { return rgblight_config.sat; }
 527:quantum/rgblight.c **** 
 528:quantum/rgblight.c **** uint8_t rgblight_get_val(void) { return rgblight_config.val; }
 529:quantum/rgblight.c **** 
 530:quantum/rgblight.c **** void rgblight_setrgb(uint8_t r, uint8_t g, uint8_t b) {
 531:quantum/rgblight.c ****     if (!rgblight_config.enable) {
 532:quantum/rgblight.c ****         return;
 533:quantum/rgblight.c ****     }
 534:quantum/rgblight.c **** 
 535:quantum/rgblight.c ****     for (uint8_t i = effect_start_pos; i < effect_end_pos; i++) {
 536:quantum/rgblight.c ****         led[i].r = r;
 537:quantum/rgblight.c ****         led[i].g = g;
 538:quantum/rgblight.c ****         led[i].b = b;
 539:quantum/rgblight.c **** #ifdef RGBW
 540:quantum/rgblight.c ****         led[i].w = 0;
 541:quantum/rgblight.c **** #endif
 542:quantum/rgblight.c ****     }
 543:quantum/rgblight.c ****     rgblight_set();
 544:quantum/rgblight.c **** }
 545:quantum/rgblight.c **** 
 546:quantum/rgblight.c **** void rgblight_setrgb_at(uint8_t r, uint8_t g, uint8_t b, uint8_t index) {
 547:quantum/rgblight.c ****     if (!rgblight_config.enable || index >= RGBLED_NUM) {
 548:quantum/rgblight.c ****         return;
 549:quantum/rgblight.c ****     }
 550:quantum/rgblight.c **** 
 551:quantum/rgblight.c ****     led[index].r = r;
 552:quantum/rgblight.c ****     led[index].g = g;
 553:quantum/rgblight.c ****     led[index].b = b;
 554:quantum/rgblight.c **** #ifdef RGBW
 555:quantum/rgblight.c ****     led[index].w = 0;
 556:quantum/rgblight.c **** #endif
 557:quantum/rgblight.c ****     rgblight_set();
 558:quantum/rgblight.c **** }
 559:quantum/rgblight.c **** 
 560:quantum/rgblight.c **** void rgblight_sethsv_at(uint8_t hue, uint8_t sat, uint8_t val, uint8_t index) {
 561:quantum/rgblight.c ****     if (!rgblight_config.enable) {
 562:quantum/rgblight.c ****         return;
 563:quantum/rgblight.c ****     }
 564:quantum/rgblight.c **** 
 565:quantum/rgblight.c ****     LED_TYPE tmp_led;
 566:quantum/rgblight.c ****     sethsv(hue, sat, val, &tmp_led);
 567:quantum/rgblight.c ****     rgblight_setrgb_at(tmp_led.r, tmp_led.g, tmp_led.b, index);
 568:quantum/rgblight.c **** }
 569:quantum/rgblight.c **** 
 570:quantum/rgblight.c **** #if defined(RGBLIGHT_EFFECT_BREATHING) || defined(RGBLIGHT_EFFECT_RAINBOW_MOOD) || defined(RGBLIGHT
 571:quantum/rgblight.c **** 
 572:quantum/rgblight.c **** static uint8_t get_interval_time(const uint8_t *default_interval_address, uint8_t velocikey_min, ui
 573:quantum/rgblight.c ****     return
 574:quantum/rgblight.c **** #    ifdef VELOCIKEY_ENABLE
 575:quantum/rgblight.c ****         velocikey_enabled() ? velocikey_match_speed(velocikey_min, velocikey_max) :
 576:quantum/rgblight.c **** #    endif
 577:quantum/rgblight.c ****                             pgm_read_byte(default_interval_address);
 578:quantum/rgblight.c **** }
 579:quantum/rgblight.c **** 
 580:quantum/rgblight.c **** #endif
 581:quantum/rgblight.c **** 
 582:quantum/rgblight.c **** void rgblight_setrgb_range(uint8_t r, uint8_t g, uint8_t b, uint8_t start, uint8_t end) {
 583:quantum/rgblight.c ****     if (!rgblight_config.enable || start < 0 || start >= end || end > RGBLED_NUM) {
 584:quantum/rgblight.c ****         return;
 585:quantum/rgblight.c ****     }
 586:quantum/rgblight.c **** 
 587:quantum/rgblight.c ****     for (uint8_t i = start; i < end; i++) {
 588:quantum/rgblight.c ****         led[i].r = r;
 589:quantum/rgblight.c ****         led[i].g = g;
 590:quantum/rgblight.c ****         led[i].b = b;
 591:quantum/rgblight.c **** #ifdef RGBW
 592:quantum/rgblight.c ****         led[i].w = 0;
 593:quantum/rgblight.c **** #endif
 594:quantum/rgblight.c ****     }
 595:quantum/rgblight.c ****     rgblight_set();
 596:quantum/rgblight.c ****     wait_ms(1);
 597:quantum/rgblight.c **** }
 598:quantum/rgblight.c **** 
 599:quantum/rgblight.c **** void rgblight_sethsv_range(uint8_t hue, uint8_t sat, uint8_t val, uint8_t start, uint8_t end) {
 600:quantum/rgblight.c ****     if (!rgblight_config.enable) {
 601:quantum/rgblight.c ****         return;
 602:quantum/rgblight.c ****     }
 603:quantum/rgblight.c **** 
 604:quantum/rgblight.c ****     LED_TYPE tmp_led;
 605:quantum/rgblight.c ****     sethsv(hue, sat, val, &tmp_led);
 606:quantum/rgblight.c ****     rgblight_setrgb_range(tmp_led.r, tmp_led.g, tmp_led.b, start, end);
 607:quantum/rgblight.c **** }
 608:quantum/rgblight.c **** 
 609:quantum/rgblight.c **** #ifndef RGBLIGHT_SPLIT
 610:quantum/rgblight.c **** void rgblight_setrgb_master(uint8_t r, uint8_t g, uint8_t b) { rgblight_setrgb_range(r, g, b, 0, (u
 611:quantum/rgblight.c **** 
 612:quantum/rgblight.c **** void rgblight_setrgb_slave(uint8_t r, uint8_t g, uint8_t b) { rgblight_setrgb_range(r, g, b, (uint8
 613:quantum/rgblight.c **** 
 614:quantum/rgblight.c **** void rgblight_sethsv_master(uint8_t hue, uint8_t sat, uint8_t val) { rgblight_sethsv_range(hue, sat
 615:quantum/rgblight.c **** 
 616:quantum/rgblight.c **** void rgblight_sethsv_slave(uint8_t hue, uint8_t sat, uint8_t val) { rgblight_sethsv_range(hue, sat,
 617:quantum/rgblight.c **** #endif  // ifndef RGBLIGHT_SPLIT
 618:quantum/rgblight.c **** 
 619:quantum/rgblight.c **** #ifndef RGBLIGHT_CUSTOM_DRIVER
 620:quantum/rgblight.c **** void rgblight_set(void) {
 621:quantum/rgblight.c ****     LED_TYPE *start_led;
 622:quantum/rgblight.c ****     uint16_t  num_leds = clipping_num_leds;
 623:quantum/rgblight.c **** 
 624:quantum/rgblight.c ****     if (!rgblight_config.enable) {
 625:quantum/rgblight.c ****         for (uint8_t i = effect_start_pos; i < effect_end_pos; i++) {
 626:quantum/rgblight.c ****             led[i].r = 0;
 627:quantum/rgblight.c ****             led[i].g = 0;
 628:quantum/rgblight.c ****             led[i].b = 0;
 629:quantum/rgblight.c **** #    ifdef RGBW
 630:quantum/rgblight.c ****             led[i].w = 0;
 631:quantum/rgblight.c **** #    endif
 632:quantum/rgblight.c ****         }
 633:quantum/rgblight.c ****     }
 634:quantum/rgblight.c **** 
 635:quantum/rgblight.c **** #    ifdef RGBLIGHT_LED_MAP
 636:quantum/rgblight.c ****     LED_TYPE led0[RGBLED_NUM];
 637:quantum/rgblight.c ****     for (uint8_t i = 0; i < RGBLED_NUM; i++) {
 638:quantum/rgblight.c ****         led0[i] = led[pgm_read_byte(&led_map[i])];
 639:quantum/rgblight.c ****     }
 640:quantum/rgblight.c ****     start_led = led0 + clipping_start_pos;
 641:quantum/rgblight.c **** #    else
 642:quantum/rgblight.c ****     start_led = led + clipping_start_pos;
 643:quantum/rgblight.c **** #    endif
 644:quantum/rgblight.c **** 
 645:quantum/rgblight.c **** #    ifdef RGBW
 646:quantum/rgblight.c ****     for (uint8_t i = 0; i < num_leds; i++) {
 647:quantum/rgblight.c ****         convert_rgb_to_rgbw(&start_led[i]);
 648:quantum/rgblight.c ****     }
 649:quantum/rgblight.c **** #    endif
 650:quantum/rgblight.c ****     ws2812_setleds(start_led, num_leds);
 651:quantum/rgblight.c **** }
 652:quantum/rgblight.c **** #endif
 653:quantum/rgblight.c **** 
 654:quantum/rgblight.c **** #ifdef RGBLIGHT_SPLIT
 655:quantum/rgblight.c **** /* for split keyboard master side */
 656:quantum/rgblight.c **** uint8_t rgblight_get_change_flags(void) { return rgblight_status.change_flags; }
 657:quantum/rgblight.c **** 
 658:quantum/rgblight.c **** void rgblight_clear_change_flags(void) { rgblight_status.change_flags = 0; }
 659:quantum/rgblight.c **** 
 660:quantum/rgblight.c **** void rgblight_get_syncinfo(rgblight_syncinfo_t *syncinfo) {
 661:quantum/rgblight.c ****     syncinfo->config = rgblight_config;
 662:quantum/rgblight.c ****     syncinfo->status = rgblight_status;
 663:quantum/rgblight.c **** }
 664:quantum/rgblight.c **** 
 665:quantum/rgblight.c **** /* for split keyboard slave side */
 666:quantum/rgblight.c **** void rgblight_update_sync(rgblight_syncinfo_t *syncinfo, bool write_to_eeprom) {
 667:quantum/rgblight.c ****     if (syncinfo->status.change_flags & RGBLIGHT_STATUS_CHANGE_MODE) {
 668:quantum/rgblight.c ****         if (syncinfo->config.enable) {
 669:quantum/rgblight.c ****             rgblight_config.enable = 1;  // == rgblight_enable_noeeprom();
 670:quantum/rgblight.c ****             rgblight_mode_eeprom_helper(syncinfo->config.mode, write_to_eeprom);
 671:quantum/rgblight.c ****         } else {
 672:quantum/rgblight.c ****             rgblight_disable_noeeprom();
 673:quantum/rgblight.c ****         }
 674:quantum/rgblight.c ****     }
 675:quantum/rgblight.c ****     if (syncinfo->status.change_flags & RGBLIGHT_STATUS_CHANGE_HSVS) {
 676:quantum/rgblight.c ****         rgblight_sethsv_eeprom_helper(syncinfo->config.hue, syncinfo->config.sat, syncinfo->config.
 677:quantum/rgblight.c ****         // rgblight_config.speed = config->speed; // NEED???
 678:quantum/rgblight.c ****     }
 679:quantum/rgblight.c **** #    ifdef RGBLIGHT_USE_TIMER
 680:quantum/rgblight.c ****     if (syncinfo->status.change_flags & RGBLIGHT_STATUS_CHANGE_TIMER) {
 681:quantum/rgblight.c ****         if (syncinfo->status.timer_enabled) {
 682:quantum/rgblight.c ****             rgblight_timer_enable();
 683:quantum/rgblight.c ****         } else {
 684:quantum/rgblight.c ****             rgblight_timer_disable();
 685:quantum/rgblight.c ****         }
 686:quantum/rgblight.c ****     }
 687:quantum/rgblight.c **** #        ifndef RGBLIGHT_SPLIT_NO_ANIMATION_SYNC
 688:quantum/rgblight.c ****     if (syncinfo->status.change_flags & RGBLIGHT_STATUS_ANIMATION_TICK) {
 689:quantum/rgblight.c ****         animation_status.restart = true;
 690:quantum/rgblight.c ****     }
 691:quantum/rgblight.c **** #        endif /* RGBLIGHT_SPLIT_NO_ANIMATION_SYNC */
 692:quantum/rgblight.c **** #    endif     /* RGBLIGHT_USE_TIMER */
 693:quantum/rgblight.c **** }
 694:quantum/rgblight.c **** #endif /* RGBLIGHT_SPLIT */
 695:quantum/rgblight.c **** 
 696:quantum/rgblight.c **** #ifdef RGBLIGHT_USE_TIMER
 697:quantum/rgblight.c **** 
 698:quantum/rgblight.c **** typedef void (*effect_func_t)(animation_status_t *anim);
 699:quantum/rgblight.c **** 
 700:quantum/rgblight.c **** // Animation timer -- use system timer (AVR Timer0)
 701:quantum/rgblight.c **** void rgblight_timer_init(void) {
 702:quantum/rgblight.c ****     // OLD!!!! Animation timer -- AVR Timer3
 703:quantum/rgblight.c ****     // static uint8_t rgblight_timer_is_init = 0;
 704:quantum/rgblight.c ****     // if (rgblight_timer_is_init) {
 705:quantum/rgblight.c ****     //   return;
 706:quantum/rgblight.c ****     // }
 707:quantum/rgblight.c ****     // rgblight_timer_is_init = 1;
 708:quantum/rgblight.c ****     // /* Timer 3 setup */
 709:quantum/rgblight.c ****     // TCCR3B = _BV(WGM32) // CTC mode OCR3A as TOP
 710:quantum/rgblight.c ****     //       | _BV(CS30); // Clock selelct: clk/1
 711:quantum/rgblight.c ****     // /* Set TOP value */
 712:quantum/rgblight.c ****     // uint8_t sreg = SREG;
 713:quantum/rgblight.c ****     // cli();
 714:quantum/rgblight.c ****     // OCR3AH = (RGBLED_TIMER_TOP >> 8) & 0xff;
 715:quantum/rgblight.c ****     // OCR3AL = RGBLED_TIMER_TOP & 0xff;
 716:quantum/rgblight.c ****     // SREG = sreg;
 717:quantum/rgblight.c **** 
 718:quantum/rgblight.c ****     rgblight_status.timer_enabled = false;
 719:quantum/rgblight.c ****     RGBLIGHT_SPLIT_SET_CHANGE_TIMER_ENABLE;
 720:quantum/rgblight.c **** }
 721:quantum/rgblight.c **** void rgblight_timer_enable(void) {
 722:quantum/rgblight.c ****     if (!is_static_effect(rgblight_config.mode)) {
 723:quantum/rgblight.c ****         rgblight_status.timer_enabled = true;
 724:quantum/rgblight.c ****     }
 725:quantum/rgblight.c ****     animation_status.last_timer = timer_read();
 726:quantum/rgblight.c ****     RGBLIGHT_SPLIT_SET_CHANGE_TIMER_ENABLE;
 727:quantum/rgblight.c ****     dprintf("rgblight timer enabled.\n");
 728:quantum/rgblight.c **** }
 729:quantum/rgblight.c **** void rgblight_timer_disable(void) {
 730:quantum/rgblight.c ****     rgblight_status.timer_enabled = false;
 731:quantum/rgblight.c ****     RGBLIGHT_SPLIT_SET_CHANGE_TIMER_ENABLE;
 732:quantum/rgblight.c ****     dprintf("rgblight timer disable.\n");
 733:quantum/rgblight.c **** }
 734:quantum/rgblight.c **** void rgblight_timer_toggle(void) {
 735:quantum/rgblight.c ****     dprintf("rgblight timer toggle.\n");
 736:quantum/rgblight.c ****     if (rgblight_status.timer_enabled) {
 737:quantum/rgblight.c ****         rgblight_timer_disable();
 738:quantum/rgblight.c ****     } else {
 739:quantum/rgblight.c ****         rgblight_timer_enable();
 740:quantum/rgblight.c ****     }
 741:quantum/rgblight.c **** }
 742:quantum/rgblight.c **** 
 743:quantum/rgblight.c **** void rgblight_show_solid_color(uint8_t r, uint8_t g, uint8_t b) {
 744:quantum/rgblight.c ****     rgblight_enable();
 745:quantum/rgblight.c ****     rgblight_mode(RGBLIGHT_MODE_STATIC_LIGHT);
 746:quantum/rgblight.c ****     rgblight_setrgb(r, g, b);
 747:quantum/rgblight.c **** }
 748:quantum/rgblight.c **** 
 749:quantum/rgblight.c **** static void rgblight_effect_dummy(animation_status_t *anim) {
  16               		.loc 1 749 61 view -0
  17               		.cfi_startproc
  18               	/* prologue: function */
  19               	/* frame size = 0 */
  20               	/* stack size = 0 */
  21               	.L__stack_usage = 0
 750:quantum/rgblight.c ****     // do nothing
 751:quantum/rgblight.c ****     /********
 752:quantum/rgblight.c ****     dprintf("rgblight_task() what happened?\n");
 753:quantum/rgblight.c ****     dprintf("is_static_effect %d\n", is_static_effect(rgblight_config.mode));
 754:quantum/rgblight.c ****     dprintf("mode = %d, base_mode = %d, timer_enabled %d, ",
 755:quantum/rgblight.c ****             rgblight_config.mode, rgblight_status.base_mode,
 756:quantum/rgblight.c ****             rgblight_status.timer_enabled);
 757:quantum/rgblight.c ****     dprintf("last_timer = %d\n",anim->last_timer);
 758:quantum/rgblight.c ****     **/
 759:quantum/rgblight.c **** }
  22               		.loc 1 759 1 view .LVU1
  23               	/* epilogue start */
  24 0000 0895      		ret
  25               		.cfi_endproc
  26               	.LFE161:
  28               		.section	.text.rgblight_set_clipping_range,"ax",@progbits
  29               	.global	rgblight_set_clipping_range
  31               	rgblight_set_clipping_range:
  32               	.LVL1:
  33               	.LFB82:
 106:quantum/rgblight.c ****     clipping_start_pos = start_pos;
  34               		.loc 1 106 71 view -0
  35               		.cfi_startproc
  36               	/* prologue: function */
  37               	/* frame size = 0 */
  38               	/* stack size = 0 */
  39               	.L__stack_usage = 0
 107:quantum/rgblight.c ****     clipping_num_leds  = num_leds;
  40               		.loc 1 107 5 view .LVU3
 107:quantum/rgblight.c ****     clipping_num_leds  = num_leds;
  41               		.loc 1 107 24 is_stmt 0 view .LVU4
  42 0000 8093 0000 		sts clipping_start_pos,r24
 108:quantum/rgblight.c **** }
  43               		.loc 1 108 5 is_stmt 1 view .LVU5
 108:quantum/rgblight.c **** }
  44               		.loc 1 108 24 is_stmt 0 view .LVU6
  45 0004 6093 0000 		sts clipping_num_leds,r22
  46               	/* epilogue start */
 109:quantum/rgblight.c **** 
  47               		.loc 1 109 1 view .LVU7
  48 0008 0895      		ret
  49               		.cfi_endproc
  50               	.LFE82:
  52               		.section	.text.rgblight_set_effect_range,"ax",@progbits
  53               	.global	rgblight_set_effect_range
  55               	rgblight_set_effect_range:
  56               	.LVL2:
  57               	.LFB83:
 111:quantum/rgblight.c ****     if (start_pos >= RGBLED_NUM) return;
  58               		.loc 1 111 69 is_stmt 1 view -0
  59               		.cfi_startproc
  60               	/* prologue: function */
  61               	/* frame size = 0 */
  62               	/* stack size = 0 */
  63               	.L__stack_usage = 0
 112:quantum/rgblight.c ****     if (start_pos + num_leds > RGBLED_NUM) return;
  64               		.loc 1 112 5 view .LVU9
 112:quantum/rgblight.c ****     if (start_pos + num_leds > RGBLED_NUM) return;
  65               		.loc 1 112 8 is_stmt 0 view .LVU10
  66 0000 8830      		cpi r24,lo8(8)
  67 0002 00F4      		brsh .L3
 113:quantum/rgblight.c ****     effect_start_pos = start_pos;
  68               		.loc 1 113 5 is_stmt 1 view .LVU11
 113:quantum/rgblight.c ****     effect_start_pos = start_pos;
  69               		.loc 1 113 19 is_stmt 0 view .LVU12
  70 0004 482F      		mov r20,r24
  71 0006 460F      		add r20,r22
  72 0008 5527      		clr r21
  73 000a 551F      		rol r21
 113:quantum/rgblight.c ****     effect_start_pos = start_pos;
  74               		.loc 1 113 8 view .LVU13
  75 000c 4930      		cpi r20,9
  76 000e 5105      		cpc r21,__zero_reg__
  77 0010 04F4      		brge .L3
 114:quantum/rgblight.c ****     effect_end_pos   = start_pos + num_leds;
  78               		.loc 1 114 5 is_stmt 1 view .LVU14
 114:quantum/rgblight.c ****     effect_end_pos   = start_pos + num_leds;
  79               		.loc 1 114 22 is_stmt 0 view .LVU15
  80 0012 8093 0000 		sts effect_start_pos,r24
 115:quantum/rgblight.c ****     effect_num_leds  = num_leds;
  81               		.loc 1 115 5 is_stmt 1 view .LVU16
 115:quantum/rgblight.c ****     effect_num_leds  = num_leds;
  82               		.loc 1 115 34 is_stmt 0 view .LVU17
  83 0016 860F      		add r24,r22
  84               	.LVL3:
 115:quantum/rgblight.c ****     effect_num_leds  = num_leds;
  85               		.loc 1 115 22 view .LVU18
  86 0018 8093 0000 		sts effect_end_pos,r24
 116:quantum/rgblight.c **** }
  87               		.loc 1 116 5 is_stmt 1 view .LVU19
 116:quantum/rgblight.c **** }
  88               		.loc 1 116 22 is_stmt 0 view .LVU20
  89 001c 6093 0000 		sts effect_num_leds,r22
  90               	.LVL4:
  91               	.L3:
  92               	/* epilogue start */
 117:quantum/rgblight.c **** 
  93               		.loc 1 117 1 view .LVU21
  94 0020 0895      		ret
  95               		.cfi_endproc
  96               	.LFE83:
  98               		.section	.text.sethsv_raw,"ax",@progbits
  99               	.global	sethsv_raw
 101               	sethsv_raw:
 102               	.LVL5:
 103               	.LFB84:
 119:quantum/rgblight.c ****     HSV hsv = {hue, sat, val};
 104               		.loc 1 119 72 is_stmt 1 view -0
 105               		.cfi_startproc
 119:quantum/rgblight.c ****     HSV hsv = {hue, sat, val};
 106               		.loc 1 119 72 is_stmt 0 view .LVU23
 107 0000 CF93      		push r28
 108               	.LCFI0:
 109               		.cfi_def_cfa_offset 3
 110               		.cfi_offset 28, -2
 111 0002 DF93      		push r29
 112               	.LCFI1:
 113               		.cfi_def_cfa_offset 4
 114               		.cfi_offset 29, -3
 115               	/* prologue: function */
 116               	/* frame size = 0 */
 117               	/* stack size = 2 */
 118               	.L__stack_usage = 2
 119 0004 762F      		mov r23,r22
 120 0006 E901      		movw r28,r18
 120:quantum/rgblight.c ****     RGB rgb = hsv_to_rgb(hsv);
 121               		.loc 1 120 5 is_stmt 1 view .LVU24
 121:quantum/rgblight.c ****     setrgb(rgb.r, rgb.g, rgb.b, led1);
 122               		.loc 1 121 5 view .LVU25
 121:quantum/rgblight.c ****     setrgb(rgb.r, rgb.g, rgb.b, led1);
 123               		.loc 1 121 15 is_stmt 0 view .LVU26
 124 0008 682F      		mov r22,r24
 125               	.LVL6:
 121:quantum/rgblight.c ****     setrgb(rgb.r, rgb.g, rgb.b, led1);
 126               		.loc 1 121 15 view .LVU27
 127 000a 842F      		mov r24,r20
 128               	.LVL7:
 121:quantum/rgblight.c ****     setrgb(rgb.r, rgb.g, rgb.b, led1);
 129               		.loc 1 121 15 view .LVU28
 130 000c 0E94 0000 		call hsv_to_rgb
 131               	.LVL8:
 122:quantum/rgblight.c **** }
 132               		.loc 1 122 5 is_stmt 1 view .LVU29
 133               	.LBB20:
 134               	.LBI20:
 127:quantum/rgblight.c ****     (*led1).r = r;
 135               		.loc 1 127 6 view .LVU30
 136               	.LBB21:
 128:quantum/rgblight.c ****     (*led1).g = g;
 137               		.loc 1 128 5 view .LVU31
 128:quantum/rgblight.c ****     (*led1).g = g;
 138               		.loc 1 128 15 is_stmt 0 view .LVU32
 139 0010 7983      		std Y+1,r23
 129:quantum/rgblight.c ****     (*led1).b = b;
 140               		.loc 1 129 5 is_stmt 1 view .LVU33
 129:quantum/rgblight.c ****     (*led1).b = b;
 141               		.loc 1 129 15 is_stmt 0 view .LVU34
 142 0012 6883      		st Y,r22
 130:quantum/rgblight.c **** #ifdef RGBW
 143               		.loc 1 130 5 is_stmt 1 view .LVU35
 130:quantum/rgblight.c **** #ifdef RGBW
 144               		.loc 1 130 15 is_stmt 0 view .LVU36
 145 0014 8A83      		std Y+2,r24
 146               	.LVL9:
 147               	/* epilogue start */
 130:quantum/rgblight.c **** #ifdef RGBW
 148               		.loc 1 130 15 view .LVU37
 149               	.LBE21:
 150               	.LBE20:
 123:quantum/rgblight.c **** 
 151               		.loc 1 123 1 view .LVU38
 152 0016 DF91      		pop r29
 153 0018 CF91      		pop r28
 154               	.LVL10:
 123:quantum/rgblight.c **** 
 155               		.loc 1 123 1 view .LVU39
 156 001a 0895      		ret
 157               		.cfi_endproc
 158               	.LFE84:
 160               		.section	.text.sethsv,"ax",@progbits
 161               	.global	sethsv
 163               	sethsv:
 164               	.LVL11:
 165               	.LFB85:
 125:quantum/rgblight.c **** 
 166               		.loc 1 125 68 is_stmt 1 view -0
 167               		.cfi_startproc
 168               	/* prologue: function */
 169               	/* frame size = 0 */
 170               	/* stack size = 0 */
 171               	.L__stack_usage = 0
 125:quantum/rgblight.c **** 
 172               		.loc 1 125 70 view .LVU41
 173 0000 0C94 0000 		jmp sethsv_raw
 174               	.LVL12:
 125:quantum/rgblight.c **** 
 175               		.loc 1 125 70 is_stmt 0 view .LVU42
 176               		.cfi_endproc
 177               	.LFE85:
 179               		.section	.text.setrgb,"ax",@progbits
 180               	.global	setrgb
 182               	setrgb:
 183               	.LVL13:
 184               	.LFB86:
 127:quantum/rgblight.c ****     (*led1).r = r;
 185               		.loc 1 127 62 is_stmt 1 view -0
 186               		.cfi_startproc
 187               	/* prologue: function */
 188               	/* frame size = 0 */
 189               	/* stack size = 0 */
 190               	.L__stack_usage = 0
 127:quantum/rgblight.c ****     (*led1).r = r;
 191               		.loc 1 127 62 is_stmt 0 view .LVU44
 192 0000 F901      		movw r30,r18
 128:quantum/rgblight.c ****     (*led1).g = g;
 193               		.loc 1 128 5 is_stmt 1 view .LVU45
 128:quantum/rgblight.c ****     (*led1).g = g;
 194               		.loc 1 128 15 is_stmt 0 view .LVU46
 195 0002 8183      		std Z+1,r24
 129:quantum/rgblight.c ****     (*led1).b = b;
 196               		.loc 1 129 5 is_stmt 1 view .LVU47
 129:quantum/rgblight.c ****     (*led1).b = b;
 197               		.loc 1 129 15 is_stmt 0 view .LVU48
 198 0004 6083      		st Z,r22
 130:quantum/rgblight.c **** #ifdef RGBW
 199               		.loc 1 130 5 is_stmt 1 view .LVU49
 130:quantum/rgblight.c **** #ifdef RGBW
 200               		.loc 1 130 15 is_stmt 0 view .LVU50
 201 0006 4283      		std Z+2,r20
 202               	/* epilogue start */
 134:quantum/rgblight.c **** 
 203               		.loc 1 134 1 view .LVU51
 204 0008 0895      		ret
 205               		.cfi_endproc
 206               	.LFE86:
 208               		.section	.text.rgblight_check_config,"ax",@progbits
 209               	.global	rgblight_check_config
 211               	rgblight_check_config:
 212               	.LFB87:
 136:quantum/rgblight.c ****     /* Add some out of bound checks for RGB light config */
 213               		.loc 1 136 34 is_stmt 1 view -0
 214               		.cfi_startproc
 215               	/* prologue: function */
 216               	/* frame size = 0 */
 217               	/* stack size = 0 */
 218               	.L__stack_usage = 0
 139:quantum/rgblight.c ****         rgblight_config.mode = RGBLIGHT_MODE_STATIC_LIGHT;
 219               		.loc 1 139 5 view .LVU53
 139:quantum/rgblight.c ****         rgblight_config.mode = RGBLIGHT_MODE_STATIC_LIGHT;
 220               		.loc 1 139 30 is_stmt 0 view .LVU54
 221 0000 8091 0000 		lds r24,rgblight_config
 222 0004 982F      		mov r25,r24
 223 0006 9E7F      		andi r25,lo8(-2)
 139:quantum/rgblight.c ****         rgblight_config.mode = RGBLIGHT_MODE_STATIC_LIGHT;
 224               		.loc 1 139 8 view .LVU55
 225 0008 01F4      		brne .L9
 140:quantum/rgblight.c ****     } else if (rgblight_config.mode > RGBLIGHT_MODES) {
 226               		.loc 1 140 9 is_stmt 1 view .LVU56
 140:quantum/rgblight.c ****     } else if (rgblight_config.mode > RGBLIGHT_MODES) {
 227               		.loc 1 140 30 is_stmt 0 view .LVU57
 228 000a 8170      		andi r24,lo8(1)
 229 000c 8260      		ori r24,lo8(2)
 230               	.L11:
 142:quantum/rgblight.c ****     }
 231               		.loc 1 142 30 view .LVU58
 232 000e 8093 0000 		sts rgblight_config,r24
 145:quantum/rgblight.c ****         rgblight_config.val = RGBLIGHT_LIMIT_VAL;
 233               		.loc 1 145 5 is_stmt 1 view .LVU59
 234               	.L8:
 235               	/* epilogue start */
 148:quantum/rgblight.c **** 
 236               		.loc 1 148 1 is_stmt 0 view .LVU60
 237 0012 0895      		ret
 238               	.L9:
 141:quantum/rgblight.c ****         rgblight_config.mode = RGBLIGHT_MODES;
 239               		.loc 1 141 12 is_stmt 1 view .LVU61
 141:quantum/rgblight.c ****         rgblight_config.mode = RGBLIGHT_MODES;
 240               		.loc 1 141 15 is_stmt 0 view .LVU62
 241 0014 8A34      		cpi r24,lo8(74)
 242 0016 00F0      		brlo .L8
 142:quantum/rgblight.c ****     }
 243               		.loc 1 142 9 is_stmt 1 view .LVU63
 142:quantum/rgblight.c ****     }
 244               		.loc 1 142 30 is_stmt 0 view .LVU64
 245 0018 8170      		andi r24,lo8(1)
 246 001a 8864      		ori r24,lo8(72)
 247 001c 00C0      		rjmp .L11
 248               		.cfi_endproc
 249               	.LFE87:
 251               		.section	.text.eeconfig_read_rgblight,"ax",@progbits
 252               	.global	eeconfig_read_rgblight
 254               	eeconfig_read_rgblight:
 255               	.LFB88:
 150:quantum/rgblight.c **** #ifdef EEPROM_ENABLE
 256               		.loc 1 150 39 is_stmt 1 view -0
 257               		.cfi_startproc
 258               	/* prologue: function */
 259               	/* frame size = 0 */
 260               	/* stack size = 0 */
 261               	.L__stack_usage = 0
 152:quantum/rgblight.c **** #else
 262               		.loc 1 152 5 view .LVU66
 152:quantum/rgblight.c **** #else
 263               		.loc 1 152 12 is_stmt 0 view .LVU67
 264 0000 88E0      		ldi r24,lo8(8)
 265 0002 90E0      		ldi r25,0
 266 0004 0C94 0000 		jmp eeprom_read_dword
 267               	.LVL14:
 268               		.cfi_endproc
 269               	.LFE88:
 271               		.section	.text.eeconfig_update_rgblight,"ax",@progbits
 272               	.global	eeconfig_update_rgblight
 274               	eeconfig_update_rgblight:
 275               	.LVL15:
 276               	.LFB89:
 158:quantum/rgblight.c **** #ifdef EEPROM_ENABLE
 277               		.loc 1 158 45 is_stmt 1 view -0
 278               		.cfi_startproc
 158:quantum/rgblight.c **** #ifdef EEPROM_ENABLE
 279               		.loc 1 158 45 is_stmt 0 view .LVU69
 280 0000 CF92      		push r12
 281               	.LCFI2:
 282               		.cfi_def_cfa_offset 3
 283               		.cfi_offset 12, -2
 284 0002 DF92      		push r13
 285               	.LCFI3:
 286               		.cfi_def_cfa_offset 4
 287               		.cfi_offset 13, -3
 288 0004 EF92      		push r14
 289               	.LCFI4:
 290               		.cfi_def_cfa_offset 5
 291               		.cfi_offset 14, -4
 292 0006 FF92      		push r15
 293               	.LCFI5:
 294               		.cfi_def_cfa_offset 6
 295               		.cfi_offset 15, -5
 296               	/* prologue: function */
 297               	/* frame size = 0 */
 298               	/* stack size = 4 */
 299               	.L__stack_usage = 4
 300 0008 6B01      		movw r12,r22
 301 000a 7C01      		movw r14,r24
 160:quantum/rgblight.c ****     eeprom_update_dword(EECONFIG_RGBLIGHT, val);
 302               		.loc 1 160 5 is_stmt 1 view .LVU70
 303 000c 0E94 0000 		call rgblight_check_config
 304               	.LVL16:
 161:quantum/rgblight.c **** #endif
 305               		.loc 1 161 5 view .LVU71
 306 0010 B701      		movw r22,r14
 307 0012 A601      		movw r20,r12
 308 0014 88E0      		ldi r24,lo8(8)
 309 0016 90E0      		ldi r25,0
 310               	/* epilogue start */
 163:quantum/rgblight.c **** 
 311               		.loc 1 163 1 is_stmt 0 view .LVU72
 312 0018 FF90      		pop r15
 313 001a EF90      		pop r14
 314 001c DF90      		pop r13
 315 001e CF90      		pop r12
 161:quantum/rgblight.c **** #endif
 316               		.loc 1 161 5 view .LVU73
 317 0020 0C94 0000 		jmp eeprom_update_dword
 318               	.LVL17:
 319               		.cfi_endproc
 320               	.LFE89:
 322               		.section	.text.eeconfig_update_rgblight_current,"ax",@progbits
 323               	.global	eeconfig_update_rgblight_current
 325               	eeconfig_update_rgblight_current:
 326               	.LFB90:
 165:quantum/rgblight.c **** 
 327               		.loc 1 165 45 is_stmt 1 view -0
 328               		.cfi_startproc
 329               	/* prologue: function */
 330               	/* frame size = 0 */
 331               	/* stack size = 0 */
 332               	.L__stack_usage = 0
 165:quantum/rgblight.c **** 
 333               		.loc 1 165 47 view .LVU75
 334 0000 6091 0000 		lds r22,rgblight_config
 335 0004 7091 0000 		lds r23,rgblight_config+1
 336 0008 8091 0000 		lds r24,rgblight_config+2
 337 000c 9091 0000 		lds r25,rgblight_config+3
 338 0010 0C94 0000 		jmp eeconfig_update_rgblight
 339               	.LVL18:
 340               		.cfi_endproc
 341               	.LFE90:
 343               		.section	.text.eeconfig_update_rgblight_default,"ax",@progbits
 344               	.global	eeconfig_update_rgblight_default
 346               	eeconfig_update_rgblight_default:
 347               	.LFB91:
 167:quantum/rgblight.c ****     rgblight_config.enable = 1;
 348               		.loc 1 167 45 view -0
 349               		.cfi_startproc
 350               	/* prologue: function */
 351               	/* frame size = 0 */
 352               	/* stack size = 0 */
 353               	.L__stack_usage = 0
 168:quantum/rgblight.c ****     rgblight_config.mode   = RGBLIGHT_MODE_STATIC_LIGHT;
 354               		.loc 1 168 5 view .LVU77
 169:quantum/rgblight.c ****     rgblight_config.hue    = 0;
 355               		.loc 1 169 5 view .LVU78
 170:quantum/rgblight.c ****     rgblight_config.sat    = UINT8_MAX;
 356               		.loc 1 170 5 view .LVU79
 171:quantum/rgblight.c ****     rgblight_config.val    = RGBLIGHT_LIMIT_VAL;
 357               		.loc 1 171 5 view .LVU80
 172:quantum/rgblight.c ****     rgblight_config.speed  = 0;
 358               		.loc 1 172 5 view .LVU81
 173:quantum/rgblight.c ****     RGBLIGHT_SPLIT_SET_CHANGE_MODEHSVS;
 359               		.loc 1 173 5 view .LVU82
 168:quantum/rgblight.c ****     rgblight_config.mode   = RGBLIGHT_MODE_STATIC_LIGHT;
 360               		.loc 1 168 28 is_stmt 0 view .LVU83
 361 0000 E0E0      		ldi r30,lo8(rgblight_config)
 362 0002 F0E0      		ldi r31,hi8(rgblight_config)
 363 0004 83E0      		ldi r24,lo8(3)
 364 0006 8083      		st Z,r24
 170:quantum/rgblight.c ****     rgblight_config.sat    = UINT8_MAX;
 365               		.loc 1 170 28 view .LVU84
 366 0008 1182      		std Z+1,__zero_reg__
 171:quantum/rgblight.c ****     rgblight_config.val    = RGBLIGHT_LIMIT_VAL;
 367               		.loc 1 171 28 view .LVU85
 368 000a 8FEF      		ldi r24,lo8(-1)
 369 000c 8283      		std Z+2,r24
 172:quantum/rgblight.c ****     rgblight_config.speed  = 0;
 370               		.loc 1 172 28 view .LVU86
 371 000e 8383      		std Z+3,r24
 173:quantum/rgblight.c ****     RGBLIGHT_SPLIT_SET_CHANGE_MODEHSVS;
 372               		.loc 1 173 28 view .LVU87
 373 0010 1482      		std Z+4,__zero_reg__
 174:quantum/rgblight.c ****     eeconfig_update_rgblight(rgblight_config.raw);
 374               		.loc 1 174 39 is_stmt 1 view .LVU88
 175:quantum/rgblight.c **** }
 375               		.loc 1 175 5 view .LVU89
 376 0012 6081      		ld r22,Z
 377 0014 7181      		ldd r23,Z+1
 378 0016 8281      		ldd r24,Z+2
 379 0018 9381      		ldd r25,Z+3
 380 001a 0C94 0000 		jmp eeconfig_update_rgblight
 381               	.LVL19:
 382               		.cfi_endproc
 383               	.LFE91:
 385               		.section	.text.eeconfig_debug_rgblight,"ax",@progbits
 386               	.global	eeconfig_debug_rgblight
 388               	eeconfig_debug_rgblight:
 389               	.LFB92:
 178:quantum/rgblight.c ****     dprintf("rgblight_config EEPROM:\n");
 390               		.loc 1 178 36 view -0
 391               		.cfi_startproc
 392               	/* prologue: function */
 393               	/* frame size = 0 */
 394               	/* stack size = 0 */
 395               	.L__stack_usage = 0
 179:quantum/rgblight.c ****     dprintf("rgblight_config.enable = %d\n", rgblight_config.enable);
 396               		.loc 1 179 41 view .LVU91
 180:quantum/rgblight.c ****     dprintf("rghlight_config.mode = %d\n", rgblight_config.mode);
 397               		.loc 1 180 69 view .LVU92
 181:quantum/rgblight.c ****     dprintf("rgblight_config.hue = %d\n", rgblight_config.hue);
 398               		.loc 1 181 65 view .LVU93
 182:quantum/rgblight.c ****     dprintf("rgblight_config.sat = %d\n", rgblight_config.sat);
 399               		.loc 1 182 63 view .LVU94
 183:quantum/rgblight.c ****     dprintf("rgblight_config.val = %d\n", rgblight_config.val);
 400               		.loc 1 183 63 view .LVU95
 184:quantum/rgblight.c ****     dprintf("rgblight_config.speed = %d\n", rgblight_config.speed);
 401               		.loc 1 184 63 view .LVU96
 185:quantum/rgblight.c **** }
 402               		.loc 1 185 67 view .LVU97
 403               	/* epilogue start */
 186:quantum/rgblight.c **** 
 404               		.loc 1 186 1 is_stmt 0 view .LVU98
 405 0000 0895      		ret
 406               		.cfi_endproc
 407               	.LFE92:
 409               		.section	.text.rgblight_read_dword,"ax",@progbits
 410               	.global	rgblight_read_dword
 412               	rgblight_read_dword:
 413               	.LFB94:
 225:quantum/rgblight.c **** 
 414               		.loc 1 225 36 is_stmt 1 view -0
 415               		.cfi_startproc
 416               	/* prologue: function */
 417               	/* frame size = 0 */
 418               	/* stack size = 0 */
 419               	.L__stack_usage = 0
 225:quantum/rgblight.c **** 
 420               		.loc 1 225 38 view .LVU100
 225:quantum/rgblight.c **** 
 421               		.loc 1 225 60 is_stmt 0 view .LVU101
 422 0000 6091 0000 		lds r22,rgblight_config
 423 0004 7091 0000 		lds r23,rgblight_config+1
 424 0008 8091 0000 		lds r24,rgblight_config+2
 425 000c 9091 0000 		lds r25,rgblight_config+3
 426               	/* epilogue start */
 225:quantum/rgblight.c **** 
 427               		.loc 1 225 1 view .LVU102
 428 0010 0895      		ret
 429               		.cfi_endproc
 430               	.LFE94:
 432               		.section	.text.rgblight_get_mode,"ax",@progbits
 433               	.global	rgblight_get_mode
 435               	rgblight_get_mode:
 436               	.LFB104:
 276:quantum/rgblight.c ****     if (!rgblight_config.enable) {
 437               		.loc 1 276 33 is_stmt 1 view -0
 438               		.cfi_startproc
 439               	/* prologue: function */
 440               	/* frame size = 0 */
 441               	/* stack size = 0 */
 442               	.L__stack_usage = 0
 277:quantum/rgblight.c ****         return false;
 443               		.loc 1 277 5 view .LVU104
 277:quantum/rgblight.c ****         return false;
 444               		.loc 1 277 25 is_stmt 0 view .LVU105
 445 0000 8091 0000 		lds r24,rgblight_config
 277:quantum/rgblight.c ****         return false;
 446               		.loc 1 277 8 view .LVU106
 447 0004 80FF      		sbrs r24,0
 448 0006 00C0      		rjmp .L20
 281:quantum/rgblight.c **** }
 449               		.loc 1 281 5 is_stmt 1 view .LVU107
 281:quantum/rgblight.c **** }
 450               		.loc 1 281 27 is_stmt 0 view .LVU108
 451 0008 8695      		lsr r24
 452 000a 0895      		ret
 453               	.L20:
 278:quantum/rgblight.c ****     }
 454               		.loc 1 278 16 view .LVU109
 455 000c 80E0      		ldi r24,0
 456               	/* epilogue start */
 282:quantum/rgblight.c **** 
 457               		.loc 1 282 1 view .LVU110
 458 000e 0895      		ret
 459               		.cfi_endproc
 460               	.LFE104:
 462               		.section	.text.rgblight_increase_speed,"ax",@progbits
 463               	.global	rgblight_increase_speed
 465               	rgblight_increase_speed:
 466               	.LFB132:
 412:quantum/rgblight.c ****     if (rgblight_config.speed < 3) rgblight_config.speed++;
 467               		.loc 1 412 36 is_stmt 1 view -0
 468               		.cfi_startproc
 469               	/* prologue: function */
 470               	/* frame size = 0 */
 471               	/* stack size = 0 */
 472               	.L__stack_usage = 0
 413:quantum/rgblight.c ****     // RGBLIGHT_SPLIT_SET_CHANGE_HSVS; // NEED?
 473               		.loc 1 413 5 view .LVU112
 413:quantum/rgblight.c ****     // RGBLIGHT_SPLIT_SET_CHANGE_HSVS; // NEED?
 474               		.loc 1 413 24 is_stmt 0 view .LVU113
 475 0000 8091 0000 		lds r24,rgblight_config+4
 413:quantum/rgblight.c ****     // RGBLIGHT_SPLIT_SET_CHANGE_HSVS; // NEED?
 476               		.loc 1 413 8 view .LVU114
 477 0004 8330      		cpi r24,lo8(3)
 478 0006 00F4      		brsh .L22
 413:quantum/rgblight.c ****     // RGBLIGHT_SPLIT_SET_CHANGE_HSVS; // NEED?
 479               		.loc 1 413 36 is_stmt 1 discriminator 1 view .LVU115
 413:quantum/rgblight.c ****     // RGBLIGHT_SPLIT_SET_CHANGE_HSVS; // NEED?
 480               		.loc 1 413 57 is_stmt 0 discriminator 1 view .LVU116
 481 0008 8F5F      		subi r24,lo8(-(1))
 482 000a 8093 0000 		sts rgblight_config+4,r24
 483               	.L22:
 415:quantum/rgblight.c **** }
 484               		.loc 1 415 5 is_stmt 1 view .LVU117
 485 000e 6091 0000 		lds r22,rgblight_config
 486 0012 7091 0000 		lds r23,rgblight_config+1
 487 0016 8091 0000 		lds r24,rgblight_config+2
 488 001a 9091 0000 		lds r25,rgblight_config+3
 489 001e 0C94 0000 		jmp eeconfig_update_rgblight
 490               	.LVL20:
 491               		.cfi_endproc
 492               	.LFE132:
 494               		.section	.text.rgblight_decrease_speed,"ax",@progbits
 495               	.global	rgblight_decrease_speed
 497               	rgblight_decrease_speed:
 498               	.LFB133:
 418:quantum/rgblight.c ****     if (rgblight_config.speed > 0) rgblight_config.speed--;
 499               		.loc 1 418 36 view -0
 500               		.cfi_startproc
 501               	/* prologue: function */
 502               	/* frame size = 0 */
 503               	/* stack size = 0 */
 504               	.L__stack_usage = 0
 419:quantum/rgblight.c ****     // RGBLIGHT_SPLIT_SET_CHANGE_HSVS; // NEED??
 505               		.loc 1 419 5 view .LVU119
 419:quantum/rgblight.c ****     // RGBLIGHT_SPLIT_SET_CHANGE_HSVS; // NEED??
 506               		.loc 1 419 24 is_stmt 0 view .LVU120
 507 0000 8091 0000 		lds r24,rgblight_config+4
 419:quantum/rgblight.c ****     // RGBLIGHT_SPLIT_SET_CHANGE_HSVS; // NEED??
 508               		.loc 1 419 8 view .LVU121
 509 0004 8823      		tst r24
 510 0006 01F0      		breq .L24
 419:quantum/rgblight.c ****     // RGBLIGHT_SPLIT_SET_CHANGE_HSVS; // NEED??
 511               		.loc 1 419 36 is_stmt 1 discriminator 1 view .LVU122
 419:quantum/rgblight.c ****     // RGBLIGHT_SPLIT_SET_CHANGE_HSVS; // NEED??
 512               		.loc 1 419 57 is_stmt 0 discriminator 1 view .LVU123
 513 0008 8150      		subi r24,lo8(-(-1))
 514 000a 8093 0000 		sts rgblight_config+4,r24
 515               	.L24:
 421:quantum/rgblight.c **** }
 516               		.loc 1 421 5 is_stmt 1 view .LVU124
 517 000e 6091 0000 		lds r22,rgblight_config
 518 0012 7091 0000 		lds r23,rgblight_config+1
 519 0016 8091 0000 		lds r24,rgblight_config+2
 520 001a 9091 0000 		lds r25,rgblight_config+3
 521 001e 0C94 0000 		jmp eeconfig_update_rgblight
 522               	.LVL21:
 523               		.cfi_endproc
 524               	.LFE133:
 526               		.section	.text.rgblight_get_speed,"ax",@progbits
 527               	.global	rgblight_get_speed
 529               	rgblight_get_speed:
 530               	.LFB138:
 508:quantum/rgblight.c **** 
 531               		.loc 1 508 34 view -0
 532               		.cfi_startproc
 533               	/* prologue: function */
 534               	/* frame size = 0 */
 535               	/* stack size = 0 */
 536               	.L__stack_usage = 0
 508:quantum/rgblight.c **** 
 537               		.loc 1 508 36 view .LVU126
 508:quantum/rgblight.c **** 
 538               		.loc 1 508 1 is_stmt 0 view .LVU127
 539 0000 8091 0000 		lds r24,rgblight_config+4
 540               	/* epilogue start */
 541 0004 0895      		ret
 542               		.cfi_endproc
 543               	.LFE138:
 545               		.section	.text.rgblight_set_speed_eeprom_helper,"ax",@progbits
 546               	.global	rgblight_set_speed_eeprom_helper
 548               	rgblight_set_speed_eeprom_helper:
 549               	.LVL22:
 550               	.LFB139:
 510:quantum/rgblight.c ****     rgblight_config.speed = speed;
 551               		.loc 1 510 76 is_stmt 1 view -0
 552               		.cfi_startproc
 553               	/* prologue: function */
 554               	/* frame size = 0 */
 555               	/* stack size = 0 */
 556               	.L__stack_usage = 0
 511:quantum/rgblight.c ****     if (write_to_eeprom) {
 557               		.loc 1 511 5 view .LVU129
 511:quantum/rgblight.c ****     if (write_to_eeprom) {
 558               		.loc 1 511 27 is_stmt 0 view .LVU130
 559 0000 8093 0000 		sts rgblight_config+4,r24
 512:quantum/rgblight.c ****         eeconfig_update_rgblight(rgblight_config.raw);  // EECONFIG needs to be increased to suppor
 560               		.loc 1 512 5 is_stmt 1 view .LVU131
 512:quantum/rgblight.c ****         eeconfig_update_rgblight(rgblight_config.raw);  // EECONFIG needs to be increased to suppor
 561               		.loc 1 512 8 is_stmt 0 view .LVU132
 562 0004 6623      		tst r22
 563 0006 01F0      		breq .L29
 513:quantum/rgblight.c ****         dprintf("rgblight set speed [EEPROM]: %u\n", rgblight_config.speed);
 564               		.loc 1 513 9 is_stmt 1 view .LVU133
 565 0008 6091 0000 		lds r22,rgblight_config
 566 000c 7091 0000 		lds r23,rgblight_config+1
 567 0010 8091 0000 		lds r24,rgblight_config+2
 568 0014 9091 0000 		lds r25,rgblight_config+3
 569               	.LVL23:
 513:quantum/rgblight.c ****         dprintf("rgblight set speed [EEPROM]: %u\n", rgblight_config.speed);
 570               		.loc 1 513 9 is_stmt 0 view .LVU134
 571 0018 0C94 0000 		jmp eeconfig_update_rgblight
 572               	.LVL24:
 573               	.L29:
 574               	/* epilogue start */
 518:quantum/rgblight.c **** 
 575               		.loc 1 518 1 view .LVU135
 576 001c 0895      		ret
 577               		.cfi_endproc
 578               	.LFE139:
 580               		.section	.text.rgblight_set_speed,"ax",@progbits
 581               	.global	rgblight_set_speed
 583               	rgblight_set_speed:
 584               	.LVL25:
 585               	.LFB140:
 520:quantum/rgblight.c **** 
 586               		.loc 1 520 40 is_stmt 1 view -0
 587               		.cfi_startproc
 588               	/* prologue: function */
 589               	/* frame size = 0 */
 590               	/* stack size = 0 */
 591               	.L__stack_usage = 0
 520:quantum/rgblight.c **** 
 592               		.loc 1 520 42 view .LVU137
 593 0000 61E0      		ldi r22,lo8(1)
 594 0002 0C94 0000 		jmp rgblight_set_speed_eeprom_helper
 595               	.LVL26:
 520:quantum/rgblight.c **** 
 596               		.loc 1 520 42 is_stmt 0 view .LVU138
 597               		.cfi_endproc
 598               	.LFE140:
 600               		.section	.text.rgblight_set_speed_noeeprom,"ax",@progbits
 601               	.global	rgblight_set_speed_noeeprom
 603               	rgblight_set_speed_noeeprom:
 604               	.LVL27:
 605               	.LFB141:
 522:quantum/rgblight.c **** 
 606               		.loc 1 522 49 is_stmt 1 view -0
 607               		.cfi_startproc
 608               	/* prologue: function */
 609               	/* frame size = 0 */
 610               	/* stack size = 0 */
 611               	.L__stack_usage = 0
 522:quantum/rgblight.c **** 
 612               		.loc 1 522 51 view .LVU140
 613 0000 60E0      		ldi r22,0
 614 0002 0C94 0000 		jmp rgblight_set_speed_eeprom_helper
 615               	.LVL28:
 522:quantum/rgblight.c **** 
 616               		.loc 1 522 51 is_stmt 0 view .LVU141
 617               		.cfi_endproc
 618               	.LFE141:
 620               		.section	.text.rgblight_get_hue,"ax",@progbits
 621               	.global	rgblight_get_hue
 623               	rgblight_get_hue:
 624               	.LFB142:
 524:quantum/rgblight.c **** 
 625               		.loc 1 524 32 is_stmt 1 view -0
 626               		.cfi_startproc
 627               	/* prologue: function */
 628               	/* frame size = 0 */
 629               	/* stack size = 0 */
 630               	.L__stack_usage = 0
 524:quantum/rgblight.c **** 
 631               		.loc 1 524 34 view .LVU143
 524:quantum/rgblight.c **** 
 632               		.loc 1 524 1 is_stmt 0 view .LVU144
 633 0000 8091 0000 		lds r24,rgblight_config+1
 634               	/* epilogue start */
 635 0004 0895      		ret
 636               		.cfi_endproc
 637               	.LFE142:
 639               		.section	.text.rgblight_get_sat,"ax",@progbits
 640               	.global	rgblight_get_sat
 642               	rgblight_get_sat:
 643               	.LFB143:
 526:quantum/rgblight.c **** 
 644               		.loc 1 526 32 is_stmt 1 view -0
 645               		.cfi_startproc
 646               	/* prologue: function */
 647               	/* frame size = 0 */
 648               	/* stack size = 0 */
 649               	.L__stack_usage = 0
 526:quantum/rgblight.c **** 
 650               		.loc 1 526 34 view .LVU146
 526:quantum/rgblight.c **** 
 651               		.loc 1 526 1 is_stmt 0 view .LVU147
 652 0000 8091 0000 		lds r24,rgblight_config+2
 653               	/* epilogue start */
 654 0004 0895      		ret
 655               		.cfi_endproc
 656               	.LFE143:
 658               		.section	.text.rgblight_get_val,"ax",@progbits
 659               	.global	rgblight_get_val
 661               	rgblight_get_val:
 662               	.LFB144:
 528:quantum/rgblight.c **** 
 663               		.loc 1 528 32 is_stmt 1 view -0
 664               		.cfi_startproc
 665               	/* prologue: function */
 666               	/* frame size = 0 */
 667               	/* stack size = 0 */
 668               	.L__stack_usage = 0
 528:quantum/rgblight.c **** 
 669               		.loc 1 528 34 view .LVU149
 528:quantum/rgblight.c **** 
 670               		.loc 1 528 1 is_stmt 0 view .LVU150
 671 0000 8091 0000 		lds r24,rgblight_config+3
 672               	/* epilogue start */
 673 0004 0895      		ret
 674               		.cfi_endproc
 675               	.LFE144:
 677               		.section	.text.rgblight_set,"ax",@progbits
 678               	.global	rgblight_set
 680               	rgblight_set:
 681               	.LFB155:
 620:quantum/rgblight.c ****     LED_TYPE *start_led;
 682               		.loc 1 620 25 is_stmt 1 view -0
 683               		.cfi_startproc
 684               	/* prologue: function */
 685               	/* frame size = 0 */
 686               	/* stack size = 0 */
 687               	.L__stack_usage = 0
 621:quantum/rgblight.c ****     uint16_t  num_leds = clipping_num_leds;
 688               		.loc 1 621 5 view .LVU152
 622:quantum/rgblight.c **** 
 689               		.loc 1 622 5 view .LVU153
 622:quantum/rgblight.c **** 
 690               		.loc 1 622 15 is_stmt 0 view .LVU154
 691 0000 A091 0000 		lds r26,clipping_num_leds
 692 0004 B0E0      		ldi r27,0
 693               	.LVL29:
 624:quantum/rgblight.c ****         for (uint8_t i = effect_start_pos; i < effect_end_pos; i++) {
 694               		.loc 1 624 5 is_stmt 1 view .LVU155
 624:quantum/rgblight.c ****         for (uint8_t i = effect_start_pos; i < effect_end_pos; i++) {
 695               		.loc 1 624 25 is_stmt 0 view .LVU156
 696 0006 8091 0000 		lds r24,rgblight_config
 624:quantum/rgblight.c ****         for (uint8_t i = effect_start_pos; i < effect_end_pos; i++) {
 697               		.loc 1 624 8 view .LVU157
 698 000a 80FF      		sbrs r24,0
 699 000c 00C0      		rjmp .L37
 700               	.L40:
 642:quantum/rgblight.c **** #    endif
 701               		.loc 1 642 5 is_stmt 1 view .LVU158
 702               	.LVL30:
 650:quantum/rgblight.c **** }
 703               		.loc 1 650 5 view .LVU159
 642:quantum/rgblight.c **** #    endif
 704               		.loc 1 642 21 is_stmt 0 view .LVU160
 705 000e 8091 0000 		lds r24,clipping_start_pos
 706 0012 90E0      		ldi r25,0
 707 0014 63E0      		ldi r22,lo8(3)
 708 0016 70E0      		ldi r23,0
 709 0018 0E94 0000 		call __mulhi3
 650:quantum/rgblight.c **** }
 710               		.loc 1 650 5 view .LVU161
 711 001c BD01      		movw r22,r26
 712 001e 8050      		subi r24,lo8(-(led))
 713 0020 9040      		sbci r25,hi8(-(led))
 714 0022 0C94 0000 		jmp ws2812_setleds
 715               	.LVL31:
 716               	.L37:
 625:quantum/rgblight.c ****             led[i].r = 0;
 717               		.loc 1 625 9 is_stmt 1 view .LVU162
 718               	.LBB22:
 625:quantum/rgblight.c ****             led[i].r = 0;
 719               		.loc 1 625 14 view .LVU163
 625:quantum/rgblight.c ****             led[i].r = 0;
 720               		.loc 1 625 22 is_stmt 0 view .LVU164
 721 0026 2091 0000 		lds r18,effect_start_pos
 722               	.LVL32:
 625:quantum/rgblight.c ****             led[i].r = 0;
 723               		.loc 1 625 46 view .LVU165
 724 002a 3091 0000 		lds r19,effect_end_pos
 725 002e 822F      		mov r24,r18
 726 0030 90E0      		ldi r25,0
 727 0032 63E0      		ldi r22,lo8(3)
 728 0034 70E0      		ldi r23,0
 729 0036 0E94 0000 		call __mulhi3
 730 003a FC01      		movw r30,r24
 731 003c E050      		subi r30,lo8(-(led))
 732 003e F040      		sbci r31,hi8(-(led))
 733               	.L38:
 625:quantum/rgblight.c ****             led[i].r = 0;
 734               		.loc 1 625 9 discriminator 1 view .LVU166
 735 0040 2317      		cp r18,r19
 736 0042 00F4      		brsh .L40
 626:quantum/rgblight.c ****             led[i].g = 0;
 737               		.loc 1 626 13 is_stmt 1 discriminator 3 view .LVU167
 626:quantum/rgblight.c ****             led[i].g = 0;
 738               		.loc 1 626 22 is_stmt 0 discriminator 3 view .LVU168
 739 0044 1182      		std Z+1,__zero_reg__
 627:quantum/rgblight.c ****             led[i].b = 0;
 740               		.loc 1 627 13 is_stmt 1 discriminator 3 view .LVU169
 627:quantum/rgblight.c ****             led[i].b = 0;
 741               		.loc 1 627 22 is_stmt 0 discriminator 3 view .LVU170
 742 0046 1082      		st Z,__zero_reg__
 628:quantum/rgblight.c **** #    ifdef RGBW
 743               		.loc 1 628 13 is_stmt 1 discriminator 3 view .LVU171
 628:quantum/rgblight.c **** #    ifdef RGBW
 744               		.loc 1 628 22 is_stmt 0 discriminator 3 view .LVU172
 745 0048 1282      		std Z+2,__zero_reg__
 625:quantum/rgblight.c ****             led[i].r = 0;
 746               		.loc 1 625 65 discriminator 3 view .LVU173
 747 004a 2F5F      		subi r18,lo8(-(1))
 748               	.LVL33:
 625:quantum/rgblight.c ****             led[i].r = 0;
 749               		.loc 1 625 65 discriminator 3 view .LVU174
 750 004c 3396      		adiw r30,3
 751 004e 00C0      		rjmp .L38
 752               	.LBE22:
 753               		.cfi_endproc
 754               	.LFE155:
 756               		.section	.text.rgblight_setrgb,"ax",@progbits
 757               	.global	rgblight_setrgb
 759               	rgblight_setrgb:
 760               	.LVL34:
 761               	.LFB145:
 530:quantum/rgblight.c ****     if (!rgblight_config.enable) {
 762               		.loc 1 530 55 is_stmt 1 view -0
 763               		.cfi_startproc
 764               	/* prologue: function */
 765               	/* frame size = 0 */
 766               	/* stack size = 0 */
 767               	.L__stack_usage = 0
 530:quantum/rgblight.c ****     if (!rgblight_config.enable) {
 768               		.loc 1 530 55 is_stmt 0 view .LVU176
 769 0000 A82F      		mov r26,r24
 770 0002 B62F      		mov r27,r22
 531:quantum/rgblight.c ****         return;
 771               		.loc 1 531 5 is_stmt 1 view .LVU177
 531:quantum/rgblight.c ****         return;
 772               		.loc 1 531 25 is_stmt 0 view .LVU178
 773 0004 8091 0000 		lds r24,rgblight_config
 774               	.LVL35:
 531:quantum/rgblight.c ****         return;
 775               		.loc 1 531 8 view .LVU179
 776 0008 80FF      		sbrs r24,0
 777 000a 00C0      		rjmp .L41
 535:quantum/rgblight.c ****         led[i].r = r;
 778               		.loc 1 535 5 is_stmt 1 view .LVU180
 779               	.LBB23:
 535:quantum/rgblight.c ****         led[i].r = r;
 780               		.loc 1 535 10 view .LVU181
 535:quantum/rgblight.c ****         led[i].r = r;
 781               		.loc 1 535 18 is_stmt 0 view .LVU182
 782 000c 2091 0000 		lds r18,effect_start_pos
 783               	.LVL36:
 535:quantum/rgblight.c ****         led[i].r = r;
 784               		.loc 1 535 42 view .LVU183
 785 0010 3091 0000 		lds r19,effect_end_pos
 786 0014 822F      		mov r24,r18
 787 0016 90E0      		ldi r25,0
 788 0018 63E0      		ldi r22,lo8(3)
 789 001a 70E0      		ldi r23,0
 790               	.LVL37:
 535:quantum/rgblight.c ****         led[i].r = r;
 791               		.loc 1 535 42 view .LVU184
 792 001c 0E94 0000 		call __mulhi3
 793 0020 FC01      		movw r30,r24
 794 0022 E050      		subi r30,lo8(-(led))
 795 0024 F040      		sbci r31,hi8(-(led))
 796               	.L43:
 535:quantum/rgblight.c ****         led[i].r = r;
 797               		.loc 1 535 5 discriminator 1 view .LVU185
 798 0026 2317      		cp r18,r19
 799 0028 00F0      		brlo .L44
 535:quantum/rgblight.c ****         led[i].r = r;
 800               		.loc 1 535 5 discriminator 1 view .LVU186
 801               	.LBE23:
 543:quantum/rgblight.c **** }
 802               		.loc 1 543 5 is_stmt 1 view .LVU187
 803 002a 0C94 0000 		jmp rgblight_set
 804               	.LVL38:
 805               	.L44:
 806               	.LBB24:
 536:quantum/rgblight.c ****         led[i].g = g;
 807               		.loc 1 536 9 discriminator 3 view .LVU188
 536:quantum/rgblight.c ****         led[i].g = g;
 808               		.loc 1 536 18 is_stmt 0 discriminator 3 view .LVU189
 809 002e A183      		std Z+1,r26
 537:quantum/rgblight.c ****         led[i].b = b;
 810               		.loc 1 537 9 is_stmt 1 discriminator 3 view .LVU190
 537:quantum/rgblight.c ****         led[i].b = b;
 811               		.loc 1 537 18 is_stmt 0 discriminator 3 view .LVU191
 812 0030 B083      		st Z,r27
 538:quantum/rgblight.c **** #ifdef RGBW
 813               		.loc 1 538 9 is_stmt 1 discriminator 3 view .LVU192
 538:quantum/rgblight.c **** #ifdef RGBW
 814               		.loc 1 538 18 is_stmt 0 discriminator 3 view .LVU193
 815 0032 4283      		std Z+2,r20
 535:quantum/rgblight.c ****         led[i].r = r;
 816               		.loc 1 535 61 discriminator 3 view .LVU194
 817 0034 2F5F      		subi r18,lo8(-(1))
 818               	.LVL39:
 535:quantum/rgblight.c ****         led[i].r = r;
 819               		.loc 1 535 61 discriminator 3 view .LVU195
 820 0036 3396      		adiw r30,3
 821 0038 00C0      		rjmp .L43
 822               	.LVL40:
 823               	.L41:
 824               	/* epilogue start */
 535:quantum/rgblight.c ****         led[i].r = r;
 825               		.loc 1 535 61 discriminator 3 view .LVU196
 826               	.LBE24:
 544:quantum/rgblight.c **** 
 827               		.loc 1 544 1 view .LVU197
 828 003a 0895      		ret
 829               		.cfi_endproc
 830               	.LFE145:
 832               		.section	.text.rgblight_sethsv_noeeprom_old,"ax",@progbits
 833               	.global	rgblight_sethsv_noeeprom_old
 835               	rgblight_sethsv_noeeprom_old:
 836               	.LVL41:
 837               	.LFB134:
 424:quantum/rgblight.c ****     if (rgblight_config.enable) {
 838               		.loc 1 424 74 is_stmt 1 view -0
 839               		.cfi_startproc
 424:quantum/rgblight.c ****     if (rgblight_config.enable) {
 840               		.loc 1 424 74 is_stmt 0 view .LVU199
 841 0000 CF93      		push r28
 842               	.LCFI6:
 843               		.cfi_def_cfa_offset 3
 844               		.cfi_offset 28, -2
 845 0002 DF93      		push r29
 846               	.LCFI7:
 847               		.cfi_def_cfa_offset 4
 848               		.cfi_offset 29, -3
 849 0004 00D0      		rcall .
 850 0006 0F92      		push __tmp_reg__
 851               	.LCFI8:
 852               		.cfi_def_cfa_offset 7
 853 0008 CDB7      		in r28,__SP_L__
 854 000a DEB7      		in r29,__SP_H__
 855               	.LCFI9:
 856               		.cfi_def_cfa_register 28
 857               	/* prologue: function */
 858               	/* frame size = 3 */
 859               	/* stack size = 5 */
 860               	.L__stack_usage = 5
 425:quantum/rgblight.c ****         LED_TYPE tmp_led;
 861               		.loc 1 425 5 is_stmt 1 view .LVU200
 425:quantum/rgblight.c ****         LED_TYPE tmp_led;
 862               		.loc 1 425 9 is_stmt 0 view .LVU201
 863 000c 9091 0000 		lds r25,rgblight_config
 425:quantum/rgblight.c ****         LED_TYPE tmp_led;
 864               		.loc 1 425 8 view .LVU202
 865 0010 90FF      		sbrs r25,0
 866 0012 00C0      		rjmp .L45
 867               	.LBB28:
 426:quantum/rgblight.c ****         sethsv(hue, sat, val, &tmp_led);
 868               		.loc 1 426 9 is_stmt 1 view .LVU203
 427:quantum/rgblight.c ****         rgblight_setrgb(tmp_led.r, tmp_led.g, tmp_led.b);
 869               		.loc 1 427 9 view .LVU204
 870               	.LVL42:
 871               	.LBB29:
 872               	.LBI29:
 125:quantum/rgblight.c **** 
 873               		.loc 1 125 6 view .LVU205
 874               	.LBB30:
 125:quantum/rgblight.c **** 
 875               		.loc 1 125 70 view .LVU206
 876 0014 9E01      		movw r18,r28
 877 0016 2F5F      		subi r18,-1
 878 0018 3F4F      		sbci r19,-1
 879 001a 0E94 0000 		call sethsv_raw
 880               	.LVL43:
 125:quantum/rgblight.c **** 
 881               		.loc 1 125 70 is_stmt 0 view .LVU207
 882               	.LBE30:
 883               	.LBE29:
 428:quantum/rgblight.c ****     }
 884               		.loc 1 428 9 is_stmt 1 view .LVU208
 885 001e 4B81      		ldd r20,Y+3
 886 0020 6981      		ldd r22,Y+1
 887 0022 8A81      		ldd r24,Y+2
 888 0024 0E94 0000 		call rgblight_setrgb
 889               	.LVL44:
 890               	.L45:
 891               	/* epilogue start */
 892               	.LBE28:
 430:quantum/rgblight.c **** 
 893               		.loc 1 430 1 is_stmt 0 view .LVU209
 894 0028 0F90      		pop __tmp_reg__
 895 002a 0F90      		pop __tmp_reg__
 896 002c 0F90      		pop __tmp_reg__
 897 002e DF91      		pop r29
 898 0030 CF91      		pop r28
 899 0032 0895      		ret
 900               		.cfi_endproc
 901               	.LFE134:
 903               		.section	.text.rgblight_effect_breathing,"ax",@progbits
 904               	.global	rgblight_effect_breathing
 906               	rgblight_effect_breathing:
 907               	.LVL45:
 908               	.LFB163:
 760:quantum/rgblight.c **** 
 761:quantum/rgblight.c **** void rgblight_task(void) {
 762:quantum/rgblight.c ****     if (rgblight_status.timer_enabled) {
 763:quantum/rgblight.c ****         effect_func_t effect_func   = rgblight_effect_dummy;
 764:quantum/rgblight.c ****         uint16_t      interval_time = 2000;  // dummy interval
 765:quantum/rgblight.c ****         uint8_t       delta         = rgblight_config.mode - rgblight_status.base_mode;
 766:quantum/rgblight.c ****         animation_status.delta      = delta;
 767:quantum/rgblight.c **** 
 768:quantum/rgblight.c ****         // static light mode, do nothing here
 769:quantum/rgblight.c ****         if (1 == 0) {  // dummy
 770:quantum/rgblight.c ****         }
 771:quantum/rgblight.c **** #    ifdef RGBLIGHT_EFFECT_BREATHING
 772:quantum/rgblight.c ****         else if (rgblight_status.base_mode == RGBLIGHT_MODE_BREATHING) {
 773:quantum/rgblight.c ****             // breathing mode
 774:quantum/rgblight.c ****             interval_time = get_interval_time(&RGBLED_BREATHING_INTERVALS[delta], 1, 100);
 775:quantum/rgblight.c ****             effect_func   = rgblight_effect_breathing;
 776:quantum/rgblight.c ****         }
 777:quantum/rgblight.c **** #    endif
 778:quantum/rgblight.c **** #    ifdef RGBLIGHT_EFFECT_RAINBOW_MOOD
 779:quantum/rgblight.c ****         else if (rgblight_status.base_mode == RGBLIGHT_MODE_RAINBOW_MOOD) {
 780:quantum/rgblight.c ****             // rainbow mood mode
 781:quantum/rgblight.c ****             interval_time = get_interval_time(&RGBLED_RAINBOW_MOOD_INTERVALS[delta], 5, 100);
 782:quantum/rgblight.c ****             effect_func   = rgblight_effect_rainbow_mood;
 783:quantum/rgblight.c ****         }
 784:quantum/rgblight.c **** #    endif
 785:quantum/rgblight.c **** #    ifdef RGBLIGHT_EFFECT_RAINBOW_SWIRL
 786:quantum/rgblight.c ****         else if (rgblight_status.base_mode == RGBLIGHT_MODE_RAINBOW_SWIRL) {
 787:quantum/rgblight.c ****             // rainbow swirl mode
 788:quantum/rgblight.c ****             interval_time = get_interval_time(&RGBLED_RAINBOW_SWIRL_INTERVALS[delta / 2], 1, 100);
 789:quantum/rgblight.c ****             effect_func   = rgblight_effect_rainbow_swirl;
 790:quantum/rgblight.c ****         }
 791:quantum/rgblight.c **** #    endif
 792:quantum/rgblight.c **** #    ifdef RGBLIGHT_EFFECT_SNAKE
 793:quantum/rgblight.c ****         else if (rgblight_status.base_mode == RGBLIGHT_MODE_SNAKE) {
 794:quantum/rgblight.c ****             // snake mode
 795:quantum/rgblight.c ****             interval_time = get_interval_time(&RGBLED_SNAKE_INTERVALS[delta / 2], 1, 200);
 796:quantum/rgblight.c ****             effect_func   = rgblight_effect_snake;
 797:quantum/rgblight.c ****         }
 798:quantum/rgblight.c **** #    endif
 799:quantum/rgblight.c **** #    ifdef RGBLIGHT_EFFECT_KNIGHT
 800:quantum/rgblight.c ****         else if (rgblight_status.base_mode == RGBLIGHT_MODE_KNIGHT) {
 801:quantum/rgblight.c ****             // knight mode
 802:quantum/rgblight.c ****             interval_time = get_interval_time(&RGBLED_KNIGHT_INTERVALS[delta], 5, 100);
 803:quantum/rgblight.c ****             effect_func   = rgblight_effect_knight;
 804:quantum/rgblight.c ****         }
 805:quantum/rgblight.c **** #    endif
 806:quantum/rgblight.c **** #    ifdef RGBLIGHT_EFFECT_CHRISTMAS
 807:quantum/rgblight.c ****         else if (rgblight_status.base_mode == RGBLIGHT_MODE_CHRISTMAS) {
 808:quantum/rgblight.c ****             // christmas mode
 809:quantum/rgblight.c ****             interval_time = RGBLIGHT_EFFECT_CHRISTMAS_INTERVAL;
 810:quantum/rgblight.c ****             effect_func   = (effect_func_t)rgblight_effect_christmas;
 811:quantum/rgblight.c ****         }
 812:quantum/rgblight.c **** #    endif
 813:quantum/rgblight.c **** #    ifdef RGBLIGHT_EFFECT_RGB_TEST
 814:quantum/rgblight.c ****         else if (rgblight_status.base_mode == RGBLIGHT_MODE_RGB_TEST) {
 815:quantum/rgblight.c ****             // RGB test mode
 816:quantum/rgblight.c ****             interval_time = pgm_read_word(&RGBLED_RGBTEST_INTERVALS[0]);
 817:quantum/rgblight.c ****             effect_func   = (effect_func_t)rgblight_effect_rgbtest;
 818:quantum/rgblight.c ****         }
 819:quantum/rgblight.c **** #    endif
 820:quantum/rgblight.c **** #    ifdef RGBLIGHT_EFFECT_ALTERNATING
 821:quantum/rgblight.c ****         else if (rgblight_status.base_mode == RGBLIGHT_MODE_ALTERNATING) {
 822:quantum/rgblight.c ****             interval_time = 500;
 823:quantum/rgblight.c ****             effect_func   = (effect_func_t)rgblight_effect_alternating;
 824:quantum/rgblight.c ****         }
 825:quantum/rgblight.c **** #    endif
 826:quantum/rgblight.c ****         if (animation_status.restart) {
 827:quantum/rgblight.c ****             animation_status.restart    = false;
 828:quantum/rgblight.c ****             animation_status.last_timer = timer_read() - interval_time - 1;
 829:quantum/rgblight.c ****             animation_status.pos16      = 0;  // restart signal to local each effect
 830:quantum/rgblight.c ****         }
 831:quantum/rgblight.c ****         if (timer_elapsed(animation_status.last_timer) >= interval_time) {
 832:quantum/rgblight.c **** #    if defined(RGBLIGHT_SPLIT) && !defined(RGBLIGHT_SPLIT_NO_ANIMATION_SYNC)
 833:quantum/rgblight.c ****             static uint16_t report_last_timer = 0;
 834:quantum/rgblight.c ****             static bool     tick_flag         = false;
 835:quantum/rgblight.c ****             uint16_t        oldpos16;
 836:quantum/rgblight.c ****             if (tick_flag) {
 837:quantum/rgblight.c ****                 tick_flag = false;
 838:quantum/rgblight.c ****                 if (timer_elapsed(report_last_timer) >= 30000) {
 839:quantum/rgblight.c ****                     report_last_timer = timer_read();
 840:quantum/rgblight.c ****                     dprintf("rgblight animation tick report to slave\n");
 841:quantum/rgblight.c ****                     RGBLIGHT_SPLIT_ANIMATION_TICK;
 842:quantum/rgblight.c ****                 }
 843:quantum/rgblight.c ****             }
 844:quantum/rgblight.c ****             oldpos16 = animation_status.pos16;
 845:quantum/rgblight.c **** #    endif
 846:quantum/rgblight.c ****             animation_status.last_timer += interval_time;
 847:quantum/rgblight.c ****             effect_func(&animation_status);
 848:quantum/rgblight.c **** #    if defined(RGBLIGHT_SPLIT) && !defined(RGBLIGHT_SPLIT_NO_ANIMATION_SYNC)
 849:quantum/rgblight.c ****             if (animation_status.pos16 == 0 && oldpos16 != 0) {
 850:quantum/rgblight.c ****                 tick_flag = true;
 851:quantum/rgblight.c ****             }
 852:quantum/rgblight.c **** #    endif
 853:quantum/rgblight.c ****         }
 854:quantum/rgblight.c ****     }
 855:quantum/rgblight.c **** }
 856:quantum/rgblight.c **** 
 857:quantum/rgblight.c **** #endif /* RGBLIGHT_USE_TIMER */
 858:quantum/rgblight.c **** 
 859:quantum/rgblight.c **** // Effects
 860:quantum/rgblight.c **** #ifdef RGBLIGHT_EFFECT_BREATHING
 861:quantum/rgblight.c **** 
 862:quantum/rgblight.c **** #    ifndef RGBLIGHT_EFFECT_BREATHE_CENTER
 863:quantum/rgblight.c **** #        ifndef RGBLIGHT_BREATHE_TABLE_SIZE
 864:quantum/rgblight.c **** #            define RGBLIGHT_BREATHE_TABLE_SIZE 256  // 256 or 128 or 64
 865:quantum/rgblight.c **** #        endif
 866:quantum/rgblight.c **** #        include <rgblight_breathe_table.h>
 867:quantum/rgblight.c **** #    endif
 868:quantum/rgblight.c **** 
 869:quantum/rgblight.c **** __attribute__((weak)) const uint8_t RGBLED_BREATHING_INTERVALS[] PROGMEM = {30, 20, 10, 5};
 870:quantum/rgblight.c **** 
 871:quantum/rgblight.c **** void rgblight_effect_breathing(animation_status_t *anim) {
 909               		.loc 1 871 58 is_stmt 1 view -0
 910               		.cfi_startproc
 911               		.loc 1 871 58 is_stmt 0 view .LVU211
 912 0000 CF93      		push r28
 913               	.LCFI10:
 914               		.cfi_def_cfa_offset 3
 915               		.cfi_offset 28, -2
 916 0002 DF93      		push r29
 917               	.LCFI11:
 918               		.cfi_def_cfa_offset 4
 919               		.cfi_offset 29, -3
 920               	/* prologue: function */
 921               	/* frame size = 0 */
 922               	/* stack size = 2 */
 923               	.L__stack_usage = 2
 924 0004 EC01      		movw r28,r24
 872:quantum/rgblight.c ****     float val;
 925               		.loc 1 872 5 is_stmt 1 view .LVU212
 873:quantum/rgblight.c **** 
 874:quantum/rgblight.c ****     // http://sean.voisen.org/blog/2011/10/breathing-led-with-arduino/
 875:quantum/rgblight.c **** #    ifdef RGBLIGHT_EFFECT_BREATHE_TABLE
 876:quantum/rgblight.c ****     val = pgm_read_byte(&rgblight_effect_breathe_table[anim->pos / table_scale]);
 926               		.loc 1 876 5 view .LVU213
 927               	.LBB31:
 928               		.loc 1 876 11 view .LVU214
 929               	.LVL46:
 930               		.loc 1 876 11 view .LVU215
 931               		.loc 1 876 11 view .LVU216
 932 0006 EC81      		ldd r30,Y+4
 933 0008 F0E0      		ldi r31,0
 934 000a E050      		subi r30,lo8(-(rgblight_effect_breathe_table))
 935 000c F040      		sbci r31,hi8(-(rgblight_effect_breathe_table))
 936               	/* #APP */
 937               	 ;  876 "quantum/rgblight.c" 1
 938 000e 4491      		lpm r20, Z
 939               		
 940               	 ;  0 "" 2
 941               	.LVL47:
 942               		.loc 1 876 11 view .LVU217
 943               		.loc 1 876 11 is_stmt 0 view .LVU218
 944               	/* #NOAPP */
 945               	.LBE31:
 877:quantum/rgblight.c **** #    else
 878:quantum/rgblight.c ****     val = (exp(sin((anim->pos / 255.0) * M_PI)) - RGBLIGHT_EFFECT_BREATHE_CENTER / M_E) * (RGBLIGHT
 879:quantum/rgblight.c **** #    endif
 880:quantum/rgblight.c ****     rgblight_sethsv_noeeprom_old(rgblight_config.hue, rgblight_config.sat, val);
 946               		.loc 1 880 5 is_stmt 1 view .LVU219
 947 0010 E0E0      		ldi r30,lo8(rgblight_config)
 948 0012 F0E0      		ldi r31,hi8(rgblight_config)
 949 0014 6281      		ldd r22,Z+2
 950 0016 8181      		ldd r24,Z+1
 951               	.LVL48:
 952               		.loc 1 880 5 is_stmt 0 view .LVU220
 953 0018 0E94 0000 		call rgblight_sethsv_noeeprom_old
 954               	.LVL49:
 881:quantum/rgblight.c ****     anim->pos = (anim->pos + 1);
 955               		.loc 1 881 5 is_stmt 1 view .LVU221
 956               		.loc 1 881 28 is_stmt 0 view .LVU222
 957 001c 8C81      		ldd r24,Y+4
 958 001e 8F5F      		subi r24,lo8(-(1))
 959               		.loc 1 881 15 view .LVU223
 960 0020 8C83      		std Y+4,r24
 961               	/* epilogue start */
 882:quantum/rgblight.c **** }
 962               		.loc 1 882 1 view .LVU224
 963 0022 DF91      		pop r29
 964 0024 CF91      		pop r28
 965               	.LVL50:
 966               		.loc 1 882 1 view .LVU225
 967 0026 0895      		ret
 968               		.cfi_endproc
 969               	.LFE163:
 971               		.section	.text.rgblight_effect_rainbow_mood,"ax",@progbits
 972               	.global	rgblight_effect_rainbow_mood
 974               	rgblight_effect_rainbow_mood:
 975               	.LVL51:
 976               	.LFB164:
 883:quantum/rgblight.c **** #endif
 884:quantum/rgblight.c **** 
 885:quantum/rgblight.c **** #ifdef RGBLIGHT_EFFECT_RAINBOW_MOOD
 886:quantum/rgblight.c **** __attribute__((weak)) const uint8_t RGBLED_RAINBOW_MOOD_INTERVALS[] PROGMEM = {120, 60, 30};
 887:quantum/rgblight.c **** 
 888:quantum/rgblight.c **** void rgblight_effect_rainbow_mood(animation_status_t *anim) {
 977               		.loc 1 888 61 is_stmt 1 view -0
 978               		.cfi_startproc
 979               		.loc 1 888 61 is_stmt 0 view .LVU227
 980 0000 CF93      		push r28
 981               	.LCFI12:
 982               		.cfi_def_cfa_offset 3
 983               		.cfi_offset 28, -2
 984 0002 DF93      		push r29
 985               	.LCFI13:
 986               		.cfi_def_cfa_offset 4
 987               		.cfi_offset 29, -3
 988               	/* prologue: function */
 989               	/* frame size = 0 */
 990               	/* stack size = 2 */
 991               	.L__stack_usage = 2
 992 0004 EC01      		movw r28,r24
 889:quantum/rgblight.c ****     rgblight_sethsv_noeeprom_old(anim->current_hue, rgblight_config.sat, rgblight_config.val);
 993               		.loc 1 889 5 is_stmt 1 view .LVU228
 994 0006 E0E0      		ldi r30,lo8(rgblight_config)
 995 0008 F0E0      		ldi r31,hi8(rgblight_config)
 996 000a 4381      		ldd r20,Z+3
 997 000c 6281      		ldd r22,Z+2
 998 000e 8C81      		ldd r24,Y+4
 999               	.LVL52:
 1000               		.loc 1 889 5 is_stmt 0 view .LVU229
 1001 0010 0E94 0000 		call rgblight_sethsv_noeeprom_old
 1002               	.LVL53:
 890:quantum/rgblight.c ****     anim->current_hue++;
 1003               		.loc 1 890 5 is_stmt 1 view .LVU230
 1004               		.loc 1 890 22 is_stmt 0 view .LVU231
 1005 0014 8C81      		ldd r24,Y+4
 1006 0016 8F5F      		subi r24,lo8(-(1))
 1007 0018 8C83      		std Y+4,r24
 1008               	/* epilogue start */
 891:quantum/rgblight.c **** }
 1009               		.loc 1 891 1 view .LVU232
 1010 001a DF91      		pop r29
 1011 001c CF91      		pop r28
 1012               	.LVL54:
 1013               		.loc 1 891 1 view .LVU233
 1014 001e 0895      		ret
 1015               		.cfi_endproc
 1016               	.LFE164:
 1018               		.section	.text.rgblight_effect_rgbtest,"ax",@progbits
 1019               	.global	rgblight_effect_rgbtest
 1021               	rgblight_effect_rgbtest:
 1022               	.LVL55:
 1023               	.LFB169:
 892:quantum/rgblight.c **** #endif
 893:quantum/rgblight.c **** 
 894:quantum/rgblight.c **** #ifdef RGBLIGHT_EFFECT_RAINBOW_SWIRL
 895:quantum/rgblight.c **** #    ifndef RGBLIGHT_RAINBOW_SWIRL_RANGE
 896:quantum/rgblight.c **** #        define RGBLIGHT_RAINBOW_SWIRL_RANGE 255
 897:quantum/rgblight.c **** #    endif
 898:quantum/rgblight.c **** 
 899:quantum/rgblight.c **** __attribute__((weak)) const uint8_t RGBLED_RAINBOW_SWIRL_INTERVALS[] PROGMEM = {100, 50, 20};
 900:quantum/rgblight.c **** 
 901:quantum/rgblight.c **** void rgblight_effect_rainbow_swirl(animation_status_t *anim) {
 902:quantum/rgblight.c ****     uint8_t hue;
 903:quantum/rgblight.c ****     uint8_t i;
 904:quantum/rgblight.c **** 
 905:quantum/rgblight.c ****     for (i = 0; i < effect_num_leds; i++) {
 906:quantum/rgblight.c ****         hue = (RGBLIGHT_RAINBOW_SWIRL_RANGE / effect_num_leds * i + anim->current_hue);
 907:quantum/rgblight.c ****         sethsv(hue, rgblight_config.sat, rgblight_config.val, (LED_TYPE *)&led[i + effect_start_pos
 908:quantum/rgblight.c ****     }
 909:quantum/rgblight.c ****     rgblight_set();
 910:quantum/rgblight.c **** 
 911:quantum/rgblight.c ****     if (anim->delta % 2) {
 912:quantum/rgblight.c ****         anim->current_hue++;
 913:quantum/rgblight.c ****     } else {
 914:quantum/rgblight.c ****         anim->current_hue--;
 915:quantum/rgblight.c ****     }
 916:quantum/rgblight.c **** }
 917:quantum/rgblight.c **** #endif
 918:quantum/rgblight.c **** 
 919:quantum/rgblight.c **** #ifdef RGBLIGHT_EFFECT_SNAKE
 920:quantum/rgblight.c **** __attribute__((weak)) const uint8_t RGBLED_SNAKE_INTERVALS[] PROGMEM = {100, 50, 20};
 921:quantum/rgblight.c **** 
 922:quantum/rgblight.c **** void rgblight_effect_snake(animation_status_t *anim) {
 923:quantum/rgblight.c ****     static uint8_t pos = 0;
 924:quantum/rgblight.c ****     uint8_t        i, j;
 925:quantum/rgblight.c ****     int8_t         k;
 926:quantum/rgblight.c ****     int8_t         increment = 1;
 927:quantum/rgblight.c **** 
 928:quantum/rgblight.c ****     if (anim->delta % 2) {
 929:quantum/rgblight.c ****         increment = -1;
 930:quantum/rgblight.c ****     }
 931:quantum/rgblight.c **** 
 932:quantum/rgblight.c **** #    if defined(RGBLIGHT_SPLIT) && !defined(RGBLIGHT_SPLIT_NO_ANIMATION_SYNC)
 933:quantum/rgblight.c ****     if (anim->pos == 0) {  // restart signal
 934:quantum/rgblight.c ****         if (increment == 1) {
 935:quantum/rgblight.c ****             pos = effect_num_leds - 1;
 936:quantum/rgblight.c ****         } else {
 937:quantum/rgblight.c ****             pos = 0;
 938:quantum/rgblight.c ****         }
 939:quantum/rgblight.c ****         anim->pos = 1;
 940:quantum/rgblight.c ****     }
 941:quantum/rgblight.c **** #    endif
 942:quantum/rgblight.c **** 
 943:quantum/rgblight.c ****     for (i = 0; i < effect_num_leds; i++) {
 944:quantum/rgblight.c ****         LED_TYPE *ledp = led + i + effect_start_pos;
 945:quantum/rgblight.c ****         ledp->r        = 0;
 946:quantum/rgblight.c ****         ledp->g        = 0;
 947:quantum/rgblight.c ****         ledp->b        = 0;
 948:quantum/rgblight.c **** #    ifdef RGBW
 949:quantum/rgblight.c ****         ledp->w = 0;
 950:quantum/rgblight.c **** #    endif
 951:quantum/rgblight.c ****         for (j = 0; j < RGBLIGHT_EFFECT_SNAKE_LENGTH; j++) {
 952:quantum/rgblight.c ****             k = pos + j * increment;
 953:quantum/rgblight.c ****             if (k > RGBLED_NUM) {
 954:quantum/rgblight.c ****                 k = k % RGBLED_NUM;
 955:quantum/rgblight.c ****             }
 956:quantum/rgblight.c ****             if (k < 0) {
 957:quantum/rgblight.c ****                 k = k + effect_num_leds;
 958:quantum/rgblight.c ****             }
 959:quantum/rgblight.c ****             if (i == k) {
 960:quantum/rgblight.c ****                 sethsv(rgblight_config.hue, rgblight_config.sat, (uint8_t)(rgblight_config.val * (R
 961:quantum/rgblight.c ****             }
 962:quantum/rgblight.c ****         }
 963:quantum/rgblight.c ****     }
 964:quantum/rgblight.c ****     rgblight_set();
 965:quantum/rgblight.c ****     if (increment == 1) {
 966:quantum/rgblight.c ****         if (pos - 1 < 0) {
 967:quantum/rgblight.c ****             pos = effect_num_leds - 1;
 968:quantum/rgblight.c **** #    if defined(RGBLIGHT_SPLIT) && !defined(RGBLIGHT_SPLIT_NO_ANIMATION_SYNC)
 969:quantum/rgblight.c ****             anim->pos = 0;
 970:quantum/rgblight.c **** #    endif
 971:quantum/rgblight.c ****         } else {
 972:quantum/rgblight.c ****             pos -= 1;
 973:quantum/rgblight.c **** #    if defined(RGBLIGHT_SPLIT) && !defined(RGBLIGHT_SPLIT_NO_ANIMATION_SYNC)
 974:quantum/rgblight.c ****             anim->pos = 1;
 975:quantum/rgblight.c **** #    endif
 976:quantum/rgblight.c ****         }
 977:quantum/rgblight.c ****     } else {
 978:quantum/rgblight.c ****         pos = (pos + 1) % effect_num_leds;
 979:quantum/rgblight.c **** #    if defined(RGBLIGHT_SPLIT) && !defined(RGBLIGHT_SPLIT_NO_ANIMATION_SYNC)
 980:quantum/rgblight.c ****         anim->pos = pos;
 981:quantum/rgblight.c **** #    endif
 982:quantum/rgblight.c ****     }
 983:quantum/rgblight.c **** }
 984:quantum/rgblight.c **** #endif
 985:quantum/rgblight.c **** 
 986:quantum/rgblight.c **** #ifdef RGBLIGHT_EFFECT_KNIGHT
 987:quantum/rgblight.c **** __attribute__((weak)) const uint8_t RGBLED_KNIGHT_INTERVALS[] PROGMEM = {127, 63, 31};
 988:quantum/rgblight.c **** 
 989:quantum/rgblight.c **** void rgblight_effect_knight(animation_status_t *anim) {
 990:quantum/rgblight.c ****     static int8_t low_bound  = 0;
 991:quantum/rgblight.c ****     static int8_t high_bound = RGBLIGHT_EFFECT_KNIGHT_LENGTH - 1;
 992:quantum/rgblight.c ****     static int8_t increment  = 1;
 993:quantum/rgblight.c ****     uint8_t       i, cur;
 994:quantum/rgblight.c **** 
 995:quantum/rgblight.c **** #    if defined(RGBLIGHT_SPLIT) && !defined(RGBLIGHT_SPLIT_NO_ANIMATION_SYNC)
 996:quantum/rgblight.c ****     if (anim->pos == 0) {  // restart signal
 997:quantum/rgblight.c ****         anim->pos  = 1;
 998:quantum/rgblight.c ****         low_bound  = 0;
 999:quantum/rgblight.c ****         high_bound = RGBLIGHT_EFFECT_KNIGHT_LENGTH - 1;
1000:quantum/rgblight.c ****         increment  = 1;
1001:quantum/rgblight.c ****     }
1002:quantum/rgblight.c **** #    endif
1003:quantum/rgblight.c ****     // Set all the LEDs to 0
1004:quantum/rgblight.c ****     for (i = effect_start_pos; i < effect_end_pos; i++) {
1005:quantum/rgblight.c ****         led[i].r = 0;
1006:quantum/rgblight.c ****         led[i].g = 0;
1007:quantum/rgblight.c ****         led[i].b = 0;
1008:quantum/rgblight.c **** #    ifdef RGBW
1009:quantum/rgblight.c ****         led[i].w = 0;
1010:quantum/rgblight.c **** #    endif
1011:quantum/rgblight.c ****     }
1012:quantum/rgblight.c ****     // Determine which LEDs should be lit up
1013:quantum/rgblight.c ****     for (i = 0; i < RGBLIGHT_EFFECT_KNIGHT_LED_NUM; i++) {
1014:quantum/rgblight.c ****         cur = (i + RGBLIGHT_EFFECT_KNIGHT_OFFSET) % effect_num_leds + effect_start_pos;
1015:quantum/rgblight.c **** 
1016:quantum/rgblight.c ****         if (i >= low_bound && i <= high_bound) {
1017:quantum/rgblight.c ****             sethsv(rgblight_config.hue, rgblight_config.sat, rgblight_config.val, (LED_TYPE *)&led[
1018:quantum/rgblight.c ****         } else {
1019:quantum/rgblight.c ****             led[cur].r = 0;
1020:quantum/rgblight.c ****             led[cur].g = 0;
1021:quantum/rgblight.c ****             led[cur].b = 0;
1022:quantum/rgblight.c **** #    ifdef RGBW
1023:quantum/rgblight.c ****             led[cur].w = 0;
1024:quantum/rgblight.c **** #    endif
1025:quantum/rgblight.c ****         }
1026:quantum/rgblight.c ****     }
1027:quantum/rgblight.c ****     rgblight_set();
1028:quantum/rgblight.c **** 
1029:quantum/rgblight.c ****     // Move from low_bound to high_bound changing the direction we increment each
1030:quantum/rgblight.c ****     // time a boundary is hit.
1031:quantum/rgblight.c ****     low_bound += increment;
1032:quantum/rgblight.c ****     high_bound += increment;
1033:quantum/rgblight.c **** 
1034:quantum/rgblight.c ****     if (high_bound <= 0 || low_bound >= RGBLIGHT_EFFECT_KNIGHT_LED_NUM - 1) {
1035:quantum/rgblight.c ****         increment = -increment;
1036:quantum/rgblight.c **** #    if defined(RGBLIGHT_SPLIT) && !defined(RGBLIGHT_SPLIT_NO_ANIMATION_SYNC)
1037:quantum/rgblight.c ****         if (increment == 1) {
1038:quantum/rgblight.c ****             anim->pos = 0;
1039:quantum/rgblight.c ****         }
1040:quantum/rgblight.c **** #    endif
1041:quantum/rgblight.c ****     }
1042:quantum/rgblight.c **** }
1043:quantum/rgblight.c **** #endif
1044:quantum/rgblight.c **** 
1045:quantum/rgblight.c **** #ifdef RGBLIGHT_EFFECT_CHRISTMAS
1046:quantum/rgblight.c **** void rgblight_effect_christmas(animation_status_t *anim) {
1047:quantum/rgblight.c ****     uint8_t hue;
1048:quantum/rgblight.c ****     uint8_t i;
1049:quantum/rgblight.c **** 
1050:quantum/rgblight.c ****     anim->current_offset = (anim->current_offset + 1) % 2;
1051:quantum/rgblight.c ****     for (i = 0; i < effect_num_leds; i++) {
1052:quantum/rgblight.c ****         hue = 0 + ((i / RGBLIGHT_EFFECT_CHRISTMAS_STEP + anim->current_offset) % 2) * 85;
1053:quantum/rgblight.c ****         sethsv(hue, rgblight_config.sat, rgblight_config.val, (LED_TYPE *)&led[i + effect_start_pos
1054:quantum/rgblight.c ****     }
1055:quantum/rgblight.c ****     rgblight_set();
1056:quantum/rgblight.c **** }
1057:quantum/rgblight.c **** #endif
1058:quantum/rgblight.c **** 
1059:quantum/rgblight.c **** #ifdef RGBLIGHT_EFFECT_RGB_TEST
1060:quantum/rgblight.c **** __attribute__((weak)) const uint16_t RGBLED_RGBTEST_INTERVALS[] PROGMEM = {1024};
1061:quantum/rgblight.c **** 
1062:quantum/rgblight.c **** void rgblight_effect_rgbtest(animation_status_t *anim) {
 1024               		.loc 1 1062 56 is_stmt 1 view -0
 1025               		.cfi_startproc
 1026               		.loc 1 1062 56 is_stmt 0 view .LVU235
 1027 0000 0F93      		push r16
 1028               	.LCFI14:
 1029               		.cfi_def_cfa_offset 3
 1030               		.cfi_offset 16, -2
 1031 0002 1F93      		push r17
 1032               	.LCFI15:
 1033               		.cfi_def_cfa_offset 4
 1034               		.cfi_offset 17, -3
 1035 0004 CF93      		push r28
 1036               	.LCFI16:
 1037               		.cfi_def_cfa_offset 5
 1038               		.cfi_offset 28, -4
 1039 0006 DF93      		push r29
 1040               	.LCFI17:
 1041               		.cfi_def_cfa_offset 6
 1042               		.cfi_offset 29, -5
 1043 0008 00D0      		rcall .
 1044 000a 0F92      		push __tmp_reg__
 1045               	.LCFI18:
 1046               		.cfi_def_cfa_offset 9
 1047 000c CDB7      		in r28,__SP_L__
 1048 000e DEB7      		in r29,__SP_H__
 1049               	.LCFI19:
 1050               		.cfi_def_cfa_register 28
 1051               	/* prologue: function */
 1052               	/* frame size = 3 */
 1053               	/* stack size = 7 */
 1054               	.L__stack_usage = 7
 1055 0010 8C01      		movw r16,r24
1063:quantum/rgblight.c ****     static uint8_t maxval = 0;
 1056               		.loc 1 1063 5 is_stmt 1 view .LVU236
1064:quantum/rgblight.c ****     uint8_t        g;
 1057               		.loc 1 1064 5 view .LVU237
1065:quantum/rgblight.c ****     uint8_t        r;
 1058               		.loc 1 1065 5 view .LVU238
1066:quantum/rgblight.c ****     uint8_t        b;
 1059               		.loc 1 1066 5 view .LVU239
1067:quantum/rgblight.c **** 
1068:quantum/rgblight.c ****     if (maxval == 0) {
 1060               		.loc 1 1068 5 view .LVU240
 1061               		.loc 1 1068 8 is_stmt 0 view .LVU241
 1062 0012 8091 0000 		lds r24,maxval.3251
 1063               	.LVL56:
 1064               		.loc 1 1068 8 view .LVU242
 1065 0016 8111      		cpse r24,__zero_reg__
 1066 0018 00C0      		rjmp .L53
 1067               	.LBB35:
1069:quantum/rgblight.c ****         LED_TYPE tmp_led;
 1068               		.loc 1 1069 9 is_stmt 1 view .LVU243
1070:quantum/rgblight.c ****         sethsv(0, 255, RGBLIGHT_LIMIT_VAL, &tmp_led);
 1069               		.loc 1 1070 9 view .LVU244
 1070               	.LVL57:
 1071               	.LBB36:
 1072               	.LBI36:
 125:quantum/rgblight.c **** 
 1073               		.loc 1 125 6 view .LVU245
 1074               	.LBB37:
 125:quantum/rgblight.c **** 
 1075               		.loc 1 125 70 view .LVU246
 1076 001a 9E01      		movw r18,r28
 1077 001c 2F5F      		subi r18,-1
 1078 001e 3F4F      		sbci r19,-1
 1079 0020 4FEF      		ldi r20,lo8(-1)
 1080 0022 6FEF      		ldi r22,lo8(-1)
 1081 0024 0E94 0000 		call sethsv_raw
 1082               	.LVL58:
 125:quantum/rgblight.c **** 
 1083               		.loc 1 125 70 is_stmt 0 view .LVU247
 1084               	.LBE37:
 1085               	.LBE36:
1071:quantum/rgblight.c ****         maxval = tmp_led.r;
 1086               		.loc 1 1071 9 is_stmt 1 view .LVU248
 1087               		.loc 1 1071 16 is_stmt 0 view .LVU249
 1088 0028 8A81      		ldd r24,Y+2
 1089 002a 8093 0000 		sts maxval.3251,r24
 1090               	.L53:
 1091               	.LBE35:
1072:quantum/rgblight.c ****     }
1073:quantum/rgblight.c ****     g = r = b = 0;
 1092               		.loc 1 1073 5 is_stmt 1 view .LVU250
 1093               	.LVL59:
1074:quantum/rgblight.c ****     switch (anim->pos) {
 1094               		.loc 1 1074 5 view .LVU251
 1095               		.loc 1 1074 17 is_stmt 0 view .LVU252
 1096 002e F801      		movw r30,r16
 1097 0030 6481      		ldd r22,Z+4
 1098               		.loc 1 1074 5 view .LVU253
 1099 0032 6130      		cpi r22,lo8(1)
 1100 0034 01F0      		breq .L54
1075:quantum/rgblight.c ****         case 0:
1076:quantum/rgblight.c ****             r = maxval;
 1101               		.loc 1 1076 15 view .LVU254
 1102 0036 8091 0000 		lds r24,maxval.3251
 1103               	.LVL60:
1077:quantum/rgblight.c ****             break;
 1104               		.loc 1 1077 13 is_stmt 1 view .LVU255
1073:quantum/rgblight.c ****     switch (anim->pos) {
 1105               		.loc 1 1073 15 is_stmt 0 view .LVU256
 1106 003a 40E0      		ldi r20,0
1074:quantum/rgblight.c ****         case 0:
 1107               		.loc 1 1074 5 view .LVU257
 1108 003c 6623      		tst r22
 1109 003e 01F0      		breq .L57
1073:quantum/rgblight.c ****     switch (anim->pos) {
 1110               		.loc 1 1073 15 view .LVU258
 1111 0040 40E0      		ldi r20,0
1074:quantum/rgblight.c ****         case 0:
 1112               		.loc 1 1074 5 view .LVU259
 1113 0042 6230      		cpi r22,lo8(2)
 1114 0044 01F4      		brne .L58
1078:quantum/rgblight.c ****         case 1:
1079:quantum/rgblight.c ****             g = maxval;
1080:quantum/rgblight.c ****             break;
1081:quantum/rgblight.c ****         case 2:
1082:quantum/rgblight.c ****             b = maxval;
 1115               		.loc 1 1082 13 is_stmt 1 view .LVU260
 1116               		.loc 1 1082 15 is_stmt 0 view .LVU261
 1117 0046 4091 0000 		lds r20,maxval.3251
 1118               	.L58:
 1119               	.LVL61:
1083:quantum/rgblight.c ****             break;
 1120               		.loc 1 1083 13 is_stmt 1 view .LVU262
1073:quantum/rgblight.c ****     switch (anim->pos) {
 1121               		.loc 1 1073 11 is_stmt 0 view .LVU263
 1122 004a 80E0      		ldi r24,0
 1123               	.LVL62:
1073:quantum/rgblight.c ****     switch (anim->pos) {
 1124               		.loc 1 1073 7 view .LVU264
 1125 004c 60E0      		ldi r22,0
 1126               		.loc 1 1083 13 view .LVU265
 1127 004e 00C0      		rjmp .L57
 1128               	.LVL63:
 1129               	.L54:
1079:quantum/rgblight.c ****             break;
 1130               		.loc 1 1079 13 is_stmt 1 view .LVU266
1079:quantum/rgblight.c ****             break;
 1131               		.loc 1 1079 15 is_stmt 0 view .LVU267
 1132 0050 6091 0000 		lds r22,maxval.3251
 1133               	.LVL64:
1080:quantum/rgblight.c ****         case 2:
 1134               		.loc 1 1080 13 is_stmt 1 view .LVU268
1073:quantum/rgblight.c ****     switch (anim->pos) {
 1135               		.loc 1 1073 15 is_stmt 0 view .LVU269
 1136 0054 40E0      		ldi r20,0
1073:quantum/rgblight.c ****     switch (anim->pos) {
 1137               		.loc 1 1073 11 view .LVU270
 1138 0056 80E0      		ldi r24,0
 1139               	.LVL65:
 1140               	.L57:
1084:quantum/rgblight.c ****     }
1085:quantum/rgblight.c ****     rgblight_setrgb(r, g, b);
 1141               		.loc 1 1085 5 is_stmt 1 view .LVU271
 1142 0058 0E94 0000 		call rgblight_setrgb
 1143               	.LVL66:
1086:quantum/rgblight.c ****     anim->pos = (anim->pos + 1) % 3;
 1144               		.loc 1 1086 5 view .LVU272
 1145               		.loc 1 1086 22 is_stmt 0 view .LVU273
 1146 005c F801      		movw r30,r16
 1147 005e 8481      		ldd r24,Z+4
 1148 0060 90E0      		ldi r25,0
 1149               		.loc 1 1086 28 view .LVU274
 1150 0062 0196      		adiw r24,1
 1151               		.loc 1 1086 33 view .LVU275
 1152 0064 63E0      		ldi r22,lo8(3)
 1153 0066 70E0      		ldi r23,0
 1154 0068 0E94 0000 		call __divmodhi4
 1155               		.loc 1 1086 15 view .LVU276
 1156 006c 8483      		std Z+4,r24
 1157               	/* epilogue start */
1087:quantum/rgblight.c **** }
 1158               		.loc 1 1087 1 view .LVU277
 1159 006e 0F90      		pop __tmp_reg__
 1160 0070 0F90      		pop __tmp_reg__
 1161 0072 0F90      		pop __tmp_reg__
 1162 0074 DF91      		pop r29
 1163 0076 CF91      		pop r28
 1164 0078 1F91      		pop r17
 1165 007a 0F91      		pop r16
 1166               	.LVL67:
 1167               		.loc 1 1087 1 view .LVU278
 1168 007c 0895      		ret
 1169               		.cfi_endproc
 1170               	.LFE169:
 1172               		.section	.text.rgblight_sethsv_eeprom_helper,"ax",@progbits
 1173               	.global	rgblight_sethsv_eeprom_helper
 1175               	rgblight_sethsv_eeprom_helper:
 1176               	.LVL68:
 1177               	.LFB135:
 432:quantum/rgblight.c ****     if (rgblight_config.enable) {
 1178               		.loc 1 432 97 is_stmt 1 view -0
 1179               		.cfi_startproc
 432:quantum/rgblight.c ****     if (rgblight_config.enable) {
 1180               		.loc 1 432 97 is_stmt 0 view .LVU280
 1181 0000 AF92      		push r10
 1182               	.LCFI20:
 1183               		.cfi_def_cfa_offset 3
 1184               		.cfi_offset 10, -2
 1185 0002 BF92      		push r11
 1186               	.LCFI21:
 1187               		.cfi_def_cfa_offset 4
 1188               		.cfi_offset 11, -3
 1189 0004 CF92      		push r12
 1190               	.LCFI22:
 1191               		.cfi_def_cfa_offset 5
 1192               		.cfi_offset 12, -4
 1193 0006 DF92      		push r13
 1194               	.LCFI23:
 1195               		.cfi_def_cfa_offset 6
 1196               		.cfi_offset 13, -5
 1197 0008 EF92      		push r14
 1198               	.LCFI24:
 1199               		.cfi_def_cfa_offset 7
 1200               		.cfi_offset 14, -6
 1201 000a FF92      		push r15
 1202               	.LCFI25:
 1203               		.cfi_def_cfa_offset 8
 1204               		.cfi_offset 15, -7
 1205 000c 0F93      		push r16
 1206               	.LCFI26:
 1207               		.cfi_def_cfa_offset 9
 1208               		.cfi_offset 16, -8
 1209 000e 1F93      		push r17
 1210               	.LCFI27:
 1211               		.cfi_def_cfa_offset 10
 1212               		.cfi_offset 17, -9
 1213 0010 CF93      		push r28
 1214               	.LCFI28:
 1215               		.cfi_def_cfa_offset 11
 1216               		.cfi_offset 28, -10
 1217 0012 DF93      		push r29
 1218               	.LCFI29:
 1219               		.cfi_def_cfa_offset 12
 1220               		.cfi_offset 29, -11
 1221 0014 00D0      		rcall .
 1222 0016 0F92      		push __tmp_reg__
 1223               	.LCFI30:
 1224               		.cfi_def_cfa_offset 15
 1225 0018 CDB7      		in r28,__SP_L__
 1226 001a DEB7      		in r29,__SP_H__
 1227               	.LCFI31:
 1228               		.cfi_def_cfa_register 28
 1229               	/* prologue: function */
 1230               	/* frame size = 3 */
 1231               	/* stack size = 13 */
 1232               	.L__stack_usage = 13
 1233 001c 182F      		mov r17,r24
 1234 001e F62E      		mov r15,r22
 1235 0020 042F      		mov r16,r20
 1236 0022 E22E      		mov r14,r18
 433:quantum/rgblight.c ****         rgblight_status.base_mode = mode_base_table[rgblight_config.mode];
 1237               		.loc 1 433 5 is_stmt 1 view .LVU281
 433:quantum/rgblight.c ****         rgblight_status.base_mode = mode_base_table[rgblight_config.mode];
 1238               		.loc 1 433 9 is_stmt 0 view .LVU282
 1239 0024 9091 0000 		lds r25,rgblight_config
 433:quantum/rgblight.c ****         rgblight_status.base_mode = mode_base_table[rgblight_config.mode];
 1240               		.loc 1 433 8 view .LVU283
 1241 0028 90FF      		sbrs r25,0
 1242 002a 00C0      		rjmp .L59
 434:quantum/rgblight.c ****         if (rgblight_config.mode == RGBLIGHT_MODE_STATIC_LIGHT) {
 1243               		.loc 1 434 9 is_stmt 1 view .LVU284
 434:quantum/rgblight.c ****         if (rgblight_config.mode == RGBLIGHT_MODE_STATIC_LIGHT) {
 1244               		.loc 1 434 68 is_stmt 0 view .LVU285
 1245 002c E92F      		mov r30,r25
 1246 002e E695      		lsr r30
 1247 0030 AE2F      		mov r26,r30
 1248 0032 B0E0      		ldi r27,0
 434:quantum/rgblight.c ****         if (rgblight_config.mode == RGBLIGHT_MODE_STATIC_LIGHT) {
 1249               		.loc 1 434 52 view .LVU286
 1250 0034 A050      		subi r26,lo8(-(mode_base_table))
 1251 0036 B040      		sbci r27,hi8(-(mode_base_table))
 1252 0038 8C91      		ld r24,X
 1253               	.LVL69:
 434:quantum/rgblight.c ****         if (rgblight_config.mode == RGBLIGHT_MODE_STATIC_LIGHT) {
 1254               		.loc 1 434 35 view .LVU287
 1255 003a 8093 0000 		sts rgblight_status,r24
 435:quantum/rgblight.c ****             // same static color
 1256               		.loc 1 435 9 is_stmt 1 view .LVU288
 435:quantum/rgblight.c ****             // same static color
 1257               		.loc 1 435 34 is_stmt 0 view .LVU289
 1258 003e 9E7F      		andi r25,lo8(-2)
 435:quantum/rgblight.c ****             // same static color
 1259               		.loc 1 435 12 view .LVU290
 1260 0040 9230      		cpi r25,lo8(2)
 1261 0042 01F4      		brne .L62
 1262               	.LBB47:
 437:quantum/rgblight.c ****             sethsv(hue, sat, val, &tmp_led);
 1263               		.loc 1 437 13 is_stmt 1 view .LVU291
 438:quantum/rgblight.c ****             rgblight_setrgb(tmp_led.r, tmp_led.g, tmp_led.b);
 1264               		.loc 1 438 13 view .LVU292
 1265               	.LVL70:
 1266               	.LBB48:
 1267               	.LBI48:
 125:quantum/rgblight.c **** 
 1268               		.loc 1 125 6 view .LVU293
 1269               	.LBB49:
 125:quantum/rgblight.c **** 
 1270               		.loc 1 125 70 view .LVU294
 1271 0044 9E01      		movw r18,r28
 1272               	.LVL71:
 125:quantum/rgblight.c **** 
 1273               		.loc 1 125 70 is_stmt 0 view .LVU295
 1274 0046 2F5F      		subi r18,-1
 1275 0048 3F4F      		sbci r19,-1
 1276 004a 812F      		mov r24,r17
 1277 004c 0E94 0000 		call sethsv_raw
 1278               	.LVL72:
 125:quantum/rgblight.c **** 
 1279               		.loc 1 125 70 view .LVU296
 1280               	.LBE49:
 1281               	.LBE48:
 439:quantum/rgblight.c ****         } else {
 1282               		.loc 1 439 13 is_stmt 1 view .LVU297
 1283 0050 4B81      		ldd r20,Y+3
 1284 0052 6981      		ldd r22,Y+1
 1285 0054 8A81      		ldd r24,Y+2
 1286 0056 0E94 0000 		call rgblight_setrgb
 1287               	.LVL73:
 1288               	.L63:
 439:quantum/rgblight.c ****         } else {
 1289               		.loc 1 439 13 is_stmt 0 view .LVU298
 1290               	.LBE47:
 492:quantum/rgblight.c ****         rgblight_config.sat = sat;
 1291               		.loc 1 492 9 is_stmt 1 view .LVU299
 492:quantum/rgblight.c ****         rgblight_config.sat = sat;
 1292               		.loc 1 492 29 is_stmt 0 view .LVU300
 1293 005a 1093 0000 		sts rgblight_config+1,r17
 493:quantum/rgblight.c ****         rgblight_config.val = val;
 1294               		.loc 1 493 9 is_stmt 1 view .LVU301
 493:quantum/rgblight.c ****         rgblight_config.val = val;
 1295               		.loc 1 493 29 is_stmt 0 view .LVU302
 1296 005e F092 0000 		sts rgblight_config+2,r15
 494:quantum/rgblight.c ****         if (write_to_eeprom) {
 1297               		.loc 1 494 9 is_stmt 1 view .LVU303
 494:quantum/rgblight.c ****         if (write_to_eeprom) {
 1298               		.loc 1 494 29 is_stmt 0 view .LVU304
 1299 0062 0093 0000 		sts rgblight_config+3,r16
 495:quantum/rgblight.c ****             eeconfig_update_rgblight(rgblight_config.raw);
 1300               		.loc 1 495 9 is_stmt 1 view .LVU305
 495:quantum/rgblight.c ****             eeconfig_update_rgblight(rgblight_config.raw);
 1301               		.loc 1 495 12 is_stmt 0 view .LVU306
 1302 0066 EE20      		tst r14
 1303 0068 01F0      		breq .L59
 496:quantum/rgblight.c ****             dprintf("rgblight set hsv [EEPROM]: %u,%u,%u\n", rgblight_config.hue, rgblight_config.s
 1304               		.loc 1 496 13 is_stmt 1 view .LVU307
 1305 006a 6091 0000 		lds r22,rgblight_config
 1306 006e 7091 0000 		lds r23,rgblight_config+1
 1307 0072 8091 0000 		lds r24,rgblight_config+2
 1308 0076 9091 0000 		lds r25,rgblight_config+3
 1309 007a 0E94 0000 		call eeconfig_update_rgblight
 1310               	.LVL74:
 497:quantum/rgblight.c ****         } else {
 1311               		.loc 1 497 124 view .LVU308
 499:quantum/rgblight.c ****         }
 1312               		.loc 1 499 126 view .LVU309
 1313               	.L59:
 1314               	/* epilogue start */
 502:quantum/rgblight.c **** 
 1315               		.loc 1 502 1 is_stmt 0 view .LVU310
 1316 007e 0F90      		pop __tmp_reg__
 1317 0080 0F90      		pop __tmp_reg__
 1318 0082 0F90      		pop __tmp_reg__
 1319 0084 DF91      		pop r29
 1320 0086 CF91      		pop r28
 1321 0088 1F91      		pop r17
 1322               	.LVL75:
 502:quantum/rgblight.c **** 
 1323               		.loc 1 502 1 view .LVU311
 1324 008a 0F91      		pop r16
 1325               	.LVL76:
 502:quantum/rgblight.c **** 
 1326               		.loc 1 502 1 view .LVU312
 1327 008c FF90      		pop r15
 1328               	.LVL77:
 502:quantum/rgblight.c **** 
 1329               		.loc 1 502 1 view .LVU313
 1330 008e EF90      		pop r14
 1331               	.LVL78:
 502:quantum/rgblight.c **** 
 1332               		.loc 1 502 1 view .LVU314
 1333 0090 DF90      		pop r13
 1334 0092 CF90      		pop r12
 1335 0094 BF90      		pop r11
 1336 0096 AF90      		pop r10
 1337 0098 0895      		ret
 1338               	.LVL79:
 1339               	.L62:
 442:quantum/rgblight.c ****             }
 1340               		.loc 1 442 13 is_stmt 1 view .LVU315
 445:quantum/rgblight.c ****                 // breathing mode, ignore the change of val, use in memory value instead
 1341               		.loc 1 445 18 view .LVU316
 445:quantum/rgblight.c ****                 // breathing mode, ignore the change of val, use in memory value instead
 1342               		.loc 1 445 21 is_stmt 0 view .LVU317
 1343 009a 8230      		cpi r24,lo8(2)
 1344 009c 01F4      		brne .L64
 447:quantum/rgblight.c ****             }
 1345               		.loc 1 447 17 is_stmt 1 view .LVU318
 447:quantum/rgblight.c ****             }
 1346               		.loc 1 447 21 is_stmt 0 view .LVU319
 1347 009e 0091 0000 		lds r16,rgblight_config+3
 1348               	.LVL80:
 447:quantum/rgblight.c ****             }
 1349               		.loc 1 447 21 view .LVU320
 1350 00a2 00C0      		rjmp .L63
 1351               	.L64:
 451:quantum/rgblight.c ****                 // rainbow mood, ignore the change of hue
 1352               		.loc 1 451 18 is_stmt 1 view .LVU321
 451:quantum/rgblight.c ****                 // rainbow mood, ignore the change of hue
 1353               		.loc 1 451 21 is_stmt 0 view .LVU322
 1354 00a4 8630      		cpi r24,lo8(6)
 1355 00a6 01F4      		brne .L65
 1356               	.L66:
 453:quantum/rgblight.c ****             }
 1357               		.loc 1 453 17 is_stmt 1 view .LVU323
 453:quantum/rgblight.c ****             }
 1358               		.loc 1 453 21 is_stmt 0 view .LVU324
 1359 00a8 1091 0000 		lds r17,rgblight_config+1
 1360               	.LVL81:
 453:quantum/rgblight.c ****             }
 1361               		.loc 1 453 21 view .LVU325
 1362 00ac 00C0      		rjmp .L63
 1363               	.L65:
 457:quantum/rgblight.c ****                 // rainbow swirl, ignore the change of hue
 1364               		.loc 1 457 18 is_stmt 1 view .LVU326
 457:quantum/rgblight.c ****                 // rainbow swirl, ignore the change of hue
 1365               		.loc 1 457 21 is_stmt 0 view .LVU327
 1366 00ae 8930      		cpi r24,lo8(9)
 1367 00b0 01F0      		breq .L66
 463:quantum/rgblight.c ****                 // static gradient
 1368               		.loc 1 463 18 is_stmt 1 view .LVU328
 463:quantum/rgblight.c ****                 // static gradient
 1369               		.loc 1 463 21 is_stmt 0 view .LVU329
 1370 00b2 8931      		cpi r24,lo8(25)
 1371 00b4 01F4      		brne .L63
 1372               	.LBB50:
 465:quantum/rgblight.c ****                 bool    direction = (delta % 2) == 0;
 1373               		.loc 1 465 17 is_stmt 1 view .LVU330
 465:quantum/rgblight.c ****                 bool    direction = (delta % 2) == 0;
 1374               		.loc 1 465 25 is_stmt 0 view .LVU331
 1375 00b6 E951      		subi r30,lo8(-(-25))
 1376               	.LVL82:
 466:quantum/rgblight.c **** #    ifdef __AVR__
 1377               		.loc 1 466 17 is_stmt 1 view .LVU332
 466:quantum/rgblight.c **** #    ifdef __AVR__
 1378               		.loc 1 466 49 is_stmt 0 view .LVU333
 1379 00b8 8E2F      		mov r24,r30
 1380 00ba 8170      		andi r24,lo8(1)
 1381 00bc D82E      		mov r13,r24
 1382               	.LVL83:
 469:quantum/rgblight.c **** #    else
 1383               		.loc 1 469 17 is_stmt 1 view .LVU334
 1384               	.LBB51:
 469:quantum/rgblight.c **** #    else
 1385               		.loc 1 469 33 view .LVU335
 1386 00be E695      		lsr r30
 1387               	.LVL84:
 469:quantum/rgblight.c **** #    else
 1388               		.loc 1 469 33 is_stmt 0 view .LVU336
 1389 00c0 F0E0      		ldi r31,0
 1390 00c2 E050      		subi r30,lo8(-(RGBLED_GRADIENT_RANGES))
 1391 00c4 F040      		sbci r31,hi8(-(RGBLED_GRADIENT_RANGES))
 1392               	.LVL85:
 469:quantum/rgblight.c **** #    else
 1393               		.loc 1 469 33 is_stmt 1 view .LVU337
 469:quantum/rgblight.c **** #    else
 1394               		.loc 1 469 33 view .LVU338
 1395               	/* #APP */
 1396               	 ;  469 "quantum/rgblight.c" 1
 1397 00c6 A590      		lpm r10, Z+
 1398 00c8 B490      		lpm r11, Z
 1399               		
 1400               	 ;  0 "" 2
 1401               	.LVL86:
 469:quantum/rgblight.c **** #    else
 1402               		.loc 1 469 33 view .LVU339
 469:quantum/rgblight.c **** #    else
 1403               		.loc 1 469 33 is_stmt 0 view .LVU340
 1404               	/* #NOAPP */
 1405               	.LBE51:
 473:quantum/rgblight.c ****                     uint8_t _hue = ((uint16_t)i * (uint16_t)range) / effect_num_leds;
 1406               		.loc 1 473 17 is_stmt 1 view .LVU341
 1407               	.LBB52:
 473:quantum/rgblight.c ****                     uint8_t _hue = ((uint16_t)i * (uint16_t)range) / effect_num_leds;
 1408               		.loc 1 473 22 view .LVU342
 473:quantum/rgblight.c ****                     uint8_t _hue = ((uint16_t)i * (uint16_t)range) / effect_num_leds;
 1409               		.loc 1 473 30 is_stmt 0 view .LVU343
 1410 00ca C12C      		mov r12,__zero_reg__
 1411               	.LBB53:
 474:quantum/rgblight.c ****                     if (direction) {
 1412               		.loc 1 474 49 view .LVU344
 1413 00cc BB24      		clr r11
 1414               	.LVL87:
 1415               	.L67:
 474:quantum/rgblight.c ****                     if (direction) {
 1416               		.loc 1 474 49 view .LVU345
 1417               	.LBE53:
 473:quantum/rgblight.c ****                     uint8_t _hue = ((uint16_t)i * (uint16_t)range) / effect_num_leds;
 1418               		.loc 1 473 39 discriminator 1 view .LVU346
 1419 00ce 4091 0000 		lds r20,effect_num_leds
 473:quantum/rgblight.c ****                     uint8_t _hue = ((uint16_t)i * (uint16_t)range) / effect_num_leds;
 1420               		.loc 1 473 17 discriminator 1 view .LVU347
 1421 00d2 C416      		cp r12,r20
 1422 00d4 00F0      		brlo .L70
 1423               	.LBE52:
 483:quantum/rgblight.c ****             }
 1424               		.loc 1 483 17 is_stmt 1 view .LVU348
 1425 00d6 0E94 0000 		call rgblight_set
 1426               	.LVL88:
 1427 00da 00C0      		rjmp .L63
 1428               	.L70:
 1429               	.LBB60:
 1430               	.LBB58:
 474:quantum/rgblight.c ****                     if (direction) {
 1431               		.loc 1 474 21 view .LVU349
 474:quantum/rgblight.c ****                     if (direction) {
 1432               		.loc 1 474 37 is_stmt 0 view .LVU350
 1433 00dc 2C2D      		mov r18,r12
 1434 00de 30E0      		ldi r19,0
 474:quantum/rgblight.c ****                     if (direction) {
 1435               		.loc 1 474 49 view .LVU351
 1436 00e0 C501      		movw r24,r10
 1437 00e2 B901      		movw r22,r18
 1438 00e4 0E94 0000 		call __mulhi3
 474:quantum/rgblight.c ****                     if (direction) {
 1439               		.loc 1 474 68 view .LVU352
 1440 00e8 642F      		mov r22,r20
 1441 00ea 70E0      		ldi r23,0
 1442 00ec 0E94 0000 		call __udivmodhi4
 1443               	.LVL89:
 475:quantum/rgblight.c ****                         _hue = hue + _hue;
 1444               		.loc 1 475 21 is_stmt 1 view .LVU353
 476:quantum/rgblight.c ****                     } else {
 1445               		.loc 1 476 30 is_stmt 0 view .LVU354
 1446 00f0 E12F      		mov r30,r17
 475:quantum/rgblight.c ****                         _hue = hue + _hue;
 1447               		.loc 1 475 24 view .LVU355
 1448 00f2 D110      		cpse r13,__zero_reg__
 1449 00f4 00C0      		rjmp .L68
 476:quantum/rgblight.c ****                     } else {
 1450               		.loc 1 476 25 is_stmt 1 view .LVU356
 476:quantum/rgblight.c ****                     } else {
 1451               		.loc 1 476 30 is_stmt 0 view .LVU357
 1452 00f6 E60F      		add r30,r22
 1453               	.LVL90:
 1454               	.L69:
 480:quantum/rgblight.c ****                     sethsv(_hue, sat, val, (LED_TYPE *)&led[i + effect_start_pos]);
 1455               		.loc 1 480 98 is_stmt 1 discriminator 2 view .LVU358
 481:quantum/rgblight.c ****                 }
 1456               		.loc 1 481 21 discriminator 2 view .LVU359
 1457               	.LBB54:
 1458               	.LBI54:
 125:quantum/rgblight.c **** 
 1459               		.loc 1 125 6 discriminator 2 view .LVU360
 1460               	.LBB55:
 125:quantum/rgblight.c **** 
 1461               		.loc 1 125 70 discriminator 2 view .LVU361
 1462               	.LBE55:
 1463               	.LBE54:
 481:quantum/rgblight.c ****                 }
 1464               		.loc 1 481 63 is_stmt 0 discriminator 2 view .LVU362
 1465 00f8 8091 0000 		lds r24,effect_start_pos
 481:quantum/rgblight.c ****                 }
 1466               		.loc 1 481 21 discriminator 2 view .LVU363
 1467 00fc 820F      		add r24,r18
 1468 00fe 932F      		mov r25,r19
 1469 0100 911D      		adc r25,__zero_reg__
 1470 0102 63E0      		ldi r22,lo8(3)
 1471 0104 70E0      		ldi r23,0
 1472 0106 0E94 0000 		call __mulhi3
 1473 010a 9C01      		movw r18,r24
 1474 010c 2050      		subi r18,lo8(-(led))
 1475 010e 3040      		sbci r19,hi8(-(led))
 1476               	.LBB57:
 1477               	.LBB56:
 125:quantum/rgblight.c **** 
 1478               		.loc 1 125 70 discriminator 2 view .LVU364
 1479 0110 402F      		mov r20,r16
 1480 0112 6F2D      		mov r22,r15
 1481 0114 8E2F      		mov r24,r30
 1482 0116 0E94 0000 		call sethsv_raw
 1483               	.LVL91:
 125:quantum/rgblight.c **** 
 1484               		.loc 1 125 70 discriminator 2 view .LVU365
 1485               	.LBE56:
 1486               	.LBE57:
 1487               	.LBE58:
 473:quantum/rgblight.c ****                     uint8_t _hue = ((uint16_t)i * (uint16_t)range) / effect_num_leds;
 1488               		.loc 1 473 59 discriminator 2 view .LVU366
 1489 011a C394      		inc r12
 1490               	.LVL92:
 473:quantum/rgblight.c ****                     uint8_t _hue = ((uint16_t)i * (uint16_t)range) / effect_num_leds;
 1491               		.loc 1 473 59 discriminator 2 view .LVU367
 1492 011c 00C0      		rjmp .L67
 1493               	.LVL93:
 1494               	.L68:
 1495               	.LBB59:
 478:quantum/rgblight.c ****                     }
 1496               		.loc 1 478 25 is_stmt 1 view .LVU368
 478:quantum/rgblight.c ****                     }
 1497               		.loc 1 478 30 is_stmt 0 view .LVU369
 1498 011e E61B      		sub r30,r22
 1499               	.LVL94:
 478:quantum/rgblight.c ****                     }
 1500               		.loc 1 478 30 view .LVU370
 1501 0120 00C0      		rjmp .L69
 1502               	.LBE59:
 1503               	.LBE60:
 1504               	.LBE50:
 1505               		.cfi_endproc
 1506               	.LFE135:
 1508               		.section	.text.rgblight_increase_hue_helper,"ax",@progbits
 1509               	.global	rgblight_increase_hue_helper
 1511               	rgblight_increase_hue_helper:
 1512               	.LVL95:
 1513               	.LFB114:
 376:quantum/rgblight.c ****     uint8_t hue = rgblight_config.hue + RGBLIGHT_HUE_STEP;
 1514               		.loc 1 376 57 is_stmt 1 view -0
 1515               		.cfi_startproc
 1516               	/* prologue: function */
 1517               	/* frame size = 0 */
 1518               	/* stack size = 0 */
 1519               	.L__stack_usage = 0
 377:quantum/rgblight.c ****     rgblight_sethsv_eeprom_helper(hue, rgblight_config.sat, rgblight_config.val, write_to_eeprom);
 1520               		.loc 1 377 5 view .LVU372
 378:quantum/rgblight.c **** }
 1521               		.loc 1 378 5 view .LVU373
 1522 0000 E0E0      		ldi r30,lo8(rgblight_config)
 1523 0002 F0E0      		ldi r31,hi8(rgblight_config)
 377:quantum/rgblight.c ****     rgblight_sethsv_eeprom_helper(hue, rgblight_config.sat, rgblight_config.val, write_to_eeprom);
 1524               		.loc 1 377 13 is_stmt 0 view .LVU374
 1525 0004 9181      		ldd r25,Z+1
 378:quantum/rgblight.c **** }
 1526               		.loc 1 378 5 view .LVU375
 1527 0006 282F      		mov r18,r24
 1528 0008 4381      		ldd r20,Z+3
 1529 000a 6281      		ldd r22,Z+2
 1530 000c 88E0      		ldi r24,lo8(8)
 1531               	.LVL96:
 378:quantum/rgblight.c **** }
 1532               		.loc 1 378 5 view .LVU376
 1533 000e 890F      		add r24,r25
 1534               	.LVL97:
 378:quantum/rgblight.c **** }
 1535               		.loc 1 378 5 view .LVU377
 1536 0010 0C94 0000 		jmp rgblight_sethsv_eeprom_helper
 1537               	.LVL98:
 378:quantum/rgblight.c **** }
 1538               		.loc 1 378 5 view .LVU378
 1539               		.cfi_endproc
 1540               	.LFE114:
 1542               		.section	.text.rgblight_increase_hue_noeeprom,"ax",@progbits
 1543               	.global	rgblight_increase_hue_noeeprom
 1545               	rgblight_increase_hue_noeeprom:
 1546               	.LFB115:
 380:quantum/rgblight.c **** void rgblight_increase_hue(void) { rgblight_increase_hue_helper(true); }
 1547               		.loc 1 380 43 is_stmt 1 view -0
 1548               		.cfi_startproc
 1549               	/* prologue: function */
 1550               	/* frame size = 0 */
 1551               	/* stack size = 0 */
 1552               	.L__stack_usage = 0
 380:quantum/rgblight.c **** void rgblight_increase_hue(void) { rgblight_increase_hue_helper(true); }
 1553               		.loc 1 380 45 view .LVU380
 1554 0000 80E0      		ldi r24,0
 1555 0002 0C94 0000 		jmp rgblight_increase_hue_helper
 1556               	.LVL99:
 1557               		.cfi_endproc
 1558               	.LFE115:
 1560               		.section	.text.rgblight_increase_hue,"ax",@progbits
 1561               	.global	rgblight_increase_hue
 1563               	rgblight_increase_hue:
 1564               	.LFB116:
 381:quantum/rgblight.c **** void rgblight_decrease_hue_helper(bool write_to_eeprom) {
 1565               		.loc 1 381 34 view -0
 1566               		.cfi_startproc
 1567               	/* prologue: function */
 1568               	/* frame size = 0 */
 1569               	/* stack size = 0 */
 1570               	.L__stack_usage = 0
 381:quantum/rgblight.c **** void rgblight_decrease_hue_helper(bool write_to_eeprom) {
 1571               		.loc 1 381 36 view .LVU382
 1572 0000 81E0      		ldi r24,lo8(1)
 1573 0002 0C94 0000 		jmp rgblight_increase_hue_helper
 1574               	.LVL100:
 1575               		.cfi_endproc
 1576               	.LFE116:
 1578               		.section	.text.rgblight_decrease_hue_helper,"ax",@progbits
 1579               	.global	rgblight_decrease_hue_helper
 1581               	rgblight_decrease_hue_helper:
 1582               	.LVL101:
 1583               	.LFB117:
 382:quantum/rgblight.c ****     uint8_t hue = rgblight_config.hue - RGBLIGHT_HUE_STEP;
 1584               		.loc 1 382 57 view -0
 1585               		.cfi_startproc
 1586               	/* prologue: function */
 1587               	/* frame size = 0 */
 1588               	/* stack size = 0 */
 1589               	.L__stack_usage = 0
 383:quantum/rgblight.c ****     rgblight_sethsv_eeprom_helper(hue, rgblight_config.sat, rgblight_config.val, write_to_eeprom);
 1590               		.loc 1 383 5 view .LVU384
 384:quantum/rgblight.c **** }
 1591               		.loc 1 384 5 view .LVU385
 1592 0000 E0E0      		ldi r30,lo8(rgblight_config)
 1593 0002 F0E0      		ldi r31,hi8(rgblight_config)
 383:quantum/rgblight.c ****     rgblight_sethsv_eeprom_helper(hue, rgblight_config.sat, rgblight_config.val, write_to_eeprom);
 1594               		.loc 1 383 13 is_stmt 0 view .LVU386
 1595 0004 9181      		ldd r25,Z+1
 384:quantum/rgblight.c **** }
 1596               		.loc 1 384 5 view .LVU387
 1597 0006 282F      		mov r18,r24
 1598 0008 4381      		ldd r20,Z+3
 1599 000a 6281      		ldd r22,Z+2
 1600 000c 88EF      		ldi r24,lo8(-8)
 1601               	.LVL102:
 384:quantum/rgblight.c **** }
 1602               		.loc 1 384 5 view .LVU388
 1603 000e 890F      		add r24,r25
 1604               	.LVL103:
 384:quantum/rgblight.c **** }
 1605               		.loc 1 384 5 view .LVU389
 1606 0010 0C94 0000 		jmp rgblight_sethsv_eeprom_helper
 1607               	.LVL104:
 384:quantum/rgblight.c **** }
 1608               		.loc 1 384 5 view .LVU390
 1609               		.cfi_endproc
 1610               	.LFE117:
 1612               		.section	.text.rgblight_decrease_hue_noeeprom,"ax",@progbits
 1613               	.global	rgblight_decrease_hue_noeeprom
 1615               	rgblight_decrease_hue_noeeprom:
 1616               	.LFB118:
 386:quantum/rgblight.c **** void rgblight_decrease_hue(void) { rgblight_decrease_hue_helper(true); }
 1617               		.loc 1 386 43 is_stmt 1 view -0
 1618               		.cfi_startproc
 1619               	/* prologue: function */
 1620               	/* frame size = 0 */
 1621               	/* stack size = 0 */
 1622               	.L__stack_usage = 0
 386:quantum/rgblight.c **** void rgblight_decrease_hue(void) { rgblight_decrease_hue_helper(true); }
 1623               		.loc 1 386 45 view .LVU392
 1624 0000 80E0      		ldi r24,0
 1625 0002 0C94 0000 		jmp rgblight_decrease_hue_helper
 1626               	.LVL105:
 1627               		.cfi_endproc
 1628               	.LFE118:
 1630               		.section	.text.rgblight_decrease_hue,"ax",@progbits
 1631               	.global	rgblight_decrease_hue
 1633               	rgblight_decrease_hue:
 1634               	.LFB119:
 387:quantum/rgblight.c **** void rgblight_increase_sat_helper(bool write_to_eeprom) {
 1635               		.loc 1 387 34 view -0
 1636               		.cfi_startproc
 1637               	/* prologue: function */
 1638               	/* frame size = 0 */
 1639               	/* stack size = 0 */
 1640               	.L__stack_usage = 0
 387:quantum/rgblight.c **** void rgblight_increase_sat_helper(bool write_to_eeprom) {
 1641               		.loc 1 387 36 view .LVU394
 1642 0000 81E0      		ldi r24,lo8(1)
 1643 0002 0C94 0000 		jmp rgblight_decrease_hue_helper
 1644               	.LVL106:
 1645               		.cfi_endproc
 1646               	.LFE119:
 1648               		.section	.text.rgblight_increase_sat_helper,"ax",@progbits
 1649               	.global	rgblight_increase_sat_helper
 1651               	rgblight_increase_sat_helper:
 1652               	.LVL107:
 1653               	.LFB120:
 388:quantum/rgblight.c ****     uint8_t sat = qadd8(rgblight_config.sat, RGBLIGHT_SAT_STEP);
 1654               		.loc 1 388 57 view -0
 1655               		.cfi_startproc
 1656               	/* prologue: function */
 1657               	/* frame size = 0 */
 1658               	/* stack size = 0 */
 1659               	.L__stack_usage = 0
 389:quantum/rgblight.c ****     rgblight_sethsv_eeprom_helper(rgblight_config.hue, sat, rgblight_config.val, write_to_eeprom);
 1660               		.loc 1 389 5 view .LVU396
 1661               	.LBB61:
 1662               	.LBI61:
 1663               		.file 2 "./lib/lib8tion/math8.h"
   1:./lib/lib8tion/math8.h **** #ifndef __INC_LIB8TION_MATH_H
   2:./lib/lib8tion/math8.h **** #define __INC_LIB8TION_MATH_H
   3:./lib/lib8tion/math8.h **** 
   4:./lib/lib8tion/math8.h **** #include "scale8.h"
   5:./lib/lib8tion/math8.h **** 
   6:./lib/lib8tion/math8.h **** ///@ingroup lib8tion
   7:./lib/lib8tion/math8.h **** 
   8:./lib/lib8tion/math8.h **** ///@defgroup Math Basic math operations
   9:./lib/lib8tion/math8.h **** /// Fast, efficient 8-bit math functions specifically
  10:./lib/lib8tion/math8.h **** /// designed for high-performance LED programming.
  11:./lib/lib8tion/math8.h **** ///
  12:./lib/lib8tion/math8.h **** /// Because of the AVR(Arduino) and ARM assembly language
  13:./lib/lib8tion/math8.h **** /// implementations provided, using these functions often
  14:./lib/lib8tion/math8.h **** /// results in smaller and faster code than the equivalent
  15:./lib/lib8tion/math8.h **** /// program using plain "C" arithmetic and logic.
  16:./lib/lib8tion/math8.h **** ///@{
  17:./lib/lib8tion/math8.h **** 
  18:./lib/lib8tion/math8.h **** 
  19:./lib/lib8tion/math8.h **** /// add one byte to another, saturating at 0xFF
  20:./lib/lib8tion/math8.h **** /// @param i - first byte to add
  21:./lib/lib8tion/math8.h **** /// @param j - second byte to add
  22:./lib/lib8tion/math8.h **** /// @returns the sum of i & j, capped at 0xFF
  23:./lib/lib8tion/math8.h **** LIB8STATIC_ALWAYS_INLINE uint8_t qadd8( uint8_t i, uint8_t j)
 1664               		.loc 2 23 34 view .LVU397
 1665               	.LBB62:
  24:./lib/lib8tion/math8.h **** {
  25:./lib/lib8tion/math8.h **** #if QADD8_C == 1
  26:./lib/lib8tion/math8.h ****     uint16_t t = i + j;
  27:./lib/lib8tion/math8.h ****     if (t > 255) t = 255;
  28:./lib/lib8tion/math8.h ****     return t;
  29:./lib/lib8tion/math8.h **** #elif QADD8_AVRASM == 1
  30:./lib/lib8tion/math8.h ****     asm volatile(
 1666               		.loc 2 30 5 view .LVU398
 1667               	.LBE62:
 1668               	.LBE61:
 389:quantum/rgblight.c ****     rgblight_sethsv_eeprom_helper(rgblight_config.hue, sat, rgblight_config.val, write_to_eeprom);
 1669               		.loc 1 389 19 is_stmt 0 view .LVU399
 1670 0000 E0E0      		ldi r30,lo8(rgblight_config)
 1671 0002 F0E0      		ldi r31,hi8(rgblight_config)
 1672               	.LBB64:
 1673               	.LBB63:
 1674               		.loc 2 30 5 view .LVU400
 1675 0004 6281      		ldd r22,Z+2
 1676 0006 28E0      		ldi r18,lo8(8)
 1677               	/* #APP */
 1678               	 ;  30 "./lib/lib8tion/math8.h" 1
 1679 0008 620F      		add r22, r18    
 1680 000a 00F4      		brcc L_1343     
 1681 000c 6FEF      		ldi r22, 0xFF  
 1682               		L_1343: 
 1683               	 ;  0 "" 2
 1684               	.LVL108:
  31:./lib/lib8tion/math8.h ****          /* First, add j to i, conditioning the C flag */
  32:./lib/lib8tion/math8.h ****          "add %0, %1    \n\t"
  33:./lib/lib8tion/math8.h **** 
  34:./lib/lib8tion/math8.h ****          /* Now test the C flag.
  35:./lib/lib8tion/math8.h ****            If C is clear, we branch around a load of 0xFF into i.
  36:./lib/lib8tion/math8.h ****            If C is set, we go ahead and load 0xFF into i.
  37:./lib/lib8tion/math8.h ****          */
  38:./lib/lib8tion/math8.h ****          "brcc L_%=     \n\t"
  39:./lib/lib8tion/math8.h ****          "ldi %0, 0xFF  \n\t"
  40:./lib/lib8tion/math8.h ****          "L_%=: "
  41:./lib/lib8tion/math8.h ****          : "+a" (i)
  42:./lib/lib8tion/math8.h ****          : "a"  (j) );
  43:./lib/lib8tion/math8.h ****     return i;
 1685               		.loc 2 43 5 is_stmt 1 view .LVU401
 1686               		.loc 2 43 5 is_stmt 0 view .LVU402
 1687               	/* #NOAPP */
 1688               	.LBE63:
 1689               	.LBE64:
 390:quantum/rgblight.c **** }
 1690               		.loc 1 390 5 is_stmt 1 view .LVU403
 1691 000e 282F      		mov r18,r24
 1692 0010 4381      		ldd r20,Z+3
 1693 0012 8181      		ldd r24,Z+1
 1694               	.LVL109:
 390:quantum/rgblight.c **** }
 1695               		.loc 1 390 5 is_stmt 0 view .LVU404
 1696 0014 0C94 0000 		jmp rgblight_sethsv_eeprom_helper
 1697               	.LVL110:
 390:quantum/rgblight.c **** }
 1698               		.loc 1 390 5 view .LVU405
 1699               		.cfi_endproc
 1700               	.LFE120:
 1702               		.section	.text.rgblight_increase_sat_noeeprom,"ax",@progbits
 1703               	.global	rgblight_increase_sat_noeeprom
 1705               	rgblight_increase_sat_noeeprom:
 1706               	.LFB121:
 392:quantum/rgblight.c **** void rgblight_increase_sat(void) { rgblight_increase_sat_helper(true); }
 1707               		.loc 1 392 43 is_stmt 1 view -0
 1708               		.cfi_startproc
 1709               	/* prologue: function */
 1710               	/* frame size = 0 */
 1711               	/* stack size = 0 */
 1712               	.L__stack_usage = 0
 392:quantum/rgblight.c **** void rgblight_increase_sat(void) { rgblight_increase_sat_helper(true); }
 1713               		.loc 1 392 45 view .LVU407
 1714 0000 80E0      		ldi r24,0
 1715 0002 0C94 0000 		jmp rgblight_increase_sat_helper
 1716               	.LVL111:
 1717               		.cfi_endproc
 1718               	.LFE121:
 1720               		.section	.text.rgblight_increase_sat,"ax",@progbits
 1721               	.global	rgblight_increase_sat
 1723               	rgblight_increase_sat:
 1724               	.LFB122:
 393:quantum/rgblight.c **** void rgblight_decrease_sat_helper(bool write_to_eeprom) {
 1725               		.loc 1 393 34 view -0
 1726               		.cfi_startproc
 1727               	/* prologue: function */
 1728               	/* frame size = 0 */
 1729               	/* stack size = 0 */
 1730               	.L__stack_usage = 0
 393:quantum/rgblight.c **** void rgblight_decrease_sat_helper(bool write_to_eeprom) {
 1731               		.loc 1 393 36 view .LVU409
 1732 0000 81E0      		ldi r24,lo8(1)
 1733 0002 0C94 0000 		jmp rgblight_increase_sat_helper
 1734               	.LVL112:
 1735               		.cfi_endproc
 1736               	.LFE122:
 1738               		.section	.text.rgblight_decrease_sat_helper,"ax",@progbits
 1739               	.global	rgblight_decrease_sat_helper
 1741               	rgblight_decrease_sat_helper:
 1742               	.LVL113:
 1743               	.LFB123:
 394:quantum/rgblight.c ****     uint8_t sat = qsub8(rgblight_config.sat, RGBLIGHT_SAT_STEP);
 1744               		.loc 1 394 57 view -0
 1745               		.cfi_startproc
 1746               	/* prologue: function */
 1747               	/* frame size = 0 */
 1748               	/* stack size = 0 */
 1749               	.L__stack_usage = 0
 395:quantum/rgblight.c ****     rgblight_sethsv_eeprom_helper(rgblight_config.hue, sat, rgblight_config.val, write_to_eeprom);
 1750               		.loc 1 395 5 view .LVU411
 1751               	.LBB65:
 1752               	.LBI65:
  44:./lib/lib8tion/math8.h **** #elif QADD8_ARM_DSP_ASM == 1
  45:./lib/lib8tion/math8.h ****     asm volatile( "uqadd8 %0, %0, %1" : "+r" (i) : "r" (j));
  46:./lib/lib8tion/math8.h ****     return i;
  47:./lib/lib8tion/math8.h **** #else
  48:./lib/lib8tion/math8.h **** #error "No implementation for qadd8 available."
  49:./lib/lib8tion/math8.h **** #endif
  50:./lib/lib8tion/math8.h **** }
  51:./lib/lib8tion/math8.h **** 
  52:./lib/lib8tion/math8.h **** /// Add one byte to another, saturating at 0x7F
  53:./lib/lib8tion/math8.h **** /// @param i - first byte to add
  54:./lib/lib8tion/math8.h **** /// @param j - second byte to add
  55:./lib/lib8tion/math8.h **** /// @returns the sum of i & j, capped at 0xFF
  56:./lib/lib8tion/math8.h **** LIB8STATIC_ALWAYS_INLINE int8_t qadd7( int8_t i, int8_t j)
  57:./lib/lib8tion/math8.h **** {
  58:./lib/lib8tion/math8.h **** #if QADD7_C == 1
  59:./lib/lib8tion/math8.h ****     int16_t t = i + j;
  60:./lib/lib8tion/math8.h ****     if (t > 127) t = 127;
  61:./lib/lib8tion/math8.h ****     return t;
  62:./lib/lib8tion/math8.h **** #elif QADD7_AVRASM == 1
  63:./lib/lib8tion/math8.h ****     asm volatile(
  64:./lib/lib8tion/math8.h ****          /* First, add j to i, conditioning the V flag */
  65:./lib/lib8tion/math8.h ****          "add %0, %1    \n\t"
  66:./lib/lib8tion/math8.h **** 
  67:./lib/lib8tion/math8.h ****          /* Now test the V flag.
  68:./lib/lib8tion/math8.h ****           If V is clear, we branch around a load of 0x7F into i.
  69:./lib/lib8tion/math8.h ****           If V is set, we go ahead and load 0x7F into i.
  70:./lib/lib8tion/math8.h ****           */
  71:./lib/lib8tion/math8.h ****          "brvc L_%=     \n\t"
  72:./lib/lib8tion/math8.h ****          "ldi %0, 0x7F  \n\t"
  73:./lib/lib8tion/math8.h ****          "L_%=: "
  74:./lib/lib8tion/math8.h ****          : "+a" (i)
  75:./lib/lib8tion/math8.h ****          : "a"  (j) );
  76:./lib/lib8tion/math8.h **** 
  77:./lib/lib8tion/math8.h ****     return i;
  78:./lib/lib8tion/math8.h **** #elif QADD7_ARM_DSP_ASM == 1
  79:./lib/lib8tion/math8.h ****     asm volatile( "qadd8 %0, %0, %1" : "+r" (i) : "r" (j));
  80:./lib/lib8tion/math8.h ****     return i;
  81:./lib/lib8tion/math8.h **** #else
  82:./lib/lib8tion/math8.h **** #error "No implementation for qadd7 available."
  83:./lib/lib8tion/math8.h **** #endif
  84:./lib/lib8tion/math8.h **** }
  85:./lib/lib8tion/math8.h **** 
  86:./lib/lib8tion/math8.h **** /// subtract one byte from another, saturating at 0x00
  87:./lib/lib8tion/math8.h **** /// @returns i - j with a floor of 0
  88:./lib/lib8tion/math8.h **** LIB8STATIC_ALWAYS_INLINE uint8_t qsub8( uint8_t i, uint8_t j)
 1753               		.loc 2 88 34 view .LVU412
 1754               	.LBB66:
  89:./lib/lib8tion/math8.h **** {
  90:./lib/lib8tion/math8.h **** #if QSUB8_C == 1
  91:./lib/lib8tion/math8.h ****     int16_t t = i - j;
  92:./lib/lib8tion/math8.h ****     if (t < 0) t = 0;
  93:./lib/lib8tion/math8.h ****     return t;
  94:./lib/lib8tion/math8.h **** #elif QSUB8_AVRASM == 1
  95:./lib/lib8tion/math8.h **** 
  96:./lib/lib8tion/math8.h ****     asm volatile(
 1755               		.loc 2 96 5 view .LVU413
 1756               	.LBE66:
 1757               	.LBE65:
 395:quantum/rgblight.c ****     rgblight_sethsv_eeprom_helper(rgblight_config.hue, sat, rgblight_config.val, write_to_eeprom);
 1758               		.loc 1 395 19 is_stmt 0 view .LVU414
 1759 0000 E0E0      		ldi r30,lo8(rgblight_config)
 1760 0002 F0E0      		ldi r31,hi8(rgblight_config)
 1761               	.LBB68:
 1762               	.LBB67:
 1763               		.loc 2 96 5 view .LVU415
 1764 0004 6281      		ldd r22,Z+2
 1765 0006 28E0      		ldi r18,lo8(8)
 1766               	/* #APP */
 1767               	 ;  96 "./lib/lib8tion/math8.h" 1
 1768 0008 621B      		sub r22, r18    
 1769 000a 00F4      		brcc L_1399     
 1770 000c 60E0      		ldi r22, 0x00  
 1771               		L_1399: 
 1772               	 ;  0 "" 2
 1773               	.LVL114:
  97:./lib/lib8tion/math8.h ****          /* First, subtract j from i, conditioning the C flag */
  98:./lib/lib8tion/math8.h ****          "sub %0, %1    \n\t"
  99:./lib/lib8tion/math8.h **** 
 100:./lib/lib8tion/math8.h ****          /* Now test the C flag.
 101:./lib/lib8tion/math8.h ****           If C is clear, we branch around a load of 0x00 into i.
 102:./lib/lib8tion/math8.h ****           If C is set, we go ahead and load 0x00 into i.
 103:./lib/lib8tion/math8.h ****           */
 104:./lib/lib8tion/math8.h ****          "brcc L_%=     \n\t"
 105:./lib/lib8tion/math8.h ****          "ldi %0, 0x00  \n\t"
 106:./lib/lib8tion/math8.h ****          "L_%=: "
 107:./lib/lib8tion/math8.h ****          : "+a" (i)
 108:./lib/lib8tion/math8.h ****          : "a"  (j) );
 109:./lib/lib8tion/math8.h **** 
 110:./lib/lib8tion/math8.h ****     return i;
 1774               		.loc 2 110 5 is_stmt 1 view .LVU416
 1775               		.loc 2 110 5 is_stmt 0 view .LVU417
 1776               	/* #NOAPP */
 1777               	.LBE67:
 1778               	.LBE68:
 396:quantum/rgblight.c **** }
 1779               		.loc 1 396 5 is_stmt 1 view .LVU418
 1780 000e 282F      		mov r18,r24
 1781 0010 4381      		ldd r20,Z+3
 1782 0012 8181      		ldd r24,Z+1
 1783               	.LVL115:
 396:quantum/rgblight.c **** }
 1784               		.loc 1 396 5 is_stmt 0 view .LVU419
 1785 0014 0C94 0000 		jmp rgblight_sethsv_eeprom_helper
 1786               	.LVL116:
 396:quantum/rgblight.c **** }
 1787               		.loc 1 396 5 view .LVU420
 1788               		.cfi_endproc
 1789               	.LFE123:
 1791               		.section	.text.rgblight_decrease_sat_noeeprom,"ax",@progbits
 1792               	.global	rgblight_decrease_sat_noeeprom
 1794               	rgblight_decrease_sat_noeeprom:
 1795               	.LFB124:
 398:quantum/rgblight.c **** void rgblight_decrease_sat(void) { rgblight_decrease_sat_helper(true); }
 1796               		.loc 1 398 43 is_stmt 1 view -0
 1797               		.cfi_startproc
 1798               	/* prologue: function */
 1799               	/* frame size = 0 */
 1800               	/* stack size = 0 */
 1801               	.L__stack_usage = 0
 398:quantum/rgblight.c **** void rgblight_decrease_sat(void) { rgblight_decrease_sat_helper(true); }
 1802               		.loc 1 398 45 view .LVU422
 1803 0000 80E0      		ldi r24,0
 1804 0002 0C94 0000 		jmp rgblight_decrease_sat_helper
 1805               	.LVL117:
 1806               		.cfi_endproc
 1807               	.LFE124:
 1809               		.section	.text.rgblight_decrease_sat,"ax",@progbits
 1810               	.global	rgblight_decrease_sat
 1812               	rgblight_decrease_sat:
 1813               	.LFB125:
 399:quantum/rgblight.c **** void rgblight_increase_val_helper(bool write_to_eeprom) {
 1814               		.loc 1 399 34 view -0
 1815               		.cfi_startproc
 1816               	/* prologue: function */
 1817               	/* frame size = 0 */
 1818               	/* stack size = 0 */
 1819               	.L__stack_usage = 0
 399:quantum/rgblight.c **** void rgblight_increase_val_helper(bool write_to_eeprom) {
 1820               		.loc 1 399 36 view .LVU424
 1821 0000 81E0      		ldi r24,lo8(1)
 1822 0002 0C94 0000 		jmp rgblight_decrease_sat_helper
 1823               	.LVL118:
 1824               		.cfi_endproc
 1825               	.LFE125:
 1827               		.section	.text.rgblight_increase_val_helper,"ax",@progbits
 1828               	.global	rgblight_increase_val_helper
 1830               	rgblight_increase_val_helper:
 1831               	.LVL119:
 1832               	.LFB126:
 400:quantum/rgblight.c ****     uint8_t val = qadd8(rgblight_config.val, RGBLIGHT_VAL_STEP);
 1833               		.loc 1 400 57 view -0
 1834               		.cfi_startproc
 1835               	/* prologue: function */
 1836               	/* frame size = 0 */
 1837               	/* stack size = 0 */
 1838               	.L__stack_usage = 0
 401:quantum/rgblight.c ****     rgblight_sethsv_eeprom_helper(rgblight_config.hue, rgblight_config.sat, val, write_to_eeprom);
 1839               		.loc 1 401 5 view .LVU426
 1840               	.LBB69:
 1841               	.LBI69:
  23:./lib/lib8tion/math8.h **** {
 1842               		.loc 2 23 34 view .LVU427
 1843               	.LBB70:
  30:./lib/lib8tion/math8.h ****          /* First, add j to i, conditioning the C flag */
 1844               		.loc 2 30 5 view .LVU428
 1845               	.LBE70:
 1846               	.LBE69:
 401:quantum/rgblight.c ****     rgblight_sethsv_eeprom_helper(rgblight_config.hue, rgblight_config.sat, val, write_to_eeprom);
 1847               		.loc 1 401 19 is_stmt 0 view .LVU429
 1848 0000 E0E0      		ldi r30,lo8(rgblight_config)
 1849 0002 F0E0      		ldi r31,hi8(rgblight_config)
 1850               	.LBB72:
 1851               	.LBB71:
  30:./lib/lib8tion/math8.h ****          /* First, add j to i, conditioning the C flag */
 1852               		.loc 2 30 5 view .LVU430
 1853 0004 4381      		ldd r20,Z+3
 1854 0006 28E0      		ldi r18,lo8(8)
 1855               	/* #APP */
 1856               	 ;  30 "./lib/lib8tion/math8.h" 1
 1857 0008 420F      		add r20, r18    
 1858 000a 00F4      		brcc L_1455     
 1859 000c 4FEF      		ldi r20, 0xFF  
 1860               		L_1455: 
 1861               	 ;  0 "" 2
 1862               	.LVL120:
  43:./lib/lib8tion/math8.h **** #elif QADD8_ARM_DSP_ASM == 1
 1863               		.loc 2 43 5 is_stmt 1 view .LVU431
  43:./lib/lib8tion/math8.h **** #elif QADD8_ARM_DSP_ASM == 1
 1864               		.loc 2 43 5 is_stmt 0 view .LVU432
 1865               	/* #NOAPP */
 1866               	.LBE71:
 1867               	.LBE72:
 402:quantum/rgblight.c **** }
 1868               		.loc 1 402 5 is_stmt 1 view .LVU433
 1869 000e 282F      		mov r18,r24
 1870 0010 6281      		ldd r22,Z+2
 1871 0012 8181      		ldd r24,Z+1
 1872               	.LVL121:
 402:quantum/rgblight.c **** }
 1873               		.loc 1 402 5 is_stmt 0 view .LVU434
 1874 0014 0C94 0000 		jmp rgblight_sethsv_eeprom_helper
 1875               	.LVL122:
 402:quantum/rgblight.c **** }
 1876               		.loc 1 402 5 view .LVU435
 1877               		.cfi_endproc
 1878               	.LFE126:
 1880               		.section	.text.rgblight_increase_val_noeeprom,"ax",@progbits
 1881               	.global	rgblight_increase_val_noeeprom
 1883               	rgblight_increase_val_noeeprom:
 1884               	.LFB127:
 404:quantum/rgblight.c **** void rgblight_increase_val(void) { rgblight_increase_val_helper(true); }
 1885               		.loc 1 404 43 is_stmt 1 view -0
 1886               		.cfi_startproc
 1887               	/* prologue: function */
 1888               	/* frame size = 0 */
 1889               	/* stack size = 0 */
 1890               	.L__stack_usage = 0
 404:quantum/rgblight.c **** void rgblight_increase_val(void) { rgblight_increase_val_helper(true); }
 1891               		.loc 1 404 45 view .LVU437
 1892 0000 80E0      		ldi r24,0
 1893 0002 0C94 0000 		jmp rgblight_increase_val_helper
 1894               	.LVL123:
 1895               		.cfi_endproc
 1896               	.LFE127:
 1898               		.section	.text.rgblight_increase_val,"ax",@progbits
 1899               	.global	rgblight_increase_val
 1901               	rgblight_increase_val:
 1902               	.LFB128:
 405:quantum/rgblight.c **** void rgblight_decrease_val_helper(bool write_to_eeprom) {
 1903               		.loc 1 405 34 view -0
 1904               		.cfi_startproc
 1905               	/* prologue: function */
 1906               	/* frame size = 0 */
 1907               	/* stack size = 0 */
 1908               	.L__stack_usage = 0
 405:quantum/rgblight.c **** void rgblight_decrease_val_helper(bool write_to_eeprom) {
 1909               		.loc 1 405 36 view .LVU439
 1910 0000 81E0      		ldi r24,lo8(1)
 1911 0002 0C94 0000 		jmp rgblight_increase_val_helper
 1912               	.LVL124:
 1913               		.cfi_endproc
 1914               	.LFE128:
 1916               		.section	.text.rgblight_decrease_val_helper,"ax",@progbits
 1917               	.global	rgblight_decrease_val_helper
 1919               	rgblight_decrease_val_helper:
 1920               	.LVL125:
 1921               	.LFB129:
 406:quantum/rgblight.c ****     uint8_t val = qsub8(rgblight_config.val, RGBLIGHT_VAL_STEP);
 1922               		.loc 1 406 57 view -0
 1923               		.cfi_startproc
 1924               	/* prologue: function */
 1925               	/* frame size = 0 */
 1926               	/* stack size = 0 */
 1927               	.L__stack_usage = 0
 407:quantum/rgblight.c ****     rgblight_sethsv_eeprom_helper(rgblight_config.hue, rgblight_config.sat, val, write_to_eeprom);
 1928               		.loc 1 407 5 view .LVU441
 1929               	.LBB73:
 1930               	.LBI73:
  88:./lib/lib8tion/math8.h **** {
 1931               		.loc 2 88 34 view .LVU442
 1932               	.LBB74:
  96:./lib/lib8tion/math8.h ****          /* First, subtract j from i, conditioning the C flag */
 1933               		.loc 2 96 5 view .LVU443
 1934               	.LBE74:
 1935               	.LBE73:
 407:quantum/rgblight.c ****     rgblight_sethsv_eeprom_helper(rgblight_config.hue, rgblight_config.sat, val, write_to_eeprom);
 1936               		.loc 1 407 19 is_stmt 0 view .LVU444
 1937 0000 E0E0      		ldi r30,lo8(rgblight_config)
 1938 0002 F0E0      		ldi r31,hi8(rgblight_config)
 1939               	.LBB76:
 1940               	.LBB75:
  96:./lib/lib8tion/math8.h ****          /* First, subtract j from i, conditioning the C flag */
 1941               		.loc 2 96 5 view .LVU445
 1942 0004 4381      		ldd r20,Z+3
 1943 0006 28E0      		ldi r18,lo8(8)
 1944               	/* #APP */
 1945               	 ;  96 "./lib/lib8tion/math8.h" 1
 1946 0008 421B      		sub r20, r18    
 1947 000a 00F4      		brcc L_1511     
 1948 000c 40E0      		ldi r20, 0x00  
 1949               		L_1511: 
 1950               	 ;  0 "" 2
 1951               	.LVL126:
 1952               		.loc 2 110 5 is_stmt 1 view .LVU446
 1953               		.loc 2 110 5 is_stmt 0 view .LVU447
 1954               	/* #NOAPP */
 1955               	.LBE75:
 1956               	.LBE76:
 408:quantum/rgblight.c **** }
 1957               		.loc 1 408 5 is_stmt 1 view .LVU448
 1958 000e 282F      		mov r18,r24
 1959 0010 6281      		ldd r22,Z+2
 1960 0012 8181      		ldd r24,Z+1
 1961               	.LVL127:
 408:quantum/rgblight.c **** }
 1962               		.loc 1 408 5 is_stmt 0 view .LVU449
 1963 0014 0C94 0000 		jmp rgblight_sethsv_eeprom_helper
 1964               	.LVL128:
 408:quantum/rgblight.c **** }
 1965               		.loc 1 408 5 view .LVU450
 1966               		.cfi_endproc
 1967               	.LFE129:
 1969               		.section	.text.rgblight_decrease_val_noeeprom,"ax",@progbits
 1970               	.global	rgblight_decrease_val_noeeprom
 1972               	rgblight_decrease_val_noeeprom:
 1973               	.LFB130:
 410:quantum/rgblight.c **** void rgblight_decrease_val(void) { rgblight_decrease_val_helper(true); }
 1974               		.loc 1 410 43 is_stmt 1 view -0
 1975               		.cfi_startproc
 1976               	/* prologue: function */
 1977               	/* frame size = 0 */
 1978               	/* stack size = 0 */
 1979               	.L__stack_usage = 0
 410:quantum/rgblight.c **** void rgblight_decrease_val(void) { rgblight_decrease_val_helper(true); }
 1980               		.loc 1 410 45 view .LVU452
 1981 0000 80E0      		ldi r24,0
 1982 0002 0C94 0000 		jmp rgblight_decrease_val_helper
 1983               	.LVL129:
 1984               		.cfi_endproc
 1985               	.LFE130:
 1987               		.section	.text.rgblight_decrease_val,"ax",@progbits
 1988               	.global	rgblight_decrease_val
 1990               	rgblight_decrease_val:
 1991               	.LFB131:
 411:quantum/rgblight.c **** void rgblight_increase_speed(void) {
 1992               		.loc 1 411 34 view -0
 1993               		.cfi_startproc
 1994               	/* prologue: function */
 1995               	/* frame size = 0 */
 1996               	/* stack size = 0 */
 1997               	.L__stack_usage = 0
 411:quantum/rgblight.c **** void rgblight_increase_speed(void) {
 1998               		.loc 1 411 36 view .LVU454
 1999 0000 81E0      		ldi r24,lo8(1)
 2000 0002 0C94 0000 		jmp rgblight_decrease_val_helper
 2001               	.LVL130:
 2002               		.cfi_endproc
 2003               	.LFE131:
 2005               		.section	.text.rgblight_sethsv,"ax",@progbits
 2006               	.global	rgblight_sethsv
 2008               	rgblight_sethsv:
 2009               	.LVL131:
 2010               	.LFB136:
 504:quantum/rgblight.c **** 
 2011               		.loc 1 504 61 view -0
 2012               		.cfi_startproc
 2013               	/* prologue: function */
 2014               	/* frame size = 0 */
 2015               	/* stack size = 0 */
 2016               	.L__stack_usage = 0
 504:quantum/rgblight.c **** 
 2017               		.loc 1 504 63 view .LVU456
 2018 0000 21E0      		ldi r18,lo8(1)
 2019 0002 0C94 0000 		jmp rgblight_sethsv_eeprom_helper
 2020               	.LVL132:
 504:quantum/rgblight.c **** 
 2021               		.loc 1 504 63 is_stmt 0 view .LVU457
 2022               		.cfi_endproc
 2023               	.LFE136:
 2025               		.section	.text.rgblight_sethsv_noeeprom,"ax",@progbits
 2026               	.global	rgblight_sethsv_noeeprom
 2028               	rgblight_sethsv_noeeprom:
 2029               	.LVL133:
 2030               	.LFB137:
 506:quantum/rgblight.c **** 
 2031               		.loc 1 506 70 is_stmt 1 view -0
 2032               		.cfi_startproc
 2033               	/* prologue: function */
 2034               	/* frame size = 0 */
 2035               	/* stack size = 0 */
 2036               	.L__stack_usage = 0
 506:quantum/rgblight.c **** 
 2037               		.loc 1 506 72 view .LVU459
 2038 0000 20E0      		ldi r18,0
 2039 0002 0C94 0000 		jmp rgblight_sethsv_eeprom_helper
 2040               	.LVL134:
 506:quantum/rgblight.c **** 
 2041               		.loc 1 506 72 is_stmt 0 view .LVU460
 2042               		.cfi_endproc
 2043               	.LFE137:
 2045               		.section	.text.rgblight_setrgb_at,"ax",@progbits
 2046               	.global	rgblight_setrgb_at
 2048               	rgblight_setrgb_at:
 2049               	.LVL135:
 2050               	.LFB146:
 546:quantum/rgblight.c ****     if (!rgblight_config.enable || index >= RGBLED_NUM) {
 2051               		.loc 1 546 73 is_stmt 1 view -0
 2052               		.cfi_startproc
 2053               	/* prologue: function */
 2054               	/* frame size = 0 */
 2055               	/* stack size = 0 */
 2056               	.L__stack_usage = 0
 546:quantum/rgblight.c ****     if (!rgblight_config.enable || index >= RGBLED_NUM) {
 2057               		.loc 1 546 73 is_stmt 0 view .LVU462
 2058 0000 A82F      		mov r26,r24
 2059 0002 362F      		mov r19,r22
 547:quantum/rgblight.c ****         return;
 2060               		.loc 1 547 5 is_stmt 1 view .LVU463
 547:quantum/rgblight.c ****         return;
 2061               		.loc 1 547 25 is_stmt 0 view .LVU464
 2062 0004 8091 0000 		lds r24,rgblight_config
 2063               	.LVL136:
 547:quantum/rgblight.c ****         return;
 2064               		.loc 1 547 8 view .LVU465
 2065 0008 80FF      		sbrs r24,0
 2066 000a 00C0      		rjmp .L98
 547:quantum/rgblight.c ****         return;
 2067               		.loc 1 547 33 discriminator 1 view .LVU466
 2068 000c 2830      		cpi r18,lo8(8)
 2069 000e 00F4      		brsh .L98
 551:quantum/rgblight.c ****     led[index].g = g;
 2070               		.loc 1 551 5 is_stmt 1 view .LVU467
 551:quantum/rgblight.c ****     led[index].g = g;
 2071               		.loc 1 551 18 is_stmt 0 view .LVU468
 2072 0010 822F      		mov r24,r18
 2073 0012 90E0      		ldi r25,0
 2074 0014 63E0      		ldi r22,lo8(3)
 2075 0016 70E0      		ldi r23,0
 2076               	.LVL137:
 551:quantum/rgblight.c ****     led[index].g = g;
 2077               		.loc 1 551 18 view .LVU469
 2078 0018 0E94 0000 		call __mulhi3
 2079 001c FC01      		movw r30,r24
 2080 001e E050      		subi r30,lo8(-(led))
 2081 0020 F040      		sbci r31,hi8(-(led))
 2082 0022 A183      		std Z+1,r26
 552:quantum/rgblight.c ****     led[index].b = b;
 2083               		.loc 1 552 5 is_stmt 1 view .LVU470
 552:quantum/rgblight.c ****     led[index].b = b;
 2084               		.loc 1 552 18 is_stmt 0 view .LVU471
 2085 0024 3083      		st Z,r19
 553:quantum/rgblight.c **** #ifdef RGBW
 2086               		.loc 1 553 5 is_stmt 1 view .LVU472
 553:quantum/rgblight.c **** #ifdef RGBW
 2087               		.loc 1 553 18 is_stmt 0 view .LVU473
 2088 0026 4283      		std Z+2,r20
 557:quantum/rgblight.c **** }
 2089               		.loc 1 557 5 is_stmt 1 view .LVU474
 2090 0028 0C94 0000 		jmp rgblight_set
 2091               	.LVL138:
 2092               	.L98:
 2093               	/* epilogue start */
 558:quantum/rgblight.c **** 
 2094               		.loc 1 558 1 is_stmt 0 view .LVU475
 2095 002c 0895      		ret
 2096               		.cfi_endproc
 2097               	.LFE146:
 2099               		.section	.text.rgblight_sethsv_at,"ax",@progbits
 2100               	.global	rgblight_sethsv_at
 2102               	rgblight_sethsv_at:
 2103               	.LVL139:
 2104               	.LFB147:
 560:quantum/rgblight.c ****     if (!rgblight_config.enable) {
 2105               		.loc 1 560 79 is_stmt 1 view -0
 2106               		.cfi_startproc
 560:quantum/rgblight.c ****     if (!rgblight_config.enable) {
 2107               		.loc 1 560 79 is_stmt 0 view .LVU477
 2108 0000 1F93      		push r17
 2109               	.LCFI32:
 2110               		.cfi_def_cfa_offset 3
 2111               		.cfi_offset 17, -2
 2112 0002 CF93      		push r28
 2113               	.LCFI33:
 2114               		.cfi_def_cfa_offset 4
 2115               		.cfi_offset 28, -3
 2116 0004 DF93      		push r29
 2117               	.LCFI34:
 2118               		.cfi_def_cfa_offset 5
 2119               		.cfi_offset 29, -4
 2120 0006 00D0      		rcall .
 2121 0008 0F92      		push __tmp_reg__
 2122               	.LCFI35:
 2123               		.cfi_def_cfa_offset 8
 2124 000a CDB7      		in r28,__SP_L__
 2125 000c DEB7      		in r29,__SP_H__
 2126               	.LCFI36:
 2127               		.cfi_def_cfa_register 28
 2128               	/* prologue: function */
 2129               	/* frame size = 3 */
 2130               	/* stack size = 6 */
 2131               	.L__stack_usage = 6
 2132 000e 122F      		mov r17,r18
 561:quantum/rgblight.c ****         return;
 2133               		.loc 1 561 5 is_stmt 1 view .LVU478
 561:quantum/rgblight.c ****         return;
 2134               		.loc 1 561 25 is_stmt 0 view .LVU479
 2135 0010 9091 0000 		lds r25,rgblight_config
 561:quantum/rgblight.c ****         return;
 2136               		.loc 1 561 8 view .LVU480
 2137 0014 90FF      		sbrs r25,0
 2138 0016 00C0      		rjmp .L103
 565:quantum/rgblight.c ****     sethsv(hue, sat, val, &tmp_led);
 2139               		.loc 1 565 5 is_stmt 1 view .LVU481
 566:quantum/rgblight.c ****     rgblight_setrgb_at(tmp_led.r, tmp_led.g, tmp_led.b, index);
 2140               		.loc 1 566 5 view .LVU482
 2141               	.LVL140:
 2142               	.LBB79:
 2143               	.LBI79:
 125:quantum/rgblight.c **** 
 2144               		.loc 1 125 6 view .LVU483
 2145               	.LBB80:
 125:quantum/rgblight.c **** 
 2146               		.loc 1 125 70 view .LVU484
 2147 0018 9E01      		movw r18,r28
 2148               	.LVL141:
 125:quantum/rgblight.c **** 
 2149               		.loc 1 125 70 is_stmt 0 view .LVU485
 2150 001a 2F5F      		subi r18,-1
 2151 001c 3F4F      		sbci r19,-1
 2152 001e 0E94 0000 		call sethsv_raw
 2153               	.LVL142:
 125:quantum/rgblight.c **** 
 2154               		.loc 1 125 70 view .LVU486
 2155               	.LBE80:
 2156               	.LBE79:
 567:quantum/rgblight.c **** }
 2157               		.loc 1 567 5 is_stmt 1 view .LVU487
 2158 0022 212F      		mov r18,r17
 2159 0024 4B81      		ldd r20,Y+3
 2160 0026 6981      		ldd r22,Y+1
 2161 0028 8A81      		ldd r24,Y+2
 2162 002a 0E94 0000 		call rgblight_setrgb_at
 2163               	.LVL143:
 2164               	.L103:
 2165               	/* epilogue start */
 568:quantum/rgblight.c **** 
 2166               		.loc 1 568 1 is_stmt 0 view .LVU488
 2167 002e 0F90      		pop __tmp_reg__
 2168 0030 0F90      		pop __tmp_reg__
 2169 0032 0F90      		pop __tmp_reg__
 2170 0034 DF91      		pop r29
 2171 0036 CF91      		pop r28
 2172 0038 1F91      		pop r17
 2173               	.LVL144:
 568:quantum/rgblight.c **** 
 2174               		.loc 1 568 1 view .LVU489
 2175 003a 0895      		ret
 2176               		.cfi_endproc
 2177               	.LFE147:
 2179               		.section	.text.rgblight_setrgb_range,"ax",@progbits
 2180               	.global	rgblight_setrgb_range
 2182               	rgblight_setrgb_range:
 2183               	.LVL145:
 2184               	.LFB149:
 582:quantum/rgblight.c ****     if (!rgblight_config.enable || start < 0 || start >= end || end > RGBLED_NUM) {
 2185               		.loc 1 582 89 is_stmt 1 view -0
 2186               		.cfi_startproc
 582:quantum/rgblight.c ****     if (!rgblight_config.enable || start < 0 || start >= end || end > RGBLED_NUM) {
 2187               		.loc 1 582 89 is_stmt 0 view .LVU491
 2188 0000 0F93      		push r16
 2189               	.LCFI37:
 2190               		.cfi_def_cfa_offset 3
 2191               		.cfi_offset 16, -2
 2192               	/* prologue: function */
 2193               	/* frame size = 0 */
 2194               	/* stack size = 1 */
 2195               	.L__stack_usage = 1
 2196 0002 A82F      		mov r26,r24
 2197 0004 362F      		mov r19,r22
 583:quantum/rgblight.c ****         return;
 2198               		.loc 1 583 5 is_stmt 1 view .LVU492
 583:quantum/rgblight.c ****         return;
 2199               		.loc 1 583 25 is_stmt 0 view .LVU493
 2200 0006 8091 0000 		lds r24,rgblight_config
 2201               	.LVL146:
 583:quantum/rgblight.c ****         return;
 2202               		.loc 1 583 8 view .LVU494
 2203 000a 80FF      		sbrs r24,0
 2204 000c 00C0      		rjmp .L106
 583:quantum/rgblight.c ****         return;
 2205               		.loc 1 583 46 discriminator 1 view .LVU495
 2206 000e 2017      		cp r18,r16
 2207 0010 00F4      		brsh .L106
 583:quantum/rgblight.c ****         return;
 2208               		.loc 1 583 62 discriminator 2 view .LVU496
 2209 0012 0930      		cpi r16,lo8(9)
 2210 0014 00F4      		brsh .L106
 2211 0016 822F      		mov r24,r18
 2212 0018 90E0      		ldi r25,0
 2213 001a 63E0      		ldi r22,lo8(3)
 2214 001c 70E0      		ldi r23,0
 2215               	.LVL147:
 583:quantum/rgblight.c ****         return;
 2216               		.loc 1 583 62 discriminator 2 view .LVU497
 2217 001e 0E94 0000 		call __mulhi3
 2218 0022 FC01      		movw r30,r24
 2219 0024 E050      		subi r30,lo8(-(led))
 2220 0026 F040      		sbci r31,hi8(-(led))
 2221               	.LVL148:
 2222               	.L108:
 2223               	.LBB81:
 588:quantum/rgblight.c ****         led[i].g = g;
 2224               		.loc 1 588 9 is_stmt 1 discriminator 3 view .LVU498
 588:quantum/rgblight.c ****         led[i].g = g;
 2225               		.loc 1 588 18 is_stmt 0 discriminator 3 view .LVU499
 2226 0028 A183      		std Z+1,r26
 589:quantum/rgblight.c ****         led[i].b = b;
 2227               		.loc 1 589 9 is_stmt 1 discriminator 3 view .LVU500
 589:quantum/rgblight.c ****         led[i].b = b;
 2228               		.loc 1 589 18 is_stmt 0 discriminator 3 view .LVU501
 2229 002a 3083      		st Z,r19
 590:quantum/rgblight.c **** #ifdef RGBW
 2230               		.loc 1 590 9 is_stmt 1 discriminator 3 view .LVU502
 590:quantum/rgblight.c **** #ifdef RGBW
 2231               		.loc 1 590 18 is_stmt 0 discriminator 3 view .LVU503
 2232 002c 4283      		std Z+2,r20
 587:quantum/rgblight.c ****         led[i].r = r;
 2233               		.loc 1 587 39 discriminator 3 view .LVU504
 2234 002e 2F5F      		subi r18,lo8(-(1))
 2235               	.LVL149:
 587:quantum/rgblight.c ****         led[i].r = r;
 2236               		.loc 1 587 39 discriminator 3 view .LVU505
 2237 0030 3396      		adiw r30,3
 587:quantum/rgblight.c ****         led[i].r = r;
 2238               		.loc 1 587 5 discriminator 3 view .LVU506
 2239 0032 0213      		cpse r16,r18
 2240 0034 00C0      		rjmp .L108
 587:quantum/rgblight.c ****         led[i].r = r;
 2241               		.loc 1 587 5 discriminator 3 view .LVU507
 2242               	.LBE81:
 595:quantum/rgblight.c ****     wait_ms(1);
 2243               		.loc 1 595 5 is_stmt 1 view .LVU508
 2244 0036 0E94 0000 		call rgblight_set
 2245               	.LVL150:
 596:quantum/rgblight.c **** }
 2246               		.loc 1 596 5 view .LVU509
 2247               	.LBB82:
 2248               	.LBI82:
 2249               		.file 3 "c:\\users\\nonej\\documents\\keyboard\\msys64\\home\\nonej\\qmk_utils\\avr8-gnu-toolchain
   1:c:\users\nonej\documents\keyboard\msys64\home\nonej\qmk_utils\avr8-gnu-toolchain\avr\include\util\delay.h **** /* Copyright (c) 2002, Marek Michalkiewicz
   2:c:\users\nonej\documents\keyboard\msys64\home\nonej\qmk_utils\avr8-gnu-toolchain\avr\include\util\delay.h ****    Copyright (c) 2004,2005,2007 Joerg Wunsch
   3:c:\users\nonej\documents\keyboard\msys64\home\nonej\qmk_utils\avr8-gnu-toolchain\avr\include\util\delay.h ****    Copyright (c) 2007  Florin-Viorel Petrov
   4:c:\users\nonej\documents\keyboard\msys64\home\nonej\qmk_utils\avr8-gnu-toolchain\avr\include\util\delay.h ****    All rights reserved.
   5:c:\users\nonej\documents\keyboard\msys64\home\nonej\qmk_utils\avr8-gnu-toolchain\avr\include\util\delay.h **** 
   6:c:\users\nonej\documents\keyboard\msys64\home\nonej\qmk_utils\avr8-gnu-toolchain\avr\include\util\delay.h ****    Redistribution and use in source and binary forms, with or without
   7:c:\users\nonej\documents\keyboard\msys64\home\nonej\qmk_utils\avr8-gnu-toolchain\avr\include\util\delay.h ****    modification, are permitted provided that the following conditions are met:
   8:c:\users\nonej\documents\keyboard\msys64\home\nonej\qmk_utils\avr8-gnu-toolchain\avr\include\util\delay.h **** 
   9:c:\users\nonej\documents\keyboard\msys64\home\nonej\qmk_utils\avr8-gnu-toolchain\avr\include\util\delay.h ****    * Redistributions of source code must retain the above copyright
  10:c:\users\nonej\documents\keyboard\msys64\home\nonej\qmk_utils\avr8-gnu-toolchain\avr\include\util\delay.h ****      notice, this list of conditions and the following disclaimer.
  11:c:\users\nonej\documents\keyboard\msys64\home\nonej\qmk_utils\avr8-gnu-toolchain\avr\include\util\delay.h **** 
  12:c:\users\nonej\documents\keyboard\msys64\home\nonej\qmk_utils\avr8-gnu-toolchain\avr\include\util\delay.h ****    * Redistributions in binary form must reproduce the above copyright
  13:c:\users\nonej\documents\keyboard\msys64\home\nonej\qmk_utils\avr8-gnu-toolchain\avr\include\util\delay.h ****      notice, this list of conditions and the following disclaimer in
  14:c:\users\nonej\documents\keyboard\msys64\home\nonej\qmk_utils\avr8-gnu-toolchain\avr\include\util\delay.h ****      the documentation and/or other materials provided with the
  15:c:\users\nonej\documents\keyboard\msys64\home\nonej\qmk_utils\avr8-gnu-toolchain\avr\include\util\delay.h ****      distribution.
  16:c:\users\nonej\documents\keyboard\msys64\home\nonej\qmk_utils\avr8-gnu-toolchain\avr\include\util\delay.h **** 
  17:c:\users\nonej\documents\keyboard\msys64\home\nonej\qmk_utils\avr8-gnu-toolchain\avr\include\util\delay.h ****    * Neither the name of the copyright holders nor the names of
  18:c:\users\nonej\documents\keyboard\msys64\home\nonej\qmk_utils\avr8-gnu-toolchain\avr\include\util\delay.h ****      contributors may be used to endorse or promote products derived
  19:c:\users\nonej\documents\keyboard\msys64\home\nonej\qmk_utils\avr8-gnu-toolchain\avr\include\util\delay.h ****      from this software without specific prior written permission.
  20:c:\users\nonej\documents\keyboard\msys64\home\nonej\qmk_utils\avr8-gnu-toolchain\avr\include\util\delay.h **** 
  21:c:\users\nonej\documents\keyboard\msys64\home\nonej\qmk_utils\avr8-gnu-toolchain\avr\include\util\delay.h ****   THIS SOFTWARE IS PROVIDED BY THE COPYRIGHT HOLDERS AND CONTRIBUTORS "AS IS"
  22:c:\users\nonej\documents\keyboard\msys64\home\nonej\qmk_utils\avr8-gnu-toolchain\avr\include\util\delay.h ****   AND ANY EXPRESS OR IMPLIED WARRANTIES, INCLUDING, BUT NOT LIMITED TO, THE
  23:c:\users\nonej\documents\keyboard\msys64\home\nonej\qmk_utils\avr8-gnu-toolchain\avr\include\util\delay.h ****   IMPLIED WARRANTIES OF MERCHANTABILITY AND FITNESS FOR A PARTICULAR PURPOSE
  24:c:\users\nonej\documents\keyboard\msys64\home\nonej\qmk_utils\avr8-gnu-toolchain\avr\include\util\delay.h ****   ARE DISCLAIMED. IN NO EVENT SHALL THE COPYRIGHT OWNER OR CONTRIBUTORS BE
  25:c:\users\nonej\documents\keyboard\msys64\home\nonej\qmk_utils\avr8-gnu-toolchain\avr\include\util\delay.h ****   LIABLE FOR ANY DIRECT, INDIRECT, INCIDENTAL, SPECIAL, EXEMPLARY, OR
  26:c:\users\nonej\documents\keyboard\msys64\home\nonej\qmk_utils\avr8-gnu-toolchain\avr\include\util\delay.h ****   CONSEQUENTIAL DAMAGES (INCLUDING, BUT NOT LIMITED TO, PROCUREMENT OF
  27:c:\users\nonej\documents\keyboard\msys64\home\nonej\qmk_utils\avr8-gnu-toolchain\avr\include\util\delay.h ****   SUBSTITUTE GOODS OR SERVICES; LOSS OF USE, DATA, OR PROFITS; OR BUSINESS
  28:c:\users\nonej\documents\keyboard\msys64\home\nonej\qmk_utils\avr8-gnu-toolchain\avr\include\util\delay.h ****   INTERRUPTION) HOWEVER CAUSED AND ON ANY THEORY OF LIABILITY, WHETHER IN
  29:c:\users\nonej\documents\keyboard\msys64\home\nonej\qmk_utils\avr8-gnu-toolchain\avr\include\util\delay.h ****   CONTRACT, STRICT LIABILITY, OR TORT (INCLUDING NEGLIGENCE OR OTHERWISE)
  30:c:\users\nonej\documents\keyboard\msys64\home\nonej\qmk_utils\avr8-gnu-toolchain\avr\include\util\delay.h ****   ARISING IN ANY WAY OUT OF THE USE OF THIS SOFTWARE, EVEN IF ADVISED OF THE
  31:c:\users\nonej\documents\keyboard\msys64\home\nonej\qmk_utils\avr8-gnu-toolchain\avr\include\util\delay.h ****   POSSIBILITY OF SUCH DAMAGE. */
  32:c:\users\nonej\documents\keyboard\msys64\home\nonej\qmk_utils\avr8-gnu-toolchain\avr\include\util\delay.h **** 
  33:c:\users\nonej\documents\keyboard\msys64\home\nonej\qmk_utils\avr8-gnu-toolchain\avr\include\util\delay.h **** /* $Id: delay.h.in 2506 2016-02-08 10:05:45Z joerg_wunsch $ */
  34:c:\users\nonej\documents\keyboard\msys64\home\nonej\qmk_utils\avr8-gnu-toolchain\avr\include\util\delay.h **** 
  35:c:\users\nonej\documents\keyboard\msys64\home\nonej\qmk_utils\avr8-gnu-toolchain\avr\include\util\delay.h **** #ifndef _UTIL_DELAY_H_
  36:c:\users\nonej\documents\keyboard\msys64\home\nonej\qmk_utils\avr8-gnu-toolchain\avr\include\util\delay.h **** #define _UTIL_DELAY_H_ 1
  37:c:\users\nonej\documents\keyboard\msys64\home\nonej\qmk_utils\avr8-gnu-toolchain\avr\include\util\delay.h **** 
  38:c:\users\nonej\documents\keyboard\msys64\home\nonej\qmk_utils\avr8-gnu-toolchain\avr\include\util\delay.h **** #ifndef __DOXYGEN__
  39:c:\users\nonej\documents\keyboard\msys64\home\nonej\qmk_utils\avr8-gnu-toolchain\avr\include\util\delay.h **** #  ifndef __HAS_DELAY_CYCLES
  40:c:\users\nonej\documents\keyboard\msys64\home\nonej\qmk_utils\avr8-gnu-toolchain\avr\include\util\delay.h **** #    define __HAS_DELAY_CYCLES 1
  41:c:\users\nonej\documents\keyboard\msys64\home\nonej\qmk_utils\avr8-gnu-toolchain\avr\include\util\delay.h **** #  endif
  42:c:\users\nonej\documents\keyboard\msys64\home\nonej\qmk_utils\avr8-gnu-toolchain\avr\include\util\delay.h **** #endif  /* __DOXYGEN__ */
  43:c:\users\nonej\documents\keyboard\msys64\home\nonej\qmk_utils\avr8-gnu-toolchain\avr\include\util\delay.h **** 
  44:c:\users\nonej\documents\keyboard\msys64\home\nonej\qmk_utils\avr8-gnu-toolchain\avr\include\util\delay.h **** #include <inttypes.h>
  45:c:\users\nonej\documents\keyboard\msys64\home\nonej\qmk_utils\avr8-gnu-toolchain\avr\include\util\delay.h **** #include <util/delay_basic.h>
  46:c:\users\nonej\documents\keyboard\msys64\home\nonej\qmk_utils\avr8-gnu-toolchain\avr\include\util\delay.h **** #include <math.h>
  47:c:\users\nonej\documents\keyboard\msys64\home\nonej\qmk_utils\avr8-gnu-toolchain\avr\include\util\delay.h **** 
  48:c:\users\nonej\documents\keyboard\msys64\home\nonej\qmk_utils\avr8-gnu-toolchain\avr\include\util\delay.h **** /** \file */
  49:c:\users\nonej\documents\keyboard\msys64\home\nonej\qmk_utils\avr8-gnu-toolchain\avr\include\util\delay.h **** /** \defgroup util_delay <util/delay.h>: Convenience functions for busy-wait delay loops
  50:c:\users\nonej\documents\keyboard\msys64\home\nonej\qmk_utils\avr8-gnu-toolchain\avr\include\util\delay.h ****     \code
  51:c:\users\nonej\documents\keyboard\msys64\home\nonej\qmk_utils\avr8-gnu-toolchain\avr\include\util\delay.h ****     #define F_CPU 1000000UL  // 1 MHz
  52:c:\users\nonej\documents\keyboard\msys64\home\nonej\qmk_utils\avr8-gnu-toolchain\avr\include\util\delay.h ****     //#define F_CPU 14.7456E6
  53:c:\users\nonej\documents\keyboard\msys64\home\nonej\qmk_utils\avr8-gnu-toolchain\avr\include\util\delay.h ****     #include <util/delay.h>
  54:c:\users\nonej\documents\keyboard\msys64\home\nonej\qmk_utils\avr8-gnu-toolchain\avr\include\util\delay.h ****     \endcode
  55:c:\users\nonej\documents\keyboard\msys64\home\nonej\qmk_utils\avr8-gnu-toolchain\avr\include\util\delay.h **** 
  56:c:\users\nonej\documents\keyboard\msys64\home\nonej\qmk_utils\avr8-gnu-toolchain\avr\include\util\delay.h ****     \note As an alternative method, it is possible to pass the
  57:c:\users\nonej\documents\keyboard\msys64\home\nonej\qmk_utils\avr8-gnu-toolchain\avr\include\util\delay.h ****     F_CPU macro down to the compiler from the Makefile.
  58:c:\users\nonej\documents\keyboard\msys64\home\nonej\qmk_utils\avr8-gnu-toolchain\avr\include\util\delay.h ****     Obviously, in that case, no \c \#define statement should be
  59:c:\users\nonej\documents\keyboard\msys64\home\nonej\qmk_utils\avr8-gnu-toolchain\avr\include\util\delay.h ****     used.
  60:c:\users\nonej\documents\keyboard\msys64\home\nonej\qmk_utils\avr8-gnu-toolchain\avr\include\util\delay.h **** 
  61:c:\users\nonej\documents\keyboard\msys64\home\nonej\qmk_utils\avr8-gnu-toolchain\avr\include\util\delay.h ****     The functions in this header file are wrappers around the basic
  62:c:\users\nonej\documents\keyboard\msys64\home\nonej\qmk_utils\avr8-gnu-toolchain\avr\include\util\delay.h ****     busy-wait functions from <util/delay_basic.h>.  They are meant as
  63:c:\users\nonej\documents\keyboard\msys64\home\nonej\qmk_utils\avr8-gnu-toolchain\avr\include\util\delay.h ****     convenience functions where actual time values can be specified
  64:c:\users\nonej\documents\keyboard\msys64\home\nonej\qmk_utils\avr8-gnu-toolchain\avr\include\util\delay.h ****     rather than a number of cycles to wait for.  The idea behind is
  65:c:\users\nonej\documents\keyboard\msys64\home\nonej\qmk_utils\avr8-gnu-toolchain\avr\include\util\delay.h ****     that compile-time constant expressions will be eliminated by
  66:c:\users\nonej\documents\keyboard\msys64\home\nonej\qmk_utils\avr8-gnu-toolchain\avr\include\util\delay.h ****     compiler optimization so floating-point expressions can be used
  67:c:\users\nonej\documents\keyboard\msys64\home\nonej\qmk_utils\avr8-gnu-toolchain\avr\include\util\delay.h ****     to calculate the number of delay cycles needed based on the CPU
  68:c:\users\nonej\documents\keyboard\msys64\home\nonej\qmk_utils\avr8-gnu-toolchain\avr\include\util\delay.h ****     frequency passed by the macro F_CPU.
  69:c:\users\nonej\documents\keyboard\msys64\home\nonej\qmk_utils\avr8-gnu-toolchain\avr\include\util\delay.h **** 
  70:c:\users\nonej\documents\keyboard\msys64\home\nonej\qmk_utils\avr8-gnu-toolchain\avr\include\util\delay.h ****     \note In order for these functions to work as intended, compiler
  71:c:\users\nonej\documents\keyboard\msys64\home\nonej\qmk_utils\avr8-gnu-toolchain\avr\include\util\delay.h ****     optimizations <em>must</em> be enabled, and the delay time
  72:c:\users\nonej\documents\keyboard\msys64\home\nonej\qmk_utils\avr8-gnu-toolchain\avr\include\util\delay.h ****     <em>must</em> be an expression that is a known constant at
  73:c:\users\nonej\documents\keyboard\msys64\home\nonej\qmk_utils\avr8-gnu-toolchain\avr\include\util\delay.h ****     compile-time.  If these requirements are not met, the resulting
  74:c:\users\nonej\documents\keyboard\msys64\home\nonej\qmk_utils\avr8-gnu-toolchain\avr\include\util\delay.h ****     delay will be much longer (and basically unpredictable), and
  75:c:\users\nonej\documents\keyboard\msys64\home\nonej\qmk_utils\avr8-gnu-toolchain\avr\include\util\delay.h ****     applications that otherwise do not use floating-point calculations
  76:c:\users\nonej\documents\keyboard\msys64\home\nonej\qmk_utils\avr8-gnu-toolchain\avr\include\util\delay.h ****     will experience severe code bloat by the floating-point library
  77:c:\users\nonej\documents\keyboard\msys64\home\nonej\qmk_utils\avr8-gnu-toolchain\avr\include\util\delay.h ****     routines linked into the application.
  78:c:\users\nonej\documents\keyboard\msys64\home\nonej\qmk_utils\avr8-gnu-toolchain\avr\include\util\delay.h **** 
  79:c:\users\nonej\documents\keyboard\msys64\home\nonej\qmk_utils\avr8-gnu-toolchain\avr\include\util\delay.h ****     The functions available allow the specification of microsecond, and
  80:c:\users\nonej\documents\keyboard\msys64\home\nonej\qmk_utils\avr8-gnu-toolchain\avr\include\util\delay.h ****     millisecond delays directly, using the application-supplied macro
  81:c:\users\nonej\documents\keyboard\msys64\home\nonej\qmk_utils\avr8-gnu-toolchain\avr\include\util\delay.h ****     F_CPU as the CPU clock frequency (in Hertz).
  82:c:\users\nonej\documents\keyboard\msys64\home\nonej\qmk_utils\avr8-gnu-toolchain\avr\include\util\delay.h **** 
  83:c:\users\nonej\documents\keyboard\msys64\home\nonej\qmk_utils\avr8-gnu-toolchain\avr\include\util\delay.h **** */
  84:c:\users\nonej\documents\keyboard\msys64\home\nonej\qmk_utils\avr8-gnu-toolchain\avr\include\util\delay.h **** 
  85:c:\users\nonej\documents\keyboard\msys64\home\nonej\qmk_utils\avr8-gnu-toolchain\avr\include\util\delay.h **** #if !defined(__DOXYGEN__)
  86:c:\users\nonej\documents\keyboard\msys64\home\nonej\qmk_utils\avr8-gnu-toolchain\avr\include\util\delay.h **** static __inline__ void _delay_us(double __us) __attribute__((__always_inline__));
  87:c:\users\nonej\documents\keyboard\msys64\home\nonej\qmk_utils\avr8-gnu-toolchain\avr\include\util\delay.h **** static __inline__ void _delay_ms(double __ms) __attribute__((__always_inline__));
  88:c:\users\nonej\documents\keyboard\msys64\home\nonej\qmk_utils\avr8-gnu-toolchain\avr\include\util\delay.h **** #endif
  89:c:\users\nonej\documents\keyboard\msys64\home\nonej\qmk_utils\avr8-gnu-toolchain\avr\include\util\delay.h **** 
  90:c:\users\nonej\documents\keyboard\msys64\home\nonej\qmk_utils\avr8-gnu-toolchain\avr\include\util\delay.h **** #ifndef F_CPU
  91:c:\users\nonej\documents\keyboard\msys64\home\nonej\qmk_utils\avr8-gnu-toolchain\avr\include\util\delay.h **** /* prevent compiler error by supplying a default */
  92:c:\users\nonej\documents\keyboard\msys64\home\nonej\qmk_utils\avr8-gnu-toolchain\avr\include\util\delay.h **** # warning "F_CPU not defined for <util/delay.h>"
  93:c:\users\nonej\documents\keyboard\msys64\home\nonej\qmk_utils\avr8-gnu-toolchain\avr\include\util\delay.h **** /** \ingroup util_delay
  94:c:\users\nonej\documents\keyboard\msys64\home\nonej\qmk_utils\avr8-gnu-toolchain\avr\include\util\delay.h ****     \def F_CPU
  95:c:\users\nonej\documents\keyboard\msys64\home\nonej\qmk_utils\avr8-gnu-toolchain\avr\include\util\delay.h ****     \brief CPU frequency in Hz
  96:c:\users\nonej\documents\keyboard\msys64\home\nonej\qmk_utils\avr8-gnu-toolchain\avr\include\util\delay.h **** 
  97:c:\users\nonej\documents\keyboard\msys64\home\nonej\qmk_utils\avr8-gnu-toolchain\avr\include\util\delay.h ****     The macro F_CPU specifies the CPU frequency to be considered by
  98:c:\users\nonej\documents\keyboard\msys64\home\nonej\qmk_utils\avr8-gnu-toolchain\avr\include\util\delay.h ****     the delay macros.  This macro is normally supplied by the
  99:c:\users\nonej\documents\keyboard\msys64\home\nonej\qmk_utils\avr8-gnu-toolchain\avr\include\util\delay.h ****     environment (e.g. from within a project header, or the project's
 100:c:\users\nonej\documents\keyboard\msys64\home\nonej\qmk_utils\avr8-gnu-toolchain\avr\include\util\delay.h ****     Makefile).  The value 1 MHz here is only provided as a "vanilla"
 101:c:\users\nonej\documents\keyboard\msys64\home\nonej\qmk_utils\avr8-gnu-toolchain\avr\include\util\delay.h ****     fallback if no such user-provided definition could be found.
 102:c:\users\nonej\documents\keyboard\msys64\home\nonej\qmk_utils\avr8-gnu-toolchain\avr\include\util\delay.h **** 
 103:c:\users\nonej\documents\keyboard\msys64\home\nonej\qmk_utils\avr8-gnu-toolchain\avr\include\util\delay.h ****     In terms of the delay functions, the CPU frequency can be given as
 104:c:\users\nonej\documents\keyboard\msys64\home\nonej\qmk_utils\avr8-gnu-toolchain\avr\include\util\delay.h ****     a floating-point constant (e.g. 3.6864E6 for 3.6864 MHz).
 105:c:\users\nonej\documents\keyboard\msys64\home\nonej\qmk_utils\avr8-gnu-toolchain\avr\include\util\delay.h ****     However, the macros in <util/setbaud.h> require it to be an
 106:c:\users\nonej\documents\keyboard\msys64\home\nonej\qmk_utils\avr8-gnu-toolchain\avr\include\util\delay.h ****     integer value.
 107:c:\users\nonej\documents\keyboard\msys64\home\nonej\qmk_utils\avr8-gnu-toolchain\avr\include\util\delay.h ****  */
 108:c:\users\nonej\documents\keyboard\msys64\home\nonej\qmk_utils\avr8-gnu-toolchain\avr\include\util\delay.h **** # define F_CPU 1000000UL
 109:c:\users\nonej\documents\keyboard\msys64\home\nonej\qmk_utils\avr8-gnu-toolchain\avr\include\util\delay.h **** #endif
 110:c:\users\nonej\documents\keyboard\msys64\home\nonej\qmk_utils\avr8-gnu-toolchain\avr\include\util\delay.h **** 
 111:c:\users\nonej\documents\keyboard\msys64\home\nonej\qmk_utils\avr8-gnu-toolchain\avr\include\util\delay.h **** #ifndef __OPTIMIZE__
 112:c:\users\nonej\documents\keyboard\msys64\home\nonej\qmk_utils\avr8-gnu-toolchain\avr\include\util\delay.h **** # warning "Compiler optimizations disabled; functions from <util/delay.h> won't work as designed"
 113:c:\users\nonej\documents\keyboard\msys64\home\nonej\qmk_utils\avr8-gnu-toolchain\avr\include\util\delay.h **** #endif
 114:c:\users\nonej\documents\keyboard\msys64\home\nonej\qmk_utils\avr8-gnu-toolchain\avr\include\util\delay.h **** 
 115:c:\users\nonej\documents\keyboard\msys64\home\nonej\qmk_utils\avr8-gnu-toolchain\avr\include\util\delay.h **** #if __HAS_DELAY_CYCLES && defined(__OPTIMIZE__) && \
 116:c:\users\nonej\documents\keyboard\msys64\home\nonej\qmk_utils\avr8-gnu-toolchain\avr\include\util\delay.h ****   !defined(__DELAY_BACKWARD_COMPATIBLE__) &&	   \
 117:c:\users\nonej\documents\keyboard\msys64\home\nonej\qmk_utils\avr8-gnu-toolchain\avr\include\util\delay.h ****   __STDC_HOSTED__
 118:c:\users\nonej\documents\keyboard\msys64\home\nonej\qmk_utils\avr8-gnu-toolchain\avr\include\util\delay.h **** #  include <math.h>
 119:c:\users\nonej\documents\keyboard\msys64\home\nonej\qmk_utils\avr8-gnu-toolchain\avr\include\util\delay.h **** #endif
 120:c:\users\nonej\documents\keyboard\msys64\home\nonej\qmk_utils\avr8-gnu-toolchain\avr\include\util\delay.h **** 
 121:c:\users\nonej\documents\keyboard\msys64\home\nonej\qmk_utils\avr8-gnu-toolchain\avr\include\util\delay.h **** /**
 122:c:\users\nonej\documents\keyboard\msys64\home\nonej\qmk_utils\avr8-gnu-toolchain\avr\include\util\delay.h ****    \ingroup util_delay
 123:c:\users\nonej\documents\keyboard\msys64\home\nonej\qmk_utils\avr8-gnu-toolchain\avr\include\util\delay.h **** 
 124:c:\users\nonej\documents\keyboard\msys64\home\nonej\qmk_utils\avr8-gnu-toolchain\avr\include\util\delay.h ****    Perform a delay of \c __ms milliseconds, using _delay_loop_2().
 125:c:\users\nonej\documents\keyboard\msys64\home\nonej\qmk_utils\avr8-gnu-toolchain\avr\include\util\delay.h **** 
 126:c:\users\nonej\documents\keyboard\msys64\home\nonej\qmk_utils\avr8-gnu-toolchain\avr\include\util\delay.h ****    The macro F_CPU is supposed to be defined to a
 127:c:\users\nonej\documents\keyboard\msys64\home\nonej\qmk_utils\avr8-gnu-toolchain\avr\include\util\delay.h ****    constant defining the CPU clock frequency (in Hertz).
 128:c:\users\nonej\documents\keyboard\msys64\home\nonej\qmk_utils\avr8-gnu-toolchain\avr\include\util\delay.h **** 
 129:c:\users\nonej\documents\keyboard\msys64\home\nonej\qmk_utils\avr8-gnu-toolchain\avr\include\util\delay.h ****    The maximal possible delay is 262.14 ms / F_CPU in MHz.
 130:c:\users\nonej\documents\keyboard\msys64\home\nonej\qmk_utils\avr8-gnu-toolchain\avr\include\util\delay.h **** 
 131:c:\users\nonej\documents\keyboard\msys64\home\nonej\qmk_utils\avr8-gnu-toolchain\avr\include\util\delay.h ****    When the user request delay which exceed the maximum possible one,
 132:c:\users\nonej\documents\keyboard\msys64\home\nonej\qmk_utils\avr8-gnu-toolchain\avr\include\util\delay.h ****    _delay_ms() provides a decreased resolution functionality. In this
 133:c:\users\nonej\documents\keyboard\msys64\home\nonej\qmk_utils\avr8-gnu-toolchain\avr\include\util\delay.h ****    mode _delay_ms() will work with a resolution of 1/10 ms, providing
 134:c:\users\nonej\documents\keyboard\msys64\home\nonej\qmk_utils\avr8-gnu-toolchain\avr\include\util\delay.h ****    delays up to 6.5535 seconds (independent from CPU frequency).  The
 135:c:\users\nonej\documents\keyboard\msys64\home\nonej\qmk_utils\avr8-gnu-toolchain\avr\include\util\delay.h ****    user will not be informed about decreased resolution.
 136:c:\users\nonej\documents\keyboard\msys64\home\nonej\qmk_utils\avr8-gnu-toolchain\avr\include\util\delay.h **** 
 137:c:\users\nonej\documents\keyboard\msys64\home\nonej\qmk_utils\avr8-gnu-toolchain\avr\include\util\delay.h ****    If the avr-gcc toolchain has __builtin_avr_delay_cycles()
 138:c:\users\nonej\documents\keyboard\msys64\home\nonej\qmk_utils\avr8-gnu-toolchain\avr\include\util\delay.h ****    support, maximal possible delay is 4294967.295 ms/ F_CPU in MHz. For
 139:c:\users\nonej\documents\keyboard\msys64\home\nonej\qmk_utils\avr8-gnu-toolchain\avr\include\util\delay.h ****    values greater than the maximal possible delay, overflows results in
 140:c:\users\nonej\documents\keyboard\msys64\home\nonej\qmk_utils\avr8-gnu-toolchain\avr\include\util\delay.h ****    no delay i.e., 0ms.
 141:c:\users\nonej\documents\keyboard\msys64\home\nonej\qmk_utils\avr8-gnu-toolchain\avr\include\util\delay.h **** 
 142:c:\users\nonej\documents\keyboard\msys64\home\nonej\qmk_utils\avr8-gnu-toolchain\avr\include\util\delay.h ****    Conversion of \c __ms into clock cycles may not always result in
 143:c:\users\nonej\documents\keyboard\msys64\home\nonej\qmk_utils\avr8-gnu-toolchain\avr\include\util\delay.h ****    integer.  By default, the clock cycles rounded up to next
 144:c:\users\nonej\documents\keyboard\msys64\home\nonej\qmk_utils\avr8-gnu-toolchain\avr\include\util\delay.h ****    integer. This ensures that the user gets at least \c __ms
 145:c:\users\nonej\documents\keyboard\msys64\home\nonej\qmk_utils\avr8-gnu-toolchain\avr\include\util\delay.h ****    microseconds of delay.
 146:c:\users\nonej\documents\keyboard\msys64\home\nonej\qmk_utils\avr8-gnu-toolchain\avr\include\util\delay.h **** 
 147:c:\users\nonej\documents\keyboard\msys64\home\nonej\qmk_utils\avr8-gnu-toolchain\avr\include\util\delay.h ****    Alternatively, by defining the macro \c __DELAY_ROUND_DOWN__, or
 148:c:\users\nonej\documents\keyboard\msys64\home\nonej\qmk_utils\avr8-gnu-toolchain\avr\include\util\delay.h ****    \c __DELAY_ROUND_CLOSEST__, before including this header file, the
 149:c:\users\nonej\documents\keyboard\msys64\home\nonej\qmk_utils\avr8-gnu-toolchain\avr\include\util\delay.h ****    algorithm can be made to round down, or round to closest integer,
 150:c:\users\nonej\documents\keyboard\msys64\home\nonej\qmk_utils\avr8-gnu-toolchain\avr\include\util\delay.h ****    respectively.
 151:c:\users\nonej\documents\keyboard\msys64\home\nonej\qmk_utils\avr8-gnu-toolchain\avr\include\util\delay.h **** 
 152:c:\users\nonej\documents\keyboard\msys64\home\nonej\qmk_utils\avr8-gnu-toolchain\avr\include\util\delay.h ****    \note
 153:c:\users\nonej\documents\keyboard\msys64\home\nonej\qmk_utils\avr8-gnu-toolchain\avr\include\util\delay.h **** 
 154:c:\users\nonej\documents\keyboard\msys64\home\nonej\qmk_utils\avr8-gnu-toolchain\avr\include\util\delay.h ****    The implementation of _delay_ms() based on
 155:c:\users\nonej\documents\keyboard\msys64\home\nonej\qmk_utils\avr8-gnu-toolchain\avr\include\util\delay.h ****    __builtin_avr_delay_cycles() is not backward compatible with older
 156:c:\users\nonej\documents\keyboard\msys64\home\nonej\qmk_utils\avr8-gnu-toolchain\avr\include\util\delay.h ****    implementations.  In order to get functionality backward compatible
 157:c:\users\nonej\documents\keyboard\msys64\home\nonej\qmk_utils\avr8-gnu-toolchain\avr\include\util\delay.h ****    with previous versions, the macro \c "__DELAY_BACKWARD_COMPATIBLE__"
 158:c:\users\nonej\documents\keyboard\msys64\home\nonej\qmk_utils\avr8-gnu-toolchain\avr\include\util\delay.h ****    must be defined before including this header file. Also, the
 159:c:\users\nonej\documents\keyboard\msys64\home\nonej\qmk_utils\avr8-gnu-toolchain\avr\include\util\delay.h ****    backward compatible algorithm will be chosen if the code is
 160:c:\users\nonej\documents\keyboard\msys64\home\nonej\qmk_utils\avr8-gnu-toolchain\avr\include\util\delay.h ****    compiled in a <em>freestanding environment</em> (GCC option
 161:c:\users\nonej\documents\keyboard\msys64\home\nonej\qmk_utils\avr8-gnu-toolchain\avr\include\util\delay.h ****    \c -ffreestanding), as the math functions required for rounding are
 162:c:\users\nonej\documents\keyboard\msys64\home\nonej\qmk_utils\avr8-gnu-toolchain\avr\include\util\delay.h ****    not available to the compiler then.
 163:c:\users\nonej\documents\keyboard\msys64\home\nonej\qmk_utils\avr8-gnu-toolchain\avr\include\util\delay.h **** 
 164:c:\users\nonej\documents\keyboard\msys64\home\nonej\qmk_utils\avr8-gnu-toolchain\avr\include\util\delay.h ****  */
 165:c:\users\nonej\documents\keyboard\msys64\home\nonej\qmk_utils\avr8-gnu-toolchain\avr\include\util\delay.h **** void
 166:c:\users\nonej\documents\keyboard\msys64\home\nonej\qmk_utils\avr8-gnu-toolchain\avr\include\util\delay.h **** _delay_ms(double __ms)
 2250               		.loc 3 166 1 view .LVU510
 2251               	.LBB83:
 167:c:\users\nonej\documents\keyboard\msys64\home\nonej\qmk_utils\avr8-gnu-toolchain\avr\include\util\delay.h **** {
 168:c:\users\nonej\documents\keyboard\msys64\home\nonej\qmk_utils\avr8-gnu-toolchain\avr\include\util\delay.h **** 	double __tmp ;
 2252               		.loc 3 168 2 view .LVU511
 169:c:\users\nonej\documents\keyboard\msys64\home\nonej\qmk_utils\avr8-gnu-toolchain\avr\include\util\delay.h **** #if __HAS_DELAY_CYCLES && defined(__OPTIMIZE__) && \
 170:c:\users\nonej\documents\keyboard\msys64\home\nonej\qmk_utils\avr8-gnu-toolchain\avr\include\util\delay.h ****   !defined(__DELAY_BACKWARD_COMPATIBLE__) &&	   \
 171:c:\users\nonej\documents\keyboard\msys64\home\nonej\qmk_utils\avr8-gnu-toolchain\avr\include\util\delay.h ****   __STDC_HOSTED__
 172:c:\users\nonej\documents\keyboard\msys64\home\nonej\qmk_utils\avr8-gnu-toolchain\avr\include\util\delay.h **** 	uint32_t __ticks_dc;
 2253               		.loc 3 172 2 view .LVU512
 173:c:\users\nonej\documents\keyboard\msys64\home\nonej\qmk_utils\avr8-gnu-toolchain\avr\include\util\delay.h **** 	extern void __builtin_avr_delay_cycles(unsigned long);
 2254               		.loc 3 173 2 view .LVU513
 174:c:\users\nonej\documents\keyboard\msys64\home\nonej\qmk_utils\avr8-gnu-toolchain\avr\include\util\delay.h **** 	__tmp = ((F_CPU) / 1e3) * __ms;
 2255               		.loc 3 174 2 view .LVU514
 175:c:\users\nonej\documents\keyboard\msys64\home\nonej\qmk_utils\avr8-gnu-toolchain\avr\include\util\delay.h **** 
 176:c:\users\nonej\documents\keyboard\msys64\home\nonej\qmk_utils\avr8-gnu-toolchain\avr\include\util\delay.h **** 	#if defined(__DELAY_ROUND_DOWN__)
 177:c:\users\nonej\documents\keyboard\msys64\home\nonej\qmk_utils\avr8-gnu-toolchain\avr\include\util\delay.h **** 		__ticks_dc = (uint32_t)fabs(__tmp);
 178:c:\users\nonej\documents\keyboard\msys64\home\nonej\qmk_utils\avr8-gnu-toolchain\avr\include\util\delay.h **** 
 179:c:\users\nonej\documents\keyboard\msys64\home\nonej\qmk_utils\avr8-gnu-toolchain\avr\include\util\delay.h **** 	#elif defined(__DELAY_ROUND_CLOSEST__)
 180:c:\users\nonej\documents\keyboard\msys64\home\nonej\qmk_utils\avr8-gnu-toolchain\avr\include\util\delay.h **** 		__ticks_dc = (uint32_t)(fabs(__tmp)+0.5);
 181:c:\users\nonej\documents\keyboard\msys64\home\nonej\qmk_utils\avr8-gnu-toolchain\avr\include\util\delay.h **** 
 182:c:\users\nonej\documents\keyboard\msys64\home\nonej\qmk_utils\avr8-gnu-toolchain\avr\include\util\delay.h **** 	#else
 183:c:\users\nonej\documents\keyboard\msys64\home\nonej\qmk_utils\avr8-gnu-toolchain\avr\include\util\delay.h **** 		//round up by default
 184:c:\users\nonej\documents\keyboard\msys64\home\nonej\qmk_utils\avr8-gnu-toolchain\avr\include\util\delay.h **** 		__ticks_dc = (uint32_t)(ceil(fabs(__tmp)));
 2256               		.loc 3 184 3 view .LVU515
 185:c:\users\nonej\documents\keyboard\msys64\home\nonej\qmk_utils\avr8-gnu-toolchain\avr\include\util\delay.h **** 	#endif
 186:c:\users\nonej\documents\keyboard\msys64\home\nonej\qmk_utils\avr8-gnu-toolchain\avr\include\util\delay.h **** 
 187:c:\users\nonej\documents\keyboard\msys64\home\nonej\qmk_utils\avr8-gnu-toolchain\avr\include\util\delay.h **** 	__builtin_avr_delay_cycles(__ticks_dc);
 2257               		.loc 3 187 2 view .LVU516
 2258 003a 8FE9      		ldi r24,lo8(3999)
 2259 003c 9FE0      		ldi r25,hi8(3999)
 2260 003e 0197      	1:	sbiw r24,1
 2261 0040 01F4      		brne 1b
 2262 0042 00C0      		rjmp .
 2263 0044 0000      		nop
 2264               	.LVL151:
 2265               	.L106:
 2266               	/* epilogue start */
 2267               		.loc 3 187 2 is_stmt 0 view .LVU517
 2268               	.LBE83:
 2269               	.LBE82:
 597:quantum/rgblight.c **** 
 2270               		.loc 1 597 1 view .LVU518
 2271 0046 0F91      		pop r16
 2272               	.LVL152:
 597:quantum/rgblight.c **** 
 2273               		.loc 1 597 1 view .LVU519
 2274 0048 0895      		ret
 2275               		.cfi_endproc
 2276               	.LFE149:
 2278               		.section	.text.rgblight_sethsv_range,"ax",@progbits
 2279               	.global	rgblight_sethsv_range
 2281               	rgblight_sethsv_range:
 2282               	.LVL153:
 2283               	.LFB150:
 599:quantum/rgblight.c ****     if (!rgblight_config.enable) {
 2284               		.loc 1 599 95 is_stmt 1 view -0
 2285               		.cfi_startproc
 599:quantum/rgblight.c ****     if (!rgblight_config.enable) {
 2286               		.loc 1 599 95 is_stmt 0 view .LVU521
 2287 0000 0F93      		push r16
 2288               	.LCFI38:
 2289               		.cfi_def_cfa_offset 3
 2290               		.cfi_offset 16, -2
 2291 0002 1F93      		push r17
 2292               	.LCFI39:
 2293               		.cfi_def_cfa_offset 4
 2294               		.cfi_offset 17, -3
 2295 0004 CF93      		push r28
 2296               	.LCFI40:
 2297               		.cfi_def_cfa_offset 5
 2298               		.cfi_offset 28, -4
 2299 0006 DF93      		push r29
 2300               	.LCFI41:
 2301               		.cfi_def_cfa_offset 6
 2302               		.cfi_offset 29, -5
 2303 0008 00D0      		rcall .
 2304 000a 0F92      		push __tmp_reg__
 2305               	.LCFI42:
 2306               		.cfi_def_cfa_offset 9
 2307 000c CDB7      		in r28,__SP_L__
 2308 000e DEB7      		in r29,__SP_H__
 2309               	.LCFI43:
 2310               		.cfi_def_cfa_register 28
 2311               	/* prologue: function */
 2312               	/* frame size = 3 */
 2313               	/* stack size = 7 */
 2314               	.L__stack_usage = 7
 2315 0010 122F      		mov r17,r18
 600:quantum/rgblight.c ****         return;
 2316               		.loc 1 600 5 is_stmt 1 view .LVU522
 600:quantum/rgblight.c ****         return;
 2317               		.loc 1 600 25 is_stmt 0 view .LVU523
 2318 0012 9091 0000 		lds r25,rgblight_config
 600:quantum/rgblight.c ****         return;
 2319               		.loc 1 600 8 view .LVU524
 2320 0016 90FF      		sbrs r25,0
 2321 0018 00C0      		rjmp .L113
 604:quantum/rgblight.c ****     sethsv(hue, sat, val, &tmp_led);
 2322               		.loc 1 604 5 is_stmt 1 view .LVU525
 605:quantum/rgblight.c ****     rgblight_setrgb_range(tmp_led.r, tmp_led.g, tmp_led.b, start, end);
 2323               		.loc 1 605 5 view .LVU526
 2324               	.LVL154:
 2325               	.LBB86:
 2326               	.LBI86:
 125:quantum/rgblight.c **** 
 2327               		.loc 1 125 6 view .LVU527
 2328               	.LBB87:
 125:quantum/rgblight.c **** 
 2329               		.loc 1 125 70 view .LVU528
 2330 001a 9E01      		movw r18,r28
 2331               	.LVL155:
 125:quantum/rgblight.c **** 
 2332               		.loc 1 125 70 is_stmt 0 view .LVU529
 2333 001c 2F5F      		subi r18,-1
 2334 001e 3F4F      		sbci r19,-1
 2335 0020 0E94 0000 		call sethsv_raw
 2336               	.LVL156:
 125:quantum/rgblight.c **** 
 2337               		.loc 1 125 70 view .LVU530
 2338               	.LBE87:
 2339               	.LBE86:
 606:quantum/rgblight.c **** }
 2340               		.loc 1 606 5 is_stmt 1 view .LVU531
 2341 0024 212F      		mov r18,r17
 2342 0026 4B81      		ldd r20,Y+3
 2343 0028 6981      		ldd r22,Y+1
 2344 002a 8A81      		ldd r24,Y+2
 2345 002c 0E94 0000 		call rgblight_setrgb_range
 2346               	.LVL157:
 2347               	.L113:
 2348               	/* epilogue start */
 607:quantum/rgblight.c **** 
 2349               		.loc 1 607 1 is_stmt 0 view .LVU532
 2350 0030 0F90      		pop __tmp_reg__
 2351 0032 0F90      		pop __tmp_reg__
 2352 0034 0F90      		pop __tmp_reg__
 2353 0036 DF91      		pop r29
 2354 0038 CF91      		pop r28
 2355 003a 1F91      		pop r17
 2356               	.LVL158:
 607:quantum/rgblight.c **** 
 2357               		.loc 1 607 1 view .LVU533
 2358 003c 0F91      		pop r16
 2359               	.LVL159:
 607:quantum/rgblight.c **** 
 2360               		.loc 1 607 1 view .LVU534
 2361 003e 0895      		ret
 2362               		.cfi_endproc
 2363               	.LFE150:
 2365               		.section	.text.rgblight_sethsv_master,"ax",@progbits
 2366               	.global	rgblight_sethsv_master
 2368               	rgblight_sethsv_master:
 2369               	.LVL160:
 2370               	.LFB153:
 614:quantum/rgblight.c **** 
 2371               		.loc 1 614 68 is_stmt 1 view -0
 2372               		.cfi_startproc
 614:quantum/rgblight.c **** 
 2373               		.loc 1 614 68 is_stmt 0 view .LVU536
 2374 0000 0F93      		push r16
 2375               	.LCFI44:
 2376               		.cfi_def_cfa_offset 3
 2377               		.cfi_offset 16, -2
 2378               	/* prologue: function */
 2379               	/* frame size = 0 */
 2380               	/* stack size = 1 */
 2381               	.L__stack_usage = 1
 614:quantum/rgblight.c **** 
 2382               		.loc 1 614 70 is_stmt 1 view .LVU537
 2383 0002 04E0      		ldi r16,lo8(4)
 2384 0004 20E0      		ldi r18,0
 2385 0006 0E94 0000 		call rgblight_sethsv_range
 2386               	.LVL161:
 2387               	/* epilogue start */
 614:quantum/rgblight.c **** 
 2388               		.loc 1 614 1 is_stmt 0 view .LVU538
 2389 000a 0F91      		pop r16
 2390 000c 0895      		ret
 2391               		.cfi_endproc
 2392               	.LFE153:
 2394               		.section	.text.rgblight_sethsv_slave,"ax",@progbits
 2395               	.global	rgblight_sethsv_slave
 2397               	rgblight_sethsv_slave:
 2398               	.LVL162:
 2399               	.LFB154:
 616:quantum/rgblight.c **** #endif  // ifndef RGBLIGHT_SPLIT
 2400               		.loc 1 616 67 is_stmt 1 view -0
 2401               		.cfi_startproc
 616:quantum/rgblight.c **** #endif  // ifndef RGBLIGHT_SPLIT
 2402               		.loc 1 616 67 is_stmt 0 view .LVU540
 2403 0000 0F93      		push r16
 2404               	.LCFI45:
 2405               		.cfi_def_cfa_offset 3
 2406               		.cfi_offset 16, -2
 2407               	/* prologue: function */
 2408               	/* frame size = 0 */
 2409               	/* stack size = 1 */
 2410               	.L__stack_usage = 1
 616:quantum/rgblight.c **** #endif  // ifndef RGBLIGHT_SPLIT
 2411               		.loc 1 616 69 is_stmt 1 view .LVU541
 2412 0002 08E0      		ldi r16,lo8(8)
 2413 0004 24E0      		ldi r18,lo8(4)
 2414 0006 0E94 0000 		call rgblight_sethsv_range
 2415               	.LVL163:
 2416               	/* epilogue start */
 616:quantum/rgblight.c **** #endif  // ifndef RGBLIGHT_SPLIT
 2417               		.loc 1 616 1 is_stmt 0 view .LVU542
 2418 000a 0F91      		pop r16
 2419 000c 0895      		ret
 2420               		.cfi_endproc
 2421               	.LFE154:
 2423               		.section	.text.rgblight_setrgb_master,"ax",@progbits
 2424               	.global	rgblight_setrgb_master
 2426               	rgblight_setrgb_master:
 2427               	.LVL164:
 2428               	.LFB151:
 610:quantum/rgblight.c **** 
 2429               		.loc 1 610 62 is_stmt 1 view -0
 2430               		.cfi_startproc
 610:quantum/rgblight.c **** 
 2431               		.loc 1 610 62 is_stmt 0 view .LVU544
 2432 0000 0F93      		push r16
 2433               	.LCFI46:
 2434               		.cfi_def_cfa_offset 3
 2435               		.cfi_offset 16, -2
 2436               	/* prologue: function */
 2437               	/* frame size = 0 */
 2438               	/* stack size = 1 */
 2439               	.L__stack_usage = 1
 610:quantum/rgblight.c **** 
 2440               		.loc 1 610 64 is_stmt 1 view .LVU545
 2441 0002 04E0      		ldi r16,lo8(4)
 2442 0004 20E0      		ldi r18,0
 2443 0006 0E94 0000 		call rgblight_setrgb_range
 2444               	.LVL165:
 2445               	/* epilogue start */
 610:quantum/rgblight.c **** 
 2446               		.loc 1 610 1 is_stmt 0 view .LVU546
 2447 000a 0F91      		pop r16
 2448 000c 0895      		ret
 2449               		.cfi_endproc
 2450               	.LFE151:
 2452               		.section	.text.rgblight_setrgb_slave,"ax",@progbits
 2453               	.global	rgblight_setrgb_slave
 2455               	rgblight_setrgb_slave:
 2456               	.LVL166:
 2457               	.LFB152:
 612:quantum/rgblight.c **** 
 2458               		.loc 1 612 61 is_stmt 1 view -0
 2459               		.cfi_startproc
 612:quantum/rgblight.c **** 
 2460               		.loc 1 612 61 is_stmt 0 view .LVU548
 2461 0000 0F93      		push r16
 2462               	.LCFI47:
 2463               		.cfi_def_cfa_offset 3
 2464               		.cfi_offset 16, -2
 2465               	/* prologue: function */
 2466               	/* frame size = 0 */
 2467               	/* stack size = 1 */
 2468               	.L__stack_usage = 1
 612:quantum/rgblight.c **** 
 2469               		.loc 1 612 63 is_stmt 1 view .LVU549
 2470 0002 08E0      		ldi r16,lo8(8)
 2471 0004 24E0      		ldi r18,lo8(4)
 2472 0006 0E94 0000 		call rgblight_setrgb_range
 2473               	.LVL167:
 2474               	/* epilogue start */
 612:quantum/rgblight.c **** 
 2475               		.loc 1 612 1 is_stmt 0 view .LVU550
 2476 000a 0F91      		pop r16
 2477 000c 0895      		ret
 2478               		.cfi_endproc
 2479               	.LFE152:
 2481               		.section	.text.rgblight_effect_rainbow_swirl,"ax",@progbits
 2482               	.global	rgblight_effect_rainbow_swirl
 2484               	rgblight_effect_rainbow_swirl:
 2485               	.LVL168:
 2486               	.LFB165:
 901:quantum/rgblight.c ****     uint8_t hue;
 2487               		.loc 1 901 62 is_stmt 1 view -0
 2488               		.cfi_startproc
 901:quantum/rgblight.c ****     uint8_t hue;
 2489               		.loc 1 901 62 is_stmt 0 view .LVU552
 2490 0000 EF92      		push r14
 2491               	.LCFI48:
 2492               		.cfi_def_cfa_offset 3
 2493               		.cfi_offset 14, -2
 2494 0002 FF92      		push r15
 2495               	.LCFI49:
 2496               		.cfi_def_cfa_offset 4
 2497               		.cfi_offset 15, -3
 2498 0004 1F93      		push r17
 2499               	.LCFI50:
 2500               		.cfi_def_cfa_offset 5
 2501               		.cfi_offset 17, -4
 2502 0006 CF93      		push r28
 2503               	.LCFI51:
 2504               		.cfi_def_cfa_offset 6
 2505               		.cfi_offset 28, -5
 2506 0008 DF93      		push r29
 2507               	.LCFI52:
 2508               		.cfi_def_cfa_offset 7
 2509               		.cfi_offset 29, -6
 2510               	/* prologue: function */
 2511               	/* frame size = 0 */
 2512               	/* stack size = 5 */
 2513               	.L__stack_usage = 5
 2514 000a EC01      		movw r28,r24
 902:quantum/rgblight.c ****     uint8_t i;
 2515               		.loc 1 902 5 is_stmt 1 view .LVU553
 903:quantum/rgblight.c **** 
 2516               		.loc 1 903 5 view .LVU554
 905:quantum/rgblight.c ****         hue = (RGBLIGHT_RAINBOW_SWIRL_RANGE / effect_num_leds * i + anim->current_hue);
 2517               		.loc 1 905 5 view .LVU555
 2518               	.LVL169:
 905:quantum/rgblight.c ****         hue = (RGBLIGHT_RAINBOW_SWIRL_RANGE / effect_num_leds * i + anim->current_hue);
 2519               		.loc 1 905 12 is_stmt 0 view .LVU556
 2520 000c 10E0      		ldi r17,0
 906:quantum/rgblight.c ****         sethsv(hue, rgblight_config.sat, rgblight_config.val, (LED_TYPE *)&led[i + effect_start_pos
 2521               		.loc 1 906 45 view .LVU557
 2522 000e EE24      		clr r14
 2523 0010 EA94      		dec r14
 2524 0012 F12C      		mov r15,__zero_reg__
 2525               	.LVL170:
 2526               	.L121:
 905:quantum/rgblight.c ****         hue = (RGBLIGHT_RAINBOW_SWIRL_RANGE / effect_num_leds * i + anim->current_hue);
 2527               		.loc 1 905 19 discriminator 1 view .LVU558
 2528 0014 3091 0000 		lds r19,effect_num_leds
 905:quantum/rgblight.c ****         hue = (RGBLIGHT_RAINBOW_SWIRL_RANGE / effect_num_leds * i + anim->current_hue);
 2529               		.loc 1 905 5 discriminator 1 view .LVU559
 2530 0018 1317      		cp r17,r19
 2531 001a 00F0      		brlo .L122
 909:quantum/rgblight.c **** 
 2532               		.loc 1 909 5 is_stmt 1 view .LVU560
 2533 001c 0E94 0000 		call rgblight_set
 2534               	.LVL171:
 911:quantum/rgblight.c ****         anim->current_hue++;
 2535               		.loc 1 911 5 view .LVU561
 911:quantum/rgblight.c ****         anim->current_hue++;
 2536               		.loc 1 911 9 is_stmt 0 view .LVU562
 2537 0020 9A81      		ldd r25,Y+2
 2538 0022 8C81      		ldd r24,Y+4
 911:quantum/rgblight.c ****         anim->current_hue++;
 2539               		.loc 1 911 8 view .LVU563
 2540 0024 90FF      		sbrs r25,0
 2541 0026 00C0      		rjmp .L123
 912:quantum/rgblight.c ****     } else {
 2542               		.loc 1 912 9 is_stmt 1 view .LVU564
 912:quantum/rgblight.c ****     } else {
 2543               		.loc 1 912 26 is_stmt 0 view .LVU565
 2544 0028 8F5F      		subi r24,lo8(-(1))
 2545               	.L125:
 914:quantum/rgblight.c ****     }
 2546               		.loc 1 914 26 view .LVU566
 2547 002a 8C83      		std Y+4,r24
 2548               	/* epilogue start */
 916:quantum/rgblight.c **** #endif
 2549               		.loc 1 916 1 view .LVU567
 2550 002c DF91      		pop r29
 2551 002e CF91      		pop r28
 2552               	.LVL172:
 916:quantum/rgblight.c **** #endif
 2553               		.loc 1 916 1 view .LVU568
 2554 0030 1F91      		pop r17
 2555               	.LVL173:
 916:quantum/rgblight.c **** #endif
 2556               		.loc 1 916 1 view .LVU569
 2557 0032 FF90      		pop r15
 2558 0034 EF90      		pop r14
 2559 0036 0895      		ret
 2560               	.LVL174:
 2561               	.L122:
 906:quantum/rgblight.c ****         sethsv(hue, rgblight_config.sat, rgblight_config.val, (LED_TYPE *)&led[i + effect_start_pos
 2562               		.loc 1 906 9 is_stmt 1 discriminator 3 view .LVU570
 907:quantum/rgblight.c ****     }
 2563               		.loc 1 907 9 discriminator 3 view .LVU571
 2564               	.LBB90:
 2565               	.LBI90:
 125:quantum/rgblight.c **** 
 2566               		.loc 1 125 6 discriminator 3 view .LVU572
 2567               	.LBB91:
 125:quantum/rgblight.c **** 
 2568               		.loc 1 125 70 discriminator 3 view .LVU573
 2569               	.LBE91:
 2570               	.LBE90:
 907:quantum/rgblight.c ****     }
 2571               		.loc 1 907 82 is_stmt 0 discriminator 3 view .LVU574
 2572 0038 8091 0000 		lds r24,effect_start_pos
 907:quantum/rgblight.c ****     }
 2573               		.loc 1 907 9 discriminator 3 view .LVU575
 2574 003c 810F      		add r24,r17
 2575 003e 9927      		clr r25
 2576 0040 991F      		rol r25
 2577 0042 63E0      		ldi r22,lo8(3)
 2578 0044 70E0      		ldi r23,0
 2579 0046 0E94 0000 		call __mulhi3
 2580 004a FC01      		movw r30,r24
 2581 004c E050      		subi r30,lo8(-(led))
 2582 004e F040      		sbci r31,hi8(-(led))
 906:quantum/rgblight.c ****         sethsv(hue, rgblight_config.sat, rgblight_config.val, (LED_TYPE *)&led[i + effect_start_pos
 2583               		.loc 1 906 45 discriminator 3 view .LVU576
 2584 0050 632F      		mov r22,r19
 2585 0052 70E0      		ldi r23,0
 2586 0054 C701      		movw r24,r14
 2587 0056 0E94 0000 		call __divmodhi4
 906:quantum/rgblight.c ****         sethsv(hue, rgblight_config.sat, rgblight_config.val, (LED_TYPE *)&led[i + effect_start_pos
 2588               		.loc 1 906 67 discriminator 3 view .LVU577
 2589 005a 812F      		mov r24,r17
 2590 005c 0E94 0000 		call __mulqi3
 906:quantum/rgblight.c ****         sethsv(hue, rgblight_config.sat, rgblight_config.val, (LED_TYPE *)&led[i + effect_start_pos
 2591               		.loc 1 906 13 discriminator 3 view .LVU578
 2592 0060 9C81      		ldd r25,Y+4
 2593               	.LBB93:
 2594               	.LBB92:
 125:quantum/rgblight.c **** 
 2595               		.loc 1 125 70 discriminator 3 view .LVU579
 2596 0062 9F01      		movw r18,r30
 2597 0064 4091 0000 		lds r20,rgblight_config+3
 2598 0068 6091 0000 		lds r22,rgblight_config+2
 2599 006c 890F      		add r24,r25
 2600 006e 0E94 0000 		call sethsv_raw
 2601               	.LVL175:
 125:quantum/rgblight.c **** 
 2602               		.loc 1 125 70 discriminator 3 view .LVU580
 2603               	.LBE92:
 2604               	.LBE93:
 905:quantum/rgblight.c ****         hue = (RGBLIGHT_RAINBOW_SWIRL_RANGE / effect_num_leds * i + anim->current_hue);
 2605               		.loc 1 905 39 discriminator 3 view .LVU581
 2606 0072 1F5F      		subi r17,lo8(-(1))
 2607               	.LVL176:
 905:quantum/rgblight.c ****         hue = (RGBLIGHT_RAINBOW_SWIRL_RANGE / effect_num_leds * i + anim->current_hue);
 2608               		.loc 1 905 39 discriminator 3 view .LVU582
 2609 0074 00C0      		rjmp .L121
 2610               	.L123:
 914:quantum/rgblight.c ****     }
 2611               		.loc 1 914 9 is_stmt 1 view .LVU583
 914:quantum/rgblight.c ****     }
 2612               		.loc 1 914 26 is_stmt 0 view .LVU584
 2613 0076 8150      		subi r24,lo8(-(-1))
 2614 0078 00C0      		rjmp .L125
 2615               		.cfi_endproc
 2616               	.LFE165:
 2618               		.section	.text.rgblight_effect_snake,"ax",@progbits
 2619               	.global	rgblight_effect_snake
 2621               	rgblight_effect_snake:
 2622               	.LVL177:
 2623               	.LFB166:
 922:quantum/rgblight.c ****     static uint8_t pos = 0;
 2624               		.loc 1 922 54 is_stmt 1 view -0
 2625               		.cfi_startproc
 922:quantum/rgblight.c ****     static uint8_t pos = 0;
 2626               		.loc 1 922 54 is_stmt 0 view .LVU586
 2627 0000 BF92      		push r11
 2628               	.LCFI53:
 2629               		.cfi_def_cfa_offset 3
 2630               		.cfi_offset 11, -2
 2631 0002 CF92      		push r12
 2632               	.LCFI54:
 2633               		.cfi_def_cfa_offset 4
 2634               		.cfi_offset 12, -3
 2635 0004 DF92      		push r13
 2636               	.LCFI55:
 2637               		.cfi_def_cfa_offset 5
 2638               		.cfi_offset 13, -4
 2639 0006 EF92      		push r14
 2640               	.LCFI56:
 2641               		.cfi_def_cfa_offset 6
 2642               		.cfi_offset 14, -5
 2643 0008 FF92      		push r15
 2644               	.LCFI57:
 2645               		.cfi_def_cfa_offset 7
 2646               		.cfi_offset 15, -6
 2647 000a 0F93      		push r16
 2648               	.LCFI58:
 2649               		.cfi_def_cfa_offset 8
 2650               		.cfi_offset 16, -7
 2651 000c 1F93      		push r17
 2652               	.LCFI59:
 2653               		.cfi_def_cfa_offset 9
 2654               		.cfi_offset 17, -8
 2655 000e CF93      		push r28
 2656               	.LCFI60:
 2657               		.cfi_def_cfa_offset 10
 2658               		.cfi_offset 28, -9
 2659 0010 DF93      		push r29
 2660               	.LCFI61:
 2661               		.cfi_def_cfa_offset 11
 2662               		.cfi_offset 29, -10
 2663               	/* prologue: function */
 2664               	/* frame size = 0 */
 2665               	/* stack size = 9 */
 2666               	.L__stack_usage = 9
 923:quantum/rgblight.c ****     uint8_t        i, j;
 2667               		.loc 1 923 5 is_stmt 1 view .LVU587
 924:quantum/rgblight.c ****     int8_t         k;
 2668               		.loc 1 924 5 view .LVU588
 925:quantum/rgblight.c ****     int8_t         increment = 1;
 2669               		.loc 1 925 5 view .LVU589
 926:quantum/rgblight.c **** 
 2670               		.loc 1 926 5 view .LVU590
 2671               	.LVL178:
 928:quantum/rgblight.c ****         increment = -1;
 2672               		.loc 1 928 5 view .LVU591
 928:quantum/rgblight.c ****         increment = -1;
 2673               		.loc 1 928 9 is_stmt 0 view .LVU592
 2674 0012 FC01      		movw r30,r24
 2675 0014 8281      		ldd r24,Z+2
 2676               	.LVL179:
 929:quantum/rgblight.c ****     }
 2677               		.loc 1 929 19 view .LVU593
 2678 0016 DFEF      		ldi r29,lo8(-1)
 928:quantum/rgblight.c ****         increment = -1;
 2679               		.loc 1 928 8 view .LVU594
 2680 0018 80FF      		sbrs r24,0
 926:quantum/rgblight.c **** 
 2681               		.loc 1 926 20 view .LVU595
 2682 001a D1E0      		ldi r29,lo8(1)
 2683               	.L127:
 2684               	.LVL180:
 943:quantum/rgblight.c ****         LED_TYPE *ledp = led + i + effect_start_pos;
 2685               		.loc 1 943 5 is_stmt 1 view .LVU596
 943:quantum/rgblight.c ****         LED_TYPE *ledp = led + i + effect_start_pos;
 2686               		.loc 1 943 12 is_stmt 0 view .LVU597
 2687 001c C0E0      		ldi r28,0
 2688               	.LVL181:
 2689               	.L128:
 943:quantum/rgblight.c ****         LED_TYPE *ledp = led + i + effect_start_pos;
 2690               		.loc 1 943 5 discriminator 1 view .LVU598
 2691 001e 8091 0000 		lds r24,effect_num_leds
 2692 0022 C817      		cp r28,r24
 2693 0024 00F0      		brlo .L133
 964:quantum/rgblight.c ****     if (increment == 1) {
 2694               		.loc 1 964 5 is_stmt 1 view .LVU599
 2695 0026 0E94 0000 		call rgblight_set
 2696               	.LVL182:
 965:quantum/rgblight.c ****         if (pos - 1 < 0) {
 2697               		.loc 1 965 5 view .LVU600
 2698 002a 8091 0000 		lds r24,pos.3212
 965:quantum/rgblight.c ****         if (pos - 1 < 0) {
 2699               		.loc 1 965 8 is_stmt 0 view .LVU601
 2700 002e D130      		cpi r29,lo8(1)
 2701 0030 01F0      		breq .+2
 2702 0032 00C0      		rjmp .L134
 966:quantum/rgblight.c ****             pos = effect_num_leds - 1;
 2703               		.loc 1 966 9 is_stmt 1 view .LVU602
 966:quantum/rgblight.c ****             pos = effect_num_leds - 1;
 2704               		.loc 1 966 12 is_stmt 0 view .LVU603
 2705 0034 8111      		cpse r24,__zero_reg__
 2706 0036 00C0      		rjmp .L135
 967:quantum/rgblight.c **** #    if defined(RGBLIGHT_SPLIT) && !defined(RGBLIGHT_SPLIT_NO_ANIMATION_SYNC)
 2707               		.loc 1 967 13 is_stmt 1 view .LVU604
 967:quantum/rgblight.c **** #    if defined(RGBLIGHT_SPLIT) && !defined(RGBLIGHT_SPLIT_NO_ANIMATION_SYNC)
 2708               		.loc 1 967 35 is_stmt 0 view .LVU605
 2709 0038 8091 0000 		lds r24,effect_num_leds
 2710               	.L135:
 972:quantum/rgblight.c **** #    if defined(RGBLIGHT_SPLIT) && !defined(RGBLIGHT_SPLIT_NO_ANIMATION_SYNC)
 2711               		.loc 1 972 13 is_stmt 1 view .LVU606
 972:quantum/rgblight.c **** #    if defined(RGBLIGHT_SPLIT) && !defined(RGBLIGHT_SPLIT_NO_ANIMATION_SYNC)
 2712               		.loc 1 972 17 is_stmt 0 view .LVU607
 2713 003c 8150      		subi r24,lo8(-(-1))
 2714               	.L139:
 978:quantum/rgblight.c **** #    if defined(RGBLIGHT_SPLIT) && !defined(RGBLIGHT_SPLIT_NO_ANIMATION_SYNC)
 2715               		.loc 1 978 13 view .LVU608
 2716 003e 8093 0000 		sts pos.3212,r24
 2717               	/* epilogue start */
 983:quantum/rgblight.c **** #endif
 2718               		.loc 1 983 1 view .LVU609
 2719 0042 DF91      		pop r29
 2720               	.LVL183:
 983:quantum/rgblight.c **** #endif
 2721               		.loc 1 983 1 view .LVU610
 2722 0044 CF91      		pop r28
 2723               	.LVL184:
 983:quantum/rgblight.c **** #endif
 2724               		.loc 1 983 1 view .LVU611
 2725 0046 1F91      		pop r17
 2726 0048 0F91      		pop r16
 2727 004a FF90      		pop r15
 2728 004c EF90      		pop r14
 2729 004e DF90      		pop r13
 2730 0050 CF90      		pop r12
 2731 0052 BF90      		pop r11
 2732 0054 0895      		ret
 2733               	.LVL185:
 2734               	.L133:
 2735               	.LBB97:
 944:quantum/rgblight.c ****         ledp->r        = 0;
 2736               		.loc 1 944 9 is_stmt 1 view .LVU612
 944:quantum/rgblight.c ****         ledp->r        = 0;
 2737               		.loc 1 944 34 is_stmt 0 view .LVU613
 2738 0056 8091 0000 		lds r24,effect_start_pos
 2739 005a CC2E      		mov r12,r28
 2740 005c D12C      		mov r13,__zero_reg__
 2741 005e 8C0D      		add r24,r12
 2742 0060 9D2D      		mov r25,r13
 2743 0062 911D      		adc r25,__zero_reg__
 2744 0064 63E0      		ldi r22,lo8(3)
 2745 0066 70E0      		ldi r23,0
 2746 0068 0E94 0000 		call __mulhi3
 944:quantum/rgblight.c ****         ledp->r        = 0;
 2747               		.loc 1 944 19 view .LVU614
 2748 006c 8050      		subi r24,lo8(-(led))
 2749 006e 9040      		sbci r25,hi8(-(led))
 2750 0070 7C01      		movw r14,r24
 2751               	.LVL186:
 945:quantum/rgblight.c ****         ledp->g        = 0;
 2752               		.loc 1 945 9 is_stmt 1 view .LVU615
 945:quantum/rgblight.c ****         ledp->g        = 0;
 2753               		.loc 1 945 24 is_stmt 0 view .LVU616
 2754 0072 FC01      		movw r30,r24
 2755 0074 1182      		std Z+1,__zero_reg__
 946:quantum/rgblight.c ****         ledp->b        = 0;
 2756               		.loc 1 946 9 is_stmt 1 view .LVU617
 946:quantum/rgblight.c ****         ledp->b        = 0;
 2757               		.loc 1 946 24 is_stmt 0 view .LVU618
 2758 0076 1082      		st Z,__zero_reg__
 947:quantum/rgblight.c **** #    ifdef RGBW
 2759               		.loc 1 947 9 is_stmt 1 view .LVU619
 947:quantum/rgblight.c **** #    ifdef RGBW
 2760               		.loc 1 947 24 is_stmt 0 view .LVU620
 2761 0078 1282      		std Z+2,__zero_reg__
 951:quantum/rgblight.c ****             k = pos + j * increment;
 2762               		.loc 1 951 9 is_stmt 1 view .LVU621
 2763               	.LVL187:
 947:quantum/rgblight.c **** #    ifdef RGBW
 2764               		.loc 1 947 24 is_stmt 0 view .LVU622
 2765 007a 04E0      		ldi r16,lo8(4)
 2766 007c 10E0      		ldi r17,0
 2767 007e B12C      		mov r11,__zero_reg__
 2768               	.LVL188:
 2769               	.L132:
 952:quantum/rgblight.c ****             if (k > RGBLED_NUM) {
 2770               		.loc 1 952 13 is_stmt 1 view .LVU623
 952:quantum/rgblight.c ****             if (k > RGBLED_NUM) {
 2771               		.loc 1 952 21 is_stmt 0 view .LVU624
 2772 0080 8091 0000 		lds r24,pos.3212
 2773 0084 8B0D      		add r24,r11
 2774               	.LVL189:
 953:quantum/rgblight.c ****                 k = k % RGBLED_NUM;
 2775               		.loc 1 953 13 is_stmt 1 view .LVU625
 953:quantum/rgblight.c ****                 k = k % RGBLED_NUM;
 2776               		.loc 1 953 16 is_stmt 0 view .LVU626
 2777 0086 8930      		cpi r24,lo8(9)
 2778 0088 04F0      		brlt .L129
 954:quantum/rgblight.c ****             }
 2779               		.loc 1 954 17 is_stmt 1 view .LVU627
 954:quantum/rgblight.c ****             }
 2780               		.loc 1 954 19 is_stmt 0 view .LVU628
 2781 008a 8770      		andi r24,lo8(7)
 2782               	.LVL190:
 956:quantum/rgblight.c ****                 k = k + effect_num_leds;
 2783               		.loc 1 956 13 is_stmt 1 view .LVU629
 2784               	.L130:
 959:quantum/rgblight.c ****                 sethsv(rgblight_config.hue, rgblight_config.sat, (uint8_t)(rgblight_config.val * (R
 2785               		.loc 1 959 13 view .LVU630
 959:quantum/rgblight.c ****                 sethsv(rgblight_config.hue, rgblight_config.sat, (uint8_t)(rgblight_config.val * (R
 2786               		.loc 1 959 19 is_stmt 0 view .LVU631
 2787 008c 082E      		mov __tmp_reg__,r24
 2788 008e 000C      		lsl r0
 2789 0090 990B      		sbc r25,r25
 959:quantum/rgblight.c ****                 sethsv(rgblight_config.hue, rgblight_config.sat, (uint8_t)(rgblight_config.val * (R
 2790               		.loc 1 959 16 view .LVU632
 2791 0092 C816      		cp r12,r24
 2792 0094 D906      		cpc r13,r25
 2793 0096 01F4      		brne .L131
 960:quantum/rgblight.c ****             }
 2794               		.loc 1 960 17 is_stmt 1 view .LVU633
 2795               	.LVL191:
 2796               	.LBB98:
 2797               	.LBI98:
 125:quantum/rgblight.c **** 
 2798               		.loc 1 125 6 view .LVU634
 2799               	.LBB99:
 125:quantum/rgblight.c **** 
 2800               		.loc 1 125 70 view .LVU635
 2801               	.LBE99:
 2802               	.LBE98:
 960:quantum/rgblight.c ****             }
 2803               		.loc 1 960 91 is_stmt 0 view .LVU636
 2804 0098 8091 0000 		lds r24,rgblight_config+3
 2805               	.LVL192:
 960:quantum/rgblight.c ****             }
 2806               		.loc 1 960 96 view .LVU637
 2807 009c 90E0      		ldi r25,0
 2808 009e B801      		movw r22,r16
 2809 00a0 0E94 0000 		call __mulhi3
 960:quantum/rgblight.c ****             }
 2810               		.loc 1 960 133 view .LVU638
 2811 00a4 9595      		asr r25
 2812 00a6 8795      		ror r24
 2813 00a8 9595      		asr r25
 2814 00aa 8795      		ror r24
 2815               	.LBB101:
 2816               	.LBB100:
 125:quantum/rgblight.c **** 
 2817               		.loc 1 125 70 view .LVU639
 2818 00ac 9701      		movw r18,r14
 2819 00ae 482F      		mov r20,r24
 2820 00b0 6091 0000 		lds r22,rgblight_config+2
 2821 00b4 8091 0000 		lds r24,rgblight_config+1
 2822 00b8 0E94 0000 		call sethsv_raw
 2823               	.LVL193:
 2824               	.L131:
 125:quantum/rgblight.c **** 
