   1               		.file	"keymap.c"
   2               	__SP_H__ = 0x3e
   3               	__SP_L__ = 0x3d
   4               	__SREG__ = 0x3f
   5               	__tmp_reg__ = 0
   6               	__zero_reg__ = 1
   7               		.text
   8               	.Ltext0:
   9               		.cfi_sections	.debug_frame
  10               		.section	.text.td01_reset,"ax",@progbits
  11               	.global	td01_reset
  13               	td01_reset:
  14               	.LVL0:
  15               	.LFB121:
  16               		.file 1 "keyboards/crkbd/keymaps/th3v3gas/keymap.c"
   1:keyboards/crkbd/keymaps/th3v3gas/keymap.c **** #include QMK_KEYBOARD_H
   2:keyboards/crkbd/keymaps/th3v3gas/keymap.c **** 
   3:keyboards/crkbd/keymaps/th3v3gas/keymap.c **** extern uint8_t is_master;
   4:keyboards/crkbd/keymaps/th3v3gas/keymap.c **** 
   5:keyboards/crkbd/keymaps/th3v3gas/keymap.c **** /*
   6:keyboards/crkbd/keymaps/th3v3gas/keymap.c **** //unicode WinCompose
   7:keyboards/crkbd/keymaps/th3v3gas/keymap.c **** //<https://github.com/samhocevar/wincompose>
   8:keyboards/crkbd/keymaps/th3v3gas/keymap.c **** //rules.mk (UNICODE_ENABLE = yes)                 |default compose key is [KC_RALT]|
   9:keyboards/crkbd/keymaps/th3v3gas/keymap.c **** //config.h (#define UNICODE_KEY_WINC KC_RALT) <-- |edit config.h to match.         |
  10:keyboards/crkbd/keymaps/th3v3gas/keymap.c **** void matrix_init_user(void) {
  11:keyboards/crkbd/keymaps/th3v3gas/keymap.c ****     set_unicode_input_mode(UC_WINC);
  12:keyboards/crkbd/keymaps/th3v3gas/keymap.c **** };
  13:keyboards/crkbd/keymaps/th3v3gas/keymap.c **** */
  14:keyboards/crkbd/keymaps/th3v3gas/keymap.c **** 
  15:keyboards/crkbd/keymaps/th3v3gas/keymap.c **** enum layers_keymap {
  16:keyboards/crkbd/keymaps/th3v3gas/keymap.c ****   _QWERTY = 0,
  17:keyboards/crkbd/keymaps/th3v3gas/keymap.c ****   _GAME,
  18:keyboards/crkbd/keymaps/th3v3gas/keymap.c ****   _EDIT,
  19:keyboards/crkbd/keymaps/th3v3gas/keymap.c ****   _THUMB,
  20:keyboards/crkbd/keymaps/th3v3gas/keymap.c ****   _FUNCTION,
  21:keyboards/crkbd/keymaps/th3v3gas/keymap.c ****   _GAME_FUNCTION,
  22:keyboards/crkbd/keymaps/th3v3gas/keymap.c ****   _CHAT,
  23:keyboards/crkbd/keymaps/th3v3gas/keymap.c ****   _BLNDS
  24:keyboards/crkbd/keymaps/th3v3gas/keymap.c **** };
  25:keyboards/crkbd/keymaps/th3v3gas/keymap.c **** 
  26:keyboards/crkbd/keymaps/th3v3gas/keymap.c **** #define _QW _QWERTY
  27:keyboards/crkbd/keymaps/th3v3gas/keymap.c **** #define _GM _GAME
  28:keyboards/crkbd/keymaps/th3v3gas/keymap.c **** #define _EDT _EDIT
  29:keyboards/crkbd/keymaps/th3v3gas/keymap.c **** #define _TH _THUMB
  30:keyboards/crkbd/keymaps/th3v3gas/keymap.c **** #define _FN _FUNCTION
  31:keyboards/crkbd/keymaps/th3v3gas/keymap.c **** #define _GFN _GAME_FUNCTION
  32:keyboards/crkbd/keymaps/th3v3gas/keymap.c **** #define _CH _CHAT
  33:keyboards/crkbd/keymaps/th3v3gas/keymap.c **** 
  34:keyboards/crkbd/keymaps/th3v3gas/keymap.c **** enum custom_keycodes {
  35:keyboards/crkbd/keymaps/th3v3gas/keymap.c ****   TD_F1F11, //double tap
  36:keyboards/crkbd/keymaps/th3v3gas/keymap.c ****   TD_F2F12,
  37:keyboards/crkbd/keymaps/th3v3gas/keymap.c ****   TD_CAPS,
  38:keyboards/crkbd/keymaps/th3v3gas/keymap.c ****   TD_QGWOX,
  39:keyboards/crkbd/keymaps/th3v3gas/keymap.c ****   TD_FNWIN,
  40:keyboards/crkbd/keymaps/th3v3gas/keymap.c ****   TD_CHENT,
  41:keyboards/crkbd/keymaps/th3v3gas/keymap.c ****   TD_RPRN,
  42:keyboards/crkbd/keymaps/th3v3gas/keymap.c ****   M_CHESC = SAFE_RANGE, //macro
  43:keyboards/crkbd/keymaps/th3v3gas/keymap.c ****   M_GCHAL,
  44:keyboards/crkbd/keymaps/th3v3gas/keymap.c ****   M_GCHTM,
  45:keyboards/crkbd/keymaps/th3v3gas/keymap.c ****   M_GCHAT,
  46:keyboards/crkbd/keymaps/th3v3gas/keymap.c ****   M_DSCRD,
  47:keyboards/crkbd/keymaps/th3v3gas/keymap.c ****   M_DSCEXT,
  48:keyboards/crkbd/keymaps/th3v3gas/keymap.c ****   M_EFIND,
  49:keyboards/crkbd/keymaps/th3v3gas/keymap.c ****   M_BLRUN,
  50:keyboards/crkbd/keymaps/th3v3gas/keymap.c ****   M_BLSLD,
  51:keyboards/crkbd/keymaps/th3v3gas/keymap.c ****   M_BLADS,
  52:keyboards/crkbd/keymaps/th3v3gas/keymap.c **** };
  53:keyboards/crkbd/keymaps/th3v3gas/keymap.c **** 
  54:keyboards/crkbd/keymaps/th3v3gas/keymap.c **** //tap dance
  55:keyboards/crkbd/keymaps/th3v3gas/keymap.c **** //rules.mk (TAP_DANCE_ENABLE = yes)
  56:keyboards/crkbd/keymaps/th3v3gas/keymap.c **** //config.h (#define TAPPING_TERM 150) double tap window 150-200
  57:keyboards/crkbd/keymaps/th3v3gas/keymap.c **** typedef enum {
  58:keyboards/crkbd/keymaps/th3v3gas/keymap.c ****   SINGLE_TAP,
  59:keyboards/crkbd/keymaps/th3v3gas/keymap.c ****   SINGLE_HOLD,
  60:keyboards/crkbd/keymaps/th3v3gas/keymap.c ****   DOUBLE_SINGLE_TAP
  61:keyboards/crkbd/keymaps/th3v3gas/keymap.c **** } td_state_t;
  62:keyboards/crkbd/keymaps/th3v3gas/keymap.c **** static td_state_t td_state;
  63:keyboards/crkbd/keymaps/th3v3gas/keymap.c **** int cur_dance (qk_tap_dance_state_t *state);
  64:keyboards/crkbd/keymaps/th3v3gas/keymap.c **** void td01_finished (qk_tap_dance_state_t *state, void *user_data); //(ref:TD_QGWOX)
  65:keyboards/crkbd/keymaps/th3v3gas/keymap.c **** void td01_reset (qk_tap_dance_state_t *state, void *user_data);
  66:keyboards/crkbd/keymaps/th3v3gas/keymap.c **** void td03_finished (qk_tap_dance_state_t *state, void *user_data); //(ref:TD_FNWIN)
  67:keyboards/crkbd/keymaps/th3v3gas/keymap.c **** void td03_reset (qk_tap_dance_state_t *state, void *user_data);
  68:keyboards/crkbd/keymaps/th3v3gas/keymap.c **** void td05_finished (qk_tap_dance_state_t *state, void *user_data); //(ref:TD_CHENT)
  69:keyboards/crkbd/keymaps/th3v3gas/keymap.c **** void td05_reset (qk_tap_dance_state_t *state, void *user_data);
  70:keyboards/crkbd/keymaps/th3v3gas/keymap.c **** void td02_finished (qk_tap_dance_state_t *state, void *user_data); //(ref:TD_RPRN)
  71:keyboards/crkbd/keymaps/th3v3gas/keymap.c **** void td02_reset (qk_tap_dance_state_t *state, void *user_data);
  72:keyboards/crkbd/keymaps/th3v3gas/keymap.c **** int cur_dance (qk_tap_dance_state_t *state) {
  73:keyboards/crkbd/keymaps/th3v3gas/keymap.c ****   if (state->count == 1) {
  74:keyboards/crkbd/keymaps/th3v3gas/keymap.c ****     if (state->interrupted || !state->pressed) { return SINGLE_TAP; }
  75:keyboards/crkbd/keymaps/th3v3gas/keymap.c ****       else { return SINGLE_HOLD; }
  76:keyboards/crkbd/keymaps/th3v3gas/keymap.c ****   }
  77:keyboards/crkbd/keymaps/th3v3gas/keymap.c ****   if (state->count == 2) { return DOUBLE_SINGLE_TAP; }
  78:keyboards/crkbd/keymaps/th3v3gas/keymap.c ****   else { return 3; }
  79:keyboards/crkbd/keymaps/th3v3gas/keymap.c **** }
  80:keyboards/crkbd/keymaps/th3v3gas/keymap.c **** //TD _QWERTY; _GAME; wox (ref:TD_QGWOX)
  81:keyboards/crkbd/keymaps/th3v3gas/keymap.c **** void td01_finished (qk_tap_dance_state_t *state, void *user_date) {
  82:keyboards/crkbd/keymaps/th3v3gas/keymap.c ****   td_state = cur_dance(state);
  83:keyboards/crkbd/keymaps/th3v3gas/keymap.c ****   switch (td_state) {
  84:keyboards/crkbd/keymaps/th3v3gas/keymap.c ****     case SINGLE_TAP: //_QWERTY
  85:keyboards/crkbd/keymaps/th3v3gas/keymap.c ****       layer_clear();
  86:keyboards/crkbd/keymaps/th3v3gas/keymap.c ****       break;
  87:keyboards/crkbd/keymaps/th3v3gas/keymap.c ****     case SINGLE_HOLD: //_GAME
  88:keyboards/crkbd/keymaps/th3v3gas/keymap.c ****       layer_move(_GM);
  89:keyboards/crkbd/keymaps/th3v3gas/keymap.c ****       break;
  90:keyboards/crkbd/keymaps/th3v3gas/keymap.c ****     case DOUBLE_SINGLE_TAP: //wox
  91:keyboards/crkbd/keymaps/th3v3gas/keymap.c ****       layer_move(_QW);
  92:keyboards/crkbd/keymaps/th3v3gas/keymap.c ****       register_code16(KC_LALT);
  93:keyboards/crkbd/keymaps/th3v3gas/keymap.c ****       register_code16(KC_LCTL);
  94:keyboards/crkbd/keymaps/th3v3gas/keymap.c ****       register_code16(KC_MINS);
  95:keyboards/crkbd/keymaps/th3v3gas/keymap.c ****       layer_clear();
  96:keyboards/crkbd/keymaps/th3v3gas/keymap.c ****       layer_move(_QW);
  97:keyboards/crkbd/keymaps/th3v3gas/keymap.c ****       unregister_code16(KC_LALT);
  98:keyboards/crkbd/keymaps/th3v3gas/keymap.c ****       unregister_code16(KC_LCTL);
  99:keyboards/crkbd/keymaps/th3v3gas/keymap.c ****       unregister_code16(KC_MINS);
 100:keyboards/crkbd/keymaps/th3v3gas/keymap.c ****   }
 101:keyboards/crkbd/keymaps/th3v3gas/keymap.c **** }
 102:keyboards/crkbd/keymaps/th3v3gas/keymap.c **** void td01_reset (qk_tap_dance_state_t *state, void *user_data) {
  17               		.loc 1 102 64 view -0
  18               		.cfi_startproc
  19               	/* prologue: function */
  20               	/* frame size = 0 */
  21               	/* stack size = 0 */
  22               	.L__stack_usage = 0
 103:keyboards/crkbd/keymaps/th3v3gas/keymap.c ****   switch (td_state) {
  23               		.loc 1 103 3 view .LVU1
  24 0000 8091 0000 		lds r24,td_state
  25               	.LVL1:
  26               		.loc 1 103 3 is_stmt 0 view .LVU2
  27 0004 8111      		cpse r24,__zero_reg__
  28 0006 00C0      		rjmp .L1
 104:keyboards/crkbd/keymaps/th3v3gas/keymap.c ****     case SINGLE_TAP:
 105:keyboards/crkbd/keymaps/th3v3gas/keymap.c ****       layer_move(_QW);
  29               		.loc 1 105 7 is_stmt 1 view .LVU3
  30 0008 0C94 0000 		jmp layer_move
  31               	.LVL2:
  32               	.L1:
  33               	/* epilogue start */
 106:keyboards/crkbd/keymaps/th3v3gas/keymap.c ****       break;
 107:keyboards/crkbd/keymaps/th3v3gas/keymap.c ****     case SINGLE_HOLD:
 108:keyboards/crkbd/keymaps/th3v3gas/keymap.c ****       NULL;
 109:keyboards/crkbd/keymaps/th3v3gas/keymap.c ****       break;
 110:keyboards/crkbd/keymaps/th3v3gas/keymap.c ****     case DOUBLE_SINGLE_TAP:
 111:keyboards/crkbd/keymaps/th3v3gas/keymap.c ****       NULL;
 112:keyboards/crkbd/keymaps/th3v3gas/keymap.c ****   }
 113:keyboards/crkbd/keymaps/th3v3gas/keymap.c **** }
  34               		.loc 1 113 1 is_stmt 0 view .LVU4
  35 000c 0895      		ret
  36               		.cfi_endproc
  37               	.LFE121:
  39               		.section	.text.td05_reset,"ax",@progbits
  40               	.global	td05_reset
  42               	td05_reset:
  43               	.LVL3:
  44               	.LFB125:
 114:keyboards/crkbd/keymaps/th3v3gas/keymap.c **** //TD quote; _FN; win (ref:TD_FNWIN)
 115:keyboards/crkbd/keymaps/th3v3gas/keymap.c **** void td03_finished (qk_tap_dance_state_t *state, void *user_date) {
 116:keyboards/crkbd/keymaps/th3v3gas/keymap.c ****   td_state = cur_dance(state);
 117:keyboards/crkbd/keymaps/th3v3gas/keymap.c ****   switch (td_state) {
 118:keyboards/crkbd/keymaps/th3v3gas/keymap.c ****     case SINGLE_TAP: //quote
 119:keyboards/crkbd/keymaps/th3v3gas/keymap.c ****       register_code16(KC_QUOT);
 120:keyboards/crkbd/keymaps/th3v3gas/keymap.c ****       break;
 121:keyboards/crkbd/keymaps/th3v3gas/keymap.c ****     case SINGLE_HOLD: //momentary _FM
 122:keyboards/crkbd/keymaps/th3v3gas/keymap.c ****       layer_on(_FN);
 123:keyboards/crkbd/keymaps/th3v3gas/keymap.c ****       break;
 124:keyboards/crkbd/keymaps/th3v3gas/keymap.c ****     case DOUBLE_SINGLE_TAP: //win
 125:keyboards/crkbd/keymaps/th3v3gas/keymap.c ****       layer_clear();
 126:keyboards/crkbd/keymaps/th3v3gas/keymap.c ****       layer_move(_QW);
 127:keyboards/crkbd/keymaps/th3v3gas/keymap.c ****       register_code16(KC_LGUI);
 128:keyboards/crkbd/keymaps/th3v3gas/keymap.c ****   }
 129:keyboards/crkbd/keymaps/th3v3gas/keymap.c **** }
 130:keyboards/crkbd/keymaps/th3v3gas/keymap.c **** void td03_reset (qk_tap_dance_state_t *state, void *user_data) {
 131:keyboards/crkbd/keymaps/th3v3gas/keymap.c ****   switch (td_state) {
 132:keyboards/crkbd/keymaps/th3v3gas/keymap.c ****     case SINGLE_TAP:
 133:keyboards/crkbd/keymaps/th3v3gas/keymap.c ****       unregister_code16(KC_QUOT);
 134:keyboards/crkbd/keymaps/th3v3gas/keymap.c ****       break;
 135:keyboards/crkbd/keymaps/th3v3gas/keymap.c ****     case SINGLE_HOLD:
 136:keyboards/crkbd/keymaps/th3v3gas/keymap.c ****       layer_off(_FN);
 137:keyboards/crkbd/keymaps/th3v3gas/keymap.c ****       break;
 138:keyboards/crkbd/keymaps/th3v3gas/keymap.c ****     case DOUBLE_SINGLE_TAP:
 139:keyboards/crkbd/keymaps/th3v3gas/keymap.c ****       unregister_code16(KC_LGUI);
 140:keyboards/crkbd/keymaps/th3v3gas/keymap.c ****   }
 141:keyboards/crkbd/keymaps/th3v3gas/keymap.c **** }
 142:keyboards/crkbd/keymaps/th3v3gas/keymap.c **** //TD _GAME enter; enter; _CHAT (ref:TD_CHENT)
 143:keyboards/crkbd/keymaps/th3v3gas/keymap.c **** void td05_finished (qk_tap_dance_state_t *state, void *user_date) {
 144:keyboards/crkbd/keymaps/th3v3gas/keymap.c ****   td_state = cur_dance(state);
 145:keyboards/crkbd/keymaps/th3v3gas/keymap.c ****   switch (td_state) {
 146:keyboards/crkbd/keymaps/th3v3gas/keymap.c ****     case SINGLE_TAP: //_GAME enter
 147:keyboards/crkbd/keymaps/th3v3gas/keymap.c ****       layer_move(_GM);
 148:keyboards/crkbd/keymaps/th3v3gas/keymap.c ****       register_code16(KC_ENT);
 149:keyboards/crkbd/keymaps/th3v3gas/keymap.c ****       break;
 150:keyboards/crkbd/keymaps/th3v3gas/keymap.c ****     case SINGLE_HOLD: //enter
 151:keyboards/crkbd/keymaps/th3v3gas/keymap.c ****       register_code16(KC_ENT);
 152:keyboards/crkbd/keymaps/th3v3gas/keymap.c ****       unregister_code16(KC_ENT);
 153:keyboards/crkbd/keymaps/th3v3gas/keymap.c ****       break;
 154:keyboards/crkbd/keymaps/th3v3gas/keymap.c ****     case DOUBLE_SINGLE_TAP:
 155:keyboards/crkbd/keymaps/th3v3gas/keymap.c ****       NULL;
 156:keyboards/crkbd/keymaps/th3v3gas/keymap.c ****   }
 157:keyboards/crkbd/keymaps/th3v3gas/keymap.c **** }
 158:keyboards/crkbd/keymaps/th3v3gas/keymap.c **** void td05_reset (qk_tap_dance_state_t *state, void *user_data) {
  45               		.loc 1 158 64 is_stmt 1 view -0
  46               		.cfi_startproc
  47               	/* prologue: function */
  48               	/* frame size = 0 */
  49               	/* stack size = 0 */
  50               	.L__stack_usage = 0
 159:keyboards/crkbd/keymaps/th3v3gas/keymap.c ****   switch (td_state) {
  51               		.loc 1 159 3 view .LVU6
  52 0000 8091 0000 		lds r24,td_state
  53               	.LVL4:
  54               		.loc 1 159 3 is_stmt 0 view .LVU7
  55 0004 8111      		cpse r24,__zero_reg__
  56 0006 00C0      		rjmp .L3
 160:keyboards/crkbd/keymaps/th3v3gas/keymap.c ****     case SINGLE_TAP:
 161:keyboards/crkbd/keymaps/th3v3gas/keymap.c ****       unregister_code16(KC_ENT);
  57               		.loc 1 161 7 is_stmt 1 view .LVU8
  58 0008 88E2      		ldi r24,lo8(40)
  59 000a 90E0      		ldi r25,0
  60 000c 0C94 0000 		jmp unregister_code16
  61               	.LVL5:
  62               	.L3:
  63               	/* epilogue start */
 162:keyboards/crkbd/keymaps/th3v3gas/keymap.c ****       break;
 163:keyboards/crkbd/keymaps/th3v3gas/keymap.c ****     case SINGLE_HOLD:
 164:keyboards/crkbd/keymaps/th3v3gas/keymap.c ****       NULL;
 165:keyboards/crkbd/keymaps/th3v3gas/keymap.c ****       break;
 166:keyboards/crkbd/keymaps/th3v3gas/keymap.c ****     case DOUBLE_SINGLE_TAP:
 167:keyboards/crkbd/keymaps/th3v3gas/keymap.c ****       NULL;
 168:keyboards/crkbd/keymaps/th3v3gas/keymap.c ****   }
 169:keyboards/crkbd/keymaps/th3v3gas/keymap.c **** }
  64               		.loc 1 169 1 is_stmt 0 view .LVU9
  65 0010 0895      		ret
  66               		.cfi_endproc
  67               	.LFE125:
  69               		.section	.text.td02_reset,"ax",@progbits
  70               	.global	td02_reset
  72               	td02_reset:
  73               	.LVL6:
  74               	.LFB127:
 170:keyboards/crkbd/keymaps/th3v3gas/keymap.c **** //plus; _EDIT (ref:TD_RPRN)
 171:keyboards/crkbd/keymaps/th3v3gas/keymap.c **** void td02_finished (qk_tap_dance_state_t *state, void *user_date) {
 172:keyboards/crkbd/keymaps/th3v3gas/keymap.c ****   td_state = cur_dance(state);
 173:keyboards/crkbd/keymaps/th3v3gas/keymap.c ****   switch (td_state) {
 174:keyboards/crkbd/keymaps/th3v3gas/keymap.c ****     case SINGLE_TAP: //plus
 175:keyboards/crkbd/keymaps/th3v3gas/keymap.c ****       register_code16(KC_RBRC);
 176:keyboards/crkbd/keymaps/th3v3gas/keymap.c ****       break;
 177:keyboards/crkbd/keymaps/th3v3gas/keymap.c ****     case SINGLE_HOLD:
 178:keyboards/crkbd/keymaps/th3v3gas/keymap.c ****       register_code16(KC_RBRC);
 179:keyboards/crkbd/keymaps/th3v3gas/keymap.c ****       break;
 180:keyboards/crkbd/keymaps/th3v3gas/keymap.c ****     case DOUBLE_SINGLE_TAP:
 181:keyboards/crkbd/keymaps/th3v3gas/keymap.c ****       NULL;
 182:keyboards/crkbd/keymaps/th3v3gas/keymap.c ****   }
 183:keyboards/crkbd/keymaps/th3v3gas/keymap.c **** }
 184:keyboards/crkbd/keymaps/th3v3gas/keymap.c **** void td02_reset (qk_tap_dance_state_t *state, void *user_data) {
  75               		.loc 1 184 64 is_stmt 1 view -0
  76               		.cfi_startproc
  77               	/* prologue: function */
  78               	/* frame size = 0 */
  79               	/* stack size = 0 */
  80               	.L__stack_usage = 0
 185:keyboards/crkbd/keymaps/th3v3gas/keymap.c ****   switch (td_state) {
  81               		.loc 1 185 3 view .LVU11
  82 0000 8091 0000 		lds r24,td_state
  83               	.LVL7:
  84               		.loc 1 185 3 is_stmt 0 view .LVU12
  85 0004 8230      		cpi r24,lo8(2)
  86 0006 00F0      		brlo .L6
  87 0008 8230      		cpi r24,lo8(2)
  88 000a 01F0      		breq .L7
  89 000c 0895      		ret
  90               	.L6:
 186:keyboards/crkbd/keymaps/th3v3gas/keymap.c ****     case SINGLE_TAP:
 187:keyboards/crkbd/keymaps/th3v3gas/keymap.c ****       unregister_code16(KC_RBRC);
  91               		.loc 1 187 7 is_stmt 1 view .LVU13
  92 000e 80E3      		ldi r24,lo8(48)
  93 0010 90E0      		ldi r25,0
  94 0012 0C94 0000 		jmp unregister_code16
  95               	.LVL8:
  96               	.L7:
 188:keyboards/crkbd/keymaps/th3v3gas/keymap.c ****       break;
 189:keyboards/crkbd/keymaps/th3v3gas/keymap.c ****     case SINGLE_HOLD:
 190:keyboards/crkbd/keymaps/th3v3gas/keymap.c ****       unregister_code16(KC_RBRC);
 191:keyboards/crkbd/keymaps/th3v3gas/keymap.c ****       break;
 192:keyboards/crkbd/keymaps/th3v3gas/keymap.c ****     case DOUBLE_SINGLE_TAP:
 193:keyboards/crkbd/keymaps/th3v3gas/keymap.c ****       layer_on(_EDT);
  97               		.loc 1 193 7 view .LVU14
  98 0016 82E0      		ldi r24,lo8(2)
  99 0018 0C94 0000 		jmp layer_on
 100               	.LVL9:
 101               		.loc 1 193 7 is_stmt 0 view .LVU15
 102               		.cfi_endproc
 103               	.LFE127:
 105               		.section	.text.td03_reset,"ax",@progbits
 106               	.global	td03_reset
 108               	td03_reset:
 109               	.LVL10:
 110               	.LFB123:
 130:keyboards/crkbd/keymaps/th3v3gas/keymap.c ****   switch (td_state) {
 111               		.loc 1 130 64 is_stmt 1 view -0
 112               		.cfi_startproc
 113               	/* prologue: function */
 114               	/* frame size = 0 */
 115               	/* stack size = 0 */
 116               	.L__stack_usage = 0
 131:keyboards/crkbd/keymaps/th3v3gas/keymap.c ****     case SINGLE_TAP:
 117               		.loc 1 131 3 view .LVU17
 118 0000 8091 0000 		lds r24,td_state
 119               	.LVL11:
 131:keyboards/crkbd/keymaps/th3v3gas/keymap.c ****     case SINGLE_TAP:
 120               		.loc 1 131 3 is_stmt 0 view .LVU18
 121 0004 8130      		cpi r24,lo8(1)
 122 0006 01F0      		breq .L11
 123 0008 8823      		tst r24
 124 000a 01F0      		breq .L12
 125 000c 8230      		cpi r24,lo8(2)
 126 000e 01F0      		breq .L13
 127 0010 0895      		ret
 128               	.L12:
 133:keyboards/crkbd/keymaps/th3v3gas/keymap.c ****       break;
 129               		.loc 1 133 7 is_stmt 1 view .LVU19
 130 0012 84E3      		ldi r24,lo8(52)
 131 0014 90E0      		ldi r25,0
 132               	.L16:
 139:keyboards/crkbd/keymaps/th3v3gas/keymap.c ****   }
 133               		.loc 1 139 7 is_stmt 0 view .LVU20
 134 0016 0C94 0000 		jmp unregister_code16
 135               	.LVL12:
 136               	.L11:
 136:keyboards/crkbd/keymaps/th3v3gas/keymap.c ****       break;
 137               		.loc 1 136 7 is_stmt 1 view .LVU21
 138 001a 84E0      		ldi r24,lo8(4)
 139 001c 0C94 0000 		jmp layer_off
 140               	.LVL13:
 141               	.L13:
 139:keyboards/crkbd/keymaps/th3v3gas/keymap.c ****   }
 142               		.loc 1 139 7 view .LVU22
 143 0020 83EE      		ldi r24,lo8(-29)
 144 0022 90E0      		ldi r25,0
 145 0024 00C0      		rjmp .L16
 146               		.cfi_endproc
 147               	.LFE123:
 149               		.section	.text.cur_dance,"ax",@progbits
 150               	.global	cur_dance
 152               	cur_dance:
 153               	.LVL14:
 154               	.LFB119:
  72:keyboards/crkbd/keymaps/th3v3gas/keymap.c ****   if (state->count == 1) {
 155               		.loc 1 72 45 view -0
 156               		.cfi_startproc
 157               	/* prologue: function */
 158               	/* frame size = 0 */
 159               	/* stack size = 0 */
 160               	.L__stack_usage = 0
  72:keyboards/crkbd/keymaps/th3v3gas/keymap.c ****   if (state->count == 1) {
 161               		.loc 1 72 45 is_stmt 0 view .LVU24
 162 0000 FC01      		movw r30,r24
  73:keyboards/crkbd/keymaps/th3v3gas/keymap.c ****     if (state->interrupted || !state->pressed) { return SINGLE_TAP; }
 163               		.loc 1 73 3 is_stmt 1 view .LVU25
  73:keyboards/crkbd/keymaps/th3v3gas/keymap.c ****     if (state->interrupted || !state->pressed) { return SINGLE_TAP; }
 164               		.loc 1 73 12 is_stmt 0 view .LVU26
 165 0002 8081      		ld r24,Z
 166               	.LVL15:
  73:keyboards/crkbd/keymaps/th3v3gas/keymap.c ****     if (state->interrupted || !state->pressed) { return SINGLE_TAP; }
 167               		.loc 1 73 6 view .LVU27
 168 0004 8130      		cpi r24,lo8(1)
 169 0006 01F4      		brne .L18
  74:keyboards/crkbd/keymaps/th3v3gas/keymap.c ****       else { return SINGLE_HOLD; }
 170               		.loc 1 74 5 is_stmt 1 view .LVU28
  74:keyboards/crkbd/keymaps/th3v3gas/keymap.c ****       else { return SINGLE_HOLD; }
 171               		.loc 1 74 8 is_stmt 0 view .LVU29
 172 0008 8185      		ldd r24,Z+9
 173 000a 8111      		cpse r24,__zero_reg__
 174 000c 00C0      		rjmp .L20
  74:keyboards/crkbd/keymaps/th3v3gas/keymap.c ****       else { return SINGLE_HOLD; }
 175               		.loc 1 74 57 discriminator 2 view .LVU30
 176 000e 8285      		ldd r24,Z+10
 177 0010 90E0      		ldi r25,0
 178 0012 0895      		ret
 179               	.L18:
  77:keyboards/crkbd/keymaps/th3v3gas/keymap.c ****   else { return 3; }
 180               		.loc 1 77 3 is_stmt 1 view .LVU31
  77:keyboards/crkbd/keymaps/th3v3gas/keymap.c ****   else { return 3; }
 181               		.loc 1 77 6 is_stmt 0 view .LVU32
 182 0014 8230      		cpi r24,lo8(2)
 183 0016 01F0      		breq .L21
  78:keyboards/crkbd/keymaps/th3v3gas/keymap.c **** }
 184               		.loc 1 78 17 view .LVU33
 185 0018 83E0      		ldi r24,lo8(3)
 186 001a 90E0      		ldi r25,0
 187 001c 0895      		ret
 188               	.L20:
  74:keyboards/crkbd/keymaps/th3v3gas/keymap.c ****       else { return SINGLE_HOLD; }
 189               		.loc 1 74 57 view .LVU34
 190 001e 90E0      		ldi r25,0
 191 0020 80E0      		ldi r24,0
 192 0022 0895      		ret
 193               	.L21:
  77:keyboards/crkbd/keymaps/th3v3gas/keymap.c ****   else { return 3; }
 194               		.loc 1 77 35 view .LVU35
 195 0024 82E0      		ldi r24,lo8(2)
 196 0026 90E0      		ldi r25,0
 197               	/* epilogue start */
  79:keyboards/crkbd/keymaps/th3v3gas/keymap.c **** //TD _QWERTY; _GAME; wox (ref:TD_QGWOX)
 198               		.loc 1 79 1 view .LVU36
 199 0028 0895      		ret
 200               		.cfi_endproc
 201               	.LFE119:
 203               		.section	.text.td01_finished,"ax",@progbits
 204               	.global	td01_finished
 206               	td01_finished:
 207               	.LVL16:
 208               	.LFB120:
  81:keyboards/crkbd/keymaps/th3v3gas/keymap.c ****   td_state = cur_dance(state);
 209               		.loc 1 81 67 is_stmt 1 view -0
 210               		.cfi_startproc
 211               	/* prologue: function */
 212               	/* frame size = 0 */
 213               	/* stack size = 0 */
 214               	.L__stack_usage = 0
  82:keyboards/crkbd/keymaps/th3v3gas/keymap.c ****   switch (td_state) {
 215               		.loc 1 82 3 view .LVU38
  82:keyboards/crkbd/keymaps/th3v3gas/keymap.c ****   switch (td_state) {
 216               		.loc 1 82 14 is_stmt 0 view .LVU39
 217 0000 0E94 0000 		call cur_dance
 218               	.LVL17:
  82:keyboards/crkbd/keymaps/th3v3gas/keymap.c ****   switch (td_state) {
 219               		.loc 1 82 12 view .LVU40
 220 0004 8093 0000 		sts td_state,r24
  83:keyboards/crkbd/keymaps/th3v3gas/keymap.c ****     case SINGLE_TAP: //_QWERTY
 221               		.loc 1 83 3 is_stmt 1 view .LVU41
 222 0008 8130      		cpi r24,lo8(1)
 223 000a 01F0      		breq .L23
 224 000c 8823      		tst r24
 225 000e 01F0      		breq .L24
 226 0010 8230      		cpi r24,lo8(2)
 227 0012 01F0      		breq .L25
 228 0014 0895      		ret
 229               	.L24:
  85:keyboards/crkbd/keymaps/th3v3gas/keymap.c ****       break;
 230               		.loc 1 85 7 view .LVU42
 231 0016 0C94 0000 		jmp layer_clear
 232               	.LVL18:
 233               	.L23:
  88:keyboards/crkbd/keymaps/th3v3gas/keymap.c ****       break;
 234               		.loc 1 88 7 view .LVU43
 235 001a 81E0      		ldi r24,lo8(1)
 236 001c 0C94 0000 		jmp layer_move
 237               	.LVL19:
 238               	.L25:
  91:keyboards/crkbd/keymaps/th3v3gas/keymap.c ****       register_code16(KC_LALT);
 239               		.loc 1 91 7 view .LVU44
 240 0020 80E0      		ldi r24,0
 241 0022 0E94 0000 		call layer_move
 242               	.LVL20:
  92:keyboards/crkbd/keymaps/th3v3gas/keymap.c ****       register_code16(KC_LCTL);
 243               		.loc 1 92 7 view .LVU45
 244 0026 82EE      		ldi r24,lo8(-30)
 245 0028 90E0      		ldi r25,0
 246 002a 0E94 0000 		call register_code16
 247               	.LVL21:
  93:keyboards/crkbd/keymaps/th3v3gas/keymap.c ****       register_code16(KC_MINS);
 248               		.loc 1 93 7 view .LVU46
 249 002e 80EE      		ldi r24,lo8(-32)
 250 0030 90E0      		ldi r25,0
 251 0032 0E94 0000 		call register_code16
 252               	.LVL22:
  94:keyboards/crkbd/keymaps/th3v3gas/keymap.c ****       layer_clear();
 253               		.loc 1 94 7 view .LVU47
 254 0036 8DE2      		ldi r24,lo8(45)
 255 0038 90E0      		ldi r25,0
 256 003a 0E94 0000 		call register_code16
 257               	.LVL23:
  95:keyboards/crkbd/keymaps/th3v3gas/keymap.c ****       layer_move(_QW);
 258               		.loc 1 95 7 view .LVU48
 259 003e 0E94 0000 		call layer_clear
 260               	.LVL24:
  96:keyboards/crkbd/keymaps/th3v3gas/keymap.c ****       unregister_code16(KC_LALT);
 261               		.loc 1 96 7 view .LVU49
 262 0042 80E0      		ldi r24,0
 263 0044 0E94 0000 		call layer_move
 264               	.LVL25:
  97:keyboards/crkbd/keymaps/th3v3gas/keymap.c ****       unregister_code16(KC_LCTL);
 265               		.loc 1 97 7 view .LVU50
 266 0048 82EE      		ldi r24,lo8(-30)
 267 004a 90E0      		ldi r25,0
 268 004c 0E94 0000 		call unregister_code16
 269               	.LVL26:
  98:keyboards/crkbd/keymaps/th3v3gas/keymap.c ****       unregister_code16(KC_MINS);
 270               		.loc 1 98 7 view .LVU51
 271 0050 80EE      		ldi r24,lo8(-32)
 272 0052 90E0      		ldi r25,0
 273 0054 0E94 0000 		call unregister_code16
 274               	.LVL27:
  99:keyboards/crkbd/keymaps/th3v3gas/keymap.c ****   }
 275               		.loc 1 99 7 view .LVU52
 276 0058 8DE2      		ldi r24,lo8(45)
 277 005a 90E0      		ldi r25,0
 278 005c 0C94 0000 		jmp unregister_code16
 279               	.LVL28:
 280               		.cfi_endproc
 281               	.LFE120:
 283               		.section	.text.td03_finished,"ax",@progbits
 284               	.global	td03_finished
 286               	td03_finished:
 287               	.LVL29:
 288               	.LFB122:
 115:keyboards/crkbd/keymaps/th3v3gas/keymap.c ****   td_state = cur_dance(state);
 289               		.loc 1 115 67 view -0
 290               		.cfi_startproc
 291               	/* prologue: function */
 292               	/* frame size = 0 */
 293               	/* stack size = 0 */
 294               	.L__stack_usage = 0
 116:keyboards/crkbd/keymaps/th3v3gas/keymap.c ****   switch (td_state) {
 295               		.loc 1 116 3 view .LVU54
 116:keyboards/crkbd/keymaps/th3v3gas/keymap.c ****   switch (td_state) {
 296               		.loc 1 116 14 is_stmt 0 view .LVU55
 297 0000 0E94 0000 		call cur_dance
 298               	.LVL30:
 116:keyboards/crkbd/keymaps/th3v3gas/keymap.c ****   switch (td_state) {
 299               		.loc 1 116 12 view .LVU56
 300 0004 8093 0000 		sts td_state,r24
 117:keyboards/crkbd/keymaps/th3v3gas/keymap.c ****     case SINGLE_TAP: //quote
 301               		.loc 1 117 3 is_stmt 1 view .LVU57
 302 0008 8130      		cpi r24,lo8(1)
 303 000a 01F0      		breq .L29
 304 000c 8823      		tst r24
 305 000e 01F0      		breq .L30
 306 0010 8230      		cpi r24,lo8(2)
 307 0012 01F0      		breq .L31
 308 0014 0895      		ret
 309               	.L30:
 119:keyboards/crkbd/keymaps/th3v3gas/keymap.c ****       break;
 310               		.loc 1 119 7 view .LVU58
 311 0016 84E3      		ldi r24,lo8(52)
 312 0018 90E0      		ldi r25,0
 313               	.L34:
 127:keyboards/crkbd/keymaps/th3v3gas/keymap.c ****   }
 314               		.loc 1 127 7 is_stmt 0 view .LVU59
 315 001a 0C94 0000 		jmp register_code16
 316               	.LVL31:
 317               	.L29:
 122:keyboards/crkbd/keymaps/th3v3gas/keymap.c ****       break;
 318               		.loc 1 122 7 is_stmt 1 view .LVU60
 319 001e 84E0      		ldi r24,lo8(4)
 320 0020 0C94 0000 		jmp layer_on
 321               	.LVL32:
 322               	.L31:
 125:keyboards/crkbd/keymaps/th3v3gas/keymap.c ****       layer_move(_QW);
 323               		.loc 1 125 7 view .LVU61
 324 0024 0E94 0000 		call layer_clear
 325               	.LVL33:
 126:keyboards/crkbd/keymaps/th3v3gas/keymap.c ****       register_code16(KC_LGUI);
 326               		.loc 1 126 7 view .LVU62
 327 0028 80E0      		ldi r24,0
 328 002a 0E94 0000 		call layer_move
 329               	.LVL34:
 127:keyboards/crkbd/keymaps/th3v3gas/keymap.c ****   }
 330               		.loc 1 127 7 view .LVU63
 331 002e 83EE      		ldi r24,lo8(-29)
 332 0030 90E0      		ldi r25,0
 333 0032 00C0      		rjmp .L34
 334               		.cfi_endproc
 335               	.LFE122:
 337               		.section	.text.td05_finished,"ax",@progbits
 338               	.global	td05_finished
 340               	td05_finished:
 341               	.LVL35:
 342               	.LFB124:
 143:keyboards/crkbd/keymaps/th3v3gas/keymap.c ****   td_state = cur_dance(state);
 343               		.loc 1 143 67 view -0
 344               		.cfi_startproc
 345               	/* prologue: function */
 346               	/* frame size = 0 */
 347               	/* stack size = 0 */
 348               	.L__stack_usage = 0
 144:keyboards/crkbd/keymaps/th3v3gas/keymap.c ****   switch (td_state) {
 349               		.loc 1 144 3 view .LVU65
 144:keyboards/crkbd/keymaps/th3v3gas/keymap.c ****   switch (td_state) {
 350               		.loc 1 144 14 is_stmt 0 view .LVU66
 351 0000 0E94 0000 		call cur_dance
 352               	.LVL36:
 144:keyboards/crkbd/keymaps/th3v3gas/keymap.c ****   switch (td_state) {
 353               		.loc 1 144 12 view .LVU67
 354 0004 8093 0000 		sts td_state,r24
 145:keyboards/crkbd/keymaps/th3v3gas/keymap.c ****     case SINGLE_TAP: //_GAME enter
 355               		.loc 1 145 3 is_stmt 1 view .LVU68
 356 0008 8823      		tst r24
 357 000a 01F0      		breq .L36
 358 000c 8130      		cpi r24,lo8(1)
 359 000e 01F0      		breq .L37
 360 0010 0895      		ret
 361               	.L36:
 147:keyboards/crkbd/keymaps/th3v3gas/keymap.c ****       register_code16(KC_ENT);
 362               		.loc 1 147 7 view .LVU69
 363 0012 81E0      		ldi r24,lo8(1)
 364 0014 0E94 0000 		call layer_move
 365               	.LVL37:
 148:keyboards/crkbd/keymaps/th3v3gas/keymap.c ****       break;
 366               		.loc 1 148 7 view .LVU70
 367 0018 88E2      		ldi r24,lo8(40)
 368 001a 90E0      		ldi r25,0
 369 001c 0C94 0000 		jmp register_code16
 370               	.LVL38:
 371               	.L37:
 151:keyboards/crkbd/keymaps/th3v3gas/keymap.c ****       unregister_code16(KC_ENT);
 372               		.loc 1 151 7 view .LVU71
 373 0020 88E2      		ldi r24,lo8(40)
 374 0022 90E0      		ldi r25,0
 375 0024 0E94 0000 		call register_code16
 376               	.LVL39:
 152:keyboards/crkbd/keymaps/th3v3gas/keymap.c ****       break;
 377               		.loc 1 152 7 view .LVU72
 378 0028 88E2      		ldi r24,lo8(40)
 379 002a 90E0      		ldi r25,0
 380 002c 0C94 0000 		jmp unregister_code16
 381               	.LVL40:
 382               		.cfi_endproc
 383               	.LFE124:
 385               		.section	.text.td02_finished,"ax",@progbits
 386               	.global	td02_finished
 388               	td02_finished:
 389               	.LVL41:
 390               	.LFB126:
 171:keyboards/crkbd/keymaps/th3v3gas/keymap.c ****   td_state = cur_dance(state);
 391               		.loc 1 171 67 view -0
 392               		.cfi_startproc
 393               	/* prologue: function */
 394               	/* frame size = 0 */
 395               	/* stack size = 0 */
 396               	.L__stack_usage = 0
 172:keyboards/crkbd/keymaps/th3v3gas/keymap.c ****   switch (td_state) {
 397               		.loc 1 172 3 view .LVU74
 172:keyboards/crkbd/keymaps/th3v3gas/keymap.c ****   switch (td_state) {
 398               		.loc 1 172 14 is_stmt 0 view .LVU75
 399 0000 0E94 0000 		call cur_dance
 400               	.LVL42:
 172:keyboards/crkbd/keymaps/th3v3gas/keymap.c ****   switch (td_state) {
 401               		.loc 1 172 12 view .LVU76
 402 0004 8093 0000 		sts td_state,r24
 173:keyboards/crkbd/keymaps/th3v3gas/keymap.c ****     case SINGLE_TAP: //plus
 403               		.loc 1 173 3 is_stmt 1 view .LVU77
 404 0008 8230      		cpi r24,lo8(2)
 405 000a 00F4      		brsh .L40
 175:keyboards/crkbd/keymaps/th3v3gas/keymap.c ****       break;
 406               		.loc 1 175 7 view .LVU78
 407 000c 80E3      		ldi r24,lo8(48)
 408 000e 90E0      		ldi r25,0
 409 0010 0C94 0000 		jmp register_code16
 410               	.LVL43:
 411               	.L40:
 412               	/* epilogue start */
 183:keyboards/crkbd/keymaps/th3v3gas/keymap.c **** void td02_reset (qk_tap_dance_state_t *state, void *user_data) {
 413               		.loc 1 183 1 is_stmt 0 view .LVU79
 414 0014 0895      		ret
 415               		.cfi_endproc
 416               	.LFE126:
 418               		.section	.rodata.process_record_user.str1.1,"aMS",@progbits,1
 419               	.LC0:
 420 0000 0129 00   		.string	"\001)"
 421               	.LC1:
 422 0003 011C 00   		.string	"\001\034"
 423               	.LC2:
 424 0006 010E 00   		.string	"\001\016"
 425               	.LC3:
 426 0009 016C 00   		.string	"\001l"
 427               	.LC4:
 428 000c 02E0 6603 		.string	"\002\340f\003\340"
 428      E000 
 429               	.LC5:
 430 0012 015D 00   		.string	"\001]"
 431               		.section	.text.process_record_user,"ax",@progbits
 432               	.global	process_record_user
 434               	process_record_user:
 435               	.LVL44:
 436               	.LFB128:
 194:keyboards/crkbd/keymaps/th3v3gas/keymap.c ****   }
 195:keyboards/crkbd/keymaps/th3v3gas/keymap.c **** }
 196:keyboards/crkbd/keymaps/th3v3gas/keymap.c **** qk_tap_dance_action_t tap_dance_actions[] = {
 197:keyboards/crkbd/keymaps/th3v3gas/keymap.c ****   [TD_F1F11] = ACTION_TAP_DANCE_DOUBLE(KC_F1, KC_F11),
 198:keyboards/crkbd/keymaps/th3v3gas/keymap.c ****   [TD_F2F12] = ACTION_TAP_DANCE_DOUBLE(KC_F2, KC_F12),
 199:keyboards/crkbd/keymaps/th3v3gas/keymap.c ****   [TD_CAPS] = ACTION_TAP_DANCE_DOUBLE(_______, KC_CAPS),
 200:keyboards/crkbd/keymaps/th3v3gas/keymap.c ****   [TD_QGWOX] = ACTION_TAP_DANCE_FN_ADVANCED(NULL, td01_finished, td01_reset),
 201:keyboards/crkbd/keymaps/th3v3gas/keymap.c ****   [TD_FNWIN] = ACTION_TAP_DANCE_FN_ADVANCED_TIME (NULL, td03_finished, td03_reset, 160),
 202:keyboards/crkbd/keymaps/th3v3gas/keymap.c ****   [TD_CHENT] = ACTION_TAP_DANCE_FN_ADVANCED_TIME(NULL, td05_finished, td05_reset, 170),
 203:keyboards/crkbd/keymaps/th3v3gas/keymap.c ****   [TD_RPRN] = ACTION_TAP_DANCE_FN_ADVANCED_TIME(NULL, td02_finished, td02_reset, 150),
 204:keyboards/crkbd/keymaps/th3v3gas/keymap.c **** };
 205:keyboards/crkbd/keymaps/th3v3gas/keymap.c **** 
 206:keyboards/crkbd/keymaps/th3v3gas/keymap.c **** //macros
 207:keyboards/crkbd/keymaps/th3v3gas/keymap.c **** bool process_record_user(uint16_t keycode, keyrecord_t *record) {
 437               		.loc 1 207 65 is_stmt 1 view -0
 438               		.cfi_startproc
 439               		.loc 1 207 65 is_stmt 0 view .LVU81
 440 0000 CF93      		push r28
 441               	.LCFI0:
 442               		.cfi_def_cfa_offset 3
 443               		.cfi_offset 28, -2
 444               	/* prologue: function */
 445               	/* frame size = 0 */
 446               	/* stack size = 1 */
 447               	.L__stack_usage = 1
 208:keyboards/crkbd/keymaps/th3v3gas/keymap.c **** 	switch (keycode) {
 448               		.loc 1 208 2 is_stmt 1 view .LVU82
 449 0002 8850      		subi r24,8
 450 0004 9D45      		sbci r25,93
 451               	.LVL45:
 209:keyboards/crkbd/keymaps/th3v3gas/keymap.c **** 		case M_CHESC: //close _CHAT, switch to _GAME
 210:keyboards/crkbd/keymaps/th3v3gas/keymap.c **** 			if (record->event.pressed) {
 211:keyboards/crkbd/keymaps/th3v3gas/keymap.c ****         layer_move(_GM);
 212:keyboards/crkbd/keymaps/th3v3gas/keymap.c ****         send_string(SS_TAP(X_ESC));
 213:keyboards/crkbd/keymaps/th3v3gas/keymap.c **** 			};
 214:keyboards/crkbd/keymaps/th3v3gas/keymap.c ****       return false;
 215:keyboards/crkbd/keymaps/th3v3gas/keymap.c **** 		case M_GCHAL: //_CHAT Y
 216:keyboards/crkbd/keymaps/th3v3gas/keymap.c **** 			if (record->event.pressed) {
 217:keyboards/crkbd/keymaps/th3v3gas/keymap.c ****         layer_move(_QW);
 218:keyboards/crkbd/keymaps/th3v3gas/keymap.c ****         layer_on(_CH);
 219:keyboards/crkbd/keymaps/th3v3gas/keymap.c ****         send_string(SS_TAP(X_Y));
 220:keyboards/crkbd/keymaps/th3v3gas/keymap.c **** 			};
 221:keyboards/crkbd/keymaps/th3v3gas/keymap.c ****       return false;
 222:keyboards/crkbd/keymaps/th3v3gas/keymap.c **** 		case M_GCHTM: //_CHAT K
 223:keyboards/crkbd/keymaps/th3v3gas/keymap.c **** 			if (record->event.pressed) {
 224:keyboards/crkbd/keymaps/th3v3gas/keymap.c ****         layer_move(_QW);
 225:keyboards/crkbd/keymaps/th3v3gas/keymap.c ****         layer_on(_CH);
 226:keyboards/crkbd/keymaps/th3v3gas/keymap.c ****         send_string(SS_TAP(X_K));
 227:keyboards/crkbd/keymaps/th3v3gas/keymap.c **** 			};
 228:keyboards/crkbd/keymaps/th3v3gas/keymap.c ****       return false;
 229:keyboards/crkbd/keymaps/th3v3gas/keymap.c **** 		case M_GCHAT: //_CHAT
 230:keyboards/crkbd/keymaps/th3v3gas/keymap.c **** 			if (record->event.pressed) {
 231:keyboards/crkbd/keymaps/th3v3gas/keymap.c ****         layer_move(_QW);
 232:keyboards/crkbd/keymaps/th3v3gas/keymap.c ****         layer_on(_CH);
 233:keyboards/crkbd/keymaps/th3v3gas/keymap.c **** 			};
 234:keyboards/crkbd/keymaps/th3v3gas/keymap.c ****       return false;
 235:keyboards/crkbd/keymaps/th3v3gas/keymap.c **** 		case M_DSCRD: //discord overlay
 236:keyboards/crkbd/keymaps/th3v3gas/keymap.c **** 			if (record->event.pressed) {
 237:keyboards/crkbd/keymaps/th3v3gas/keymap.c ****         layer_move(_QW);
 238:keyboards/crkbd/keymaps/th3v3gas/keymap.c ****         layer_on(_CH);
 239:keyboards/crkbd/keymaps/th3v3gas/keymap.c ****         send_string(SS_TAP(X_F17));
 240:keyboards/crkbd/keymaps/th3v3gas/keymap.c **** 			};
 241:keyboards/crkbd/keymaps/th3v3gas/keymap.c ****       return false;
 242:keyboards/crkbd/keymaps/th3v3gas/keymap.c **** 		case M_DSCEXT: //exit discord overlay, switch to _GAME
 243:keyboards/crkbd/keymaps/th3v3gas/keymap.c **** 			if (record->event.pressed) {
 244:keyboards/crkbd/keymaps/th3v3gas/keymap.c ****         layer_move(_QW);
 245:keyboards/crkbd/keymaps/th3v3gas/keymap.c ****         layer_on(_GM);
 246:keyboards/crkbd/keymaps/th3v3gas/keymap.c ****         send_string(SS_TAP(X_F17));
 247:keyboards/crkbd/keymaps/th3v3gas/keymap.c **** 			};
 248:keyboards/crkbd/keymaps/th3v3gas/keymap.c ****       return false;
 249:keyboards/crkbd/keymaps/th3v3gas/keymap.c **** 		case M_EFIND: //_EDIT find
 250:keyboards/crkbd/keymaps/th3v3gas/keymap.c **** 			if (record->event.pressed) {
 251:keyboards/crkbd/keymaps/th3v3gas/keymap.c ****         send_string(SS_LCTL("f"));
 252:keyboards/crkbd/keymaps/th3v3gas/keymap.c ****         layer_move(_QW);
 253:keyboards/crkbd/keymaps/th3v3gas/keymap.c **** 			};
 254:keyboards/crkbd/keymaps/th3v3gas/keymap.c ****       return false;
 255:keyboards/crkbd/keymaps/th3v3gas/keymap.c **** 		case M_BLRUN: //borderlands run forward
 256:keyboards/crkbd/keymaps/th3v3gas/keymap.c **** 			if (record->event.pressed) {
 257:keyboards/crkbd/keymaps/th3v3gas/keymap.c ****         register_code(KC_W);
 258:keyboards/crkbd/keymaps/th3v3gas/keymap.c ****         send_string(SS_TAP(X_P5));
 259:keyboards/crkbd/keymaps/th3v3gas/keymap.c ****        } else {
 260:keyboards/crkbd/keymaps/th3v3gas/keymap.c ****         unregister_code(KC_W);
 261:keyboards/crkbd/keymaps/th3v3gas/keymap.c **** 			};
 262:keyboards/crkbd/keymaps/th3v3gas/keymap.c ****       return false;
 263:keyboards/crkbd/keymaps/th3v3gas/keymap.c **** 		case M_BLSLD: //borderlands slide
 264:keyboards/crkbd/keymaps/th3v3gas/keymap.c **** 			if (record->event.pressed) {
 265:keyboards/crkbd/keymaps/th3v3gas/keymap.c ****         layer_off(_BLNDS);
 266:keyboards/crkbd/keymaps/th3v3gas/keymap.c ****         register_code(KC_B);
 267:keyboards/crkbd/keymaps/th3v3gas/keymap.c ****        } else {
 268:keyboards/crkbd/keymaps/th3v3gas/keymap.c ****         layer_on(_BLNDS);
 269:keyboards/crkbd/keymaps/th3v3gas/keymap.c ****         unregister_code(KC_B);
 270:keyboards/crkbd/keymaps/th3v3gas/keymap.c ****         send_string(SS_TAP(X_P5));
 271:keyboards/crkbd/keymaps/th3v3gas/keymap.c **** 			};
 272:keyboards/crkbd/keymaps/th3v3gas/keymap.c ****       return false;
 273:keyboards/crkbd/keymaps/th3v3gas/keymap.c **** 		case M_BLADS: //borderlands aim down sight
 274:keyboards/crkbd/keymaps/th3v3gas/keymap.c **** 			if (record->event.pressed) {
 275:keyboards/crkbd/keymaps/th3v3gas/keymap.c **** 
 276:keyboards/crkbd/keymaps/th3v3gas/keymap.c ****         register_code(KC_SPC);
 277:keyboards/crkbd/keymaps/th3v3gas/keymap.c ****        } else {
 278:keyboards/crkbd/keymaps/th3v3gas/keymap.c ****         unregister_code(KC_SPC);
 279:keyboards/crkbd/keymaps/th3v3gas/keymap.c ****         send_string(SS_TAP(X_P5));
 280:keyboards/crkbd/keymaps/th3v3gas/keymap.c **** 			};
 281:keyboards/crkbd/keymaps/th3v3gas/keymap.c ****       return false;
 282:keyboards/crkbd/keymaps/th3v3gas/keymap.c ****   }
 283:keyboards/crkbd/keymaps/th3v3gas/keymap.c ****   return true;
 452               		.loc 1 283 10 is_stmt 0 view .LVU83
 453 0006 C1E0      		ldi r28,lo8(1)
 208:keyboards/crkbd/keymaps/th3v3gas/keymap.c **** 	switch (keycode) {
 454               		.loc 1 208 2 view .LVU84
 455 0008 8A30      		cpi r24,10
 456 000a 9105      		cpc r25,__zero_reg__
 457 000c 00F0      		brlo .+2
 458 000e 00C0      		rjmp .L42
 459 0010 FC01      		movw r30,r24
 460 0012 E050      		subi r30,lo8(-(gs(.L45)))
 461 0014 F040      		sbci r31,hi8(-(gs(.L45)))
 462 0016 DB01      		movw r26,r22
 463 0018 1296      		adiw r26,2
 464 001a CC91      		ld r28,X
 465 001c 0C94 0000 		jmp __tablejump2__
 466               		.section	.jumptables.gcc.process_record_user,"a",@progbits
 467               		.p2align	1
 468               	.L45:
 469 0000 0000      		.word gs(.L54)
 470 0002 0000      		.word gs(.L53)
 471 0004 0000      		.word gs(.L52)
 472 0006 0000      		.word gs(.L51)
 473 0008 0000      		.word gs(.L50)
 474 000a 0000      		.word gs(.L49)
 475 000c 0000      		.word gs(.L48)
 476 000e 0000      		.word gs(.L47)
 477 0010 0000      		.word gs(.L46)
 478 0012 0000      		.word gs(.L44)
 479               		.section	.text.process_record_user
 480               	.L54:
 210:keyboards/crkbd/keymaps/th3v3gas/keymap.c ****         layer_move(_GM);
 481               		.loc 1 210 4 is_stmt 1 view .LVU85
 210:keyboards/crkbd/keymaps/th3v3gas/keymap.c ****         layer_move(_GM);
 482               		.loc 1 210 7 is_stmt 0 view .LVU86
 483 0020 CC23      		tst r28
 484 0022 01F4      		brne .+2
 485 0024 00C0      		rjmp .L42
 211:keyboards/crkbd/keymaps/th3v3gas/keymap.c ****         send_string(SS_TAP(X_ESC));
 486               		.loc 1 211 9 is_stmt 1 view .LVU87
 487 0026 81E0      		ldi r24,lo8(1)
 488               	.LVL46:
 211:keyboards/crkbd/keymaps/th3v3gas/keymap.c ****         send_string(SS_TAP(X_ESC));
 489               		.loc 1 211 9 is_stmt 0 view .LVU88
 490 0028 0E94 0000 		call layer_move
 491               	.LVL47:
 212:keyboards/crkbd/keymaps/th3v3gas/keymap.c **** 			};
 492               		.loc 1 212 9 is_stmt 1 view .LVU89
 493 002c 80E0      		ldi r24,lo8(.LC0)
 494 002e 90E0      		ldi r25,hi8(.LC0)
 495               	.L82:
 219:keyboards/crkbd/keymaps/th3v3gas/keymap.c **** 			};
 496               		.loc 1 219 9 is_stmt 0 view .LVU90
 497 0030 0E94 0000 		call send_string
 498               	.LVL48:
 499               	.L80:
 281:keyboards/crkbd/keymaps/th3v3gas/keymap.c ****   }
 500               		.loc 1 281 14 view .LVU91
 501 0034 C0E0      		ldi r28,0
 502 0036 00C0      		rjmp .L42
 503               	.LVL49:
 504               	.L53:
 216:keyboards/crkbd/keymaps/th3v3gas/keymap.c ****         layer_move(_QW);
 505               		.loc 1 216 4 is_stmt 1 view .LVU92
 216:keyboards/crkbd/keymaps/th3v3gas/keymap.c ****         layer_move(_QW);
 506               		.loc 1 216 7 is_stmt 0 view .LVU93
 507 0038 CC23      		tst r28
 508 003a 01F4      		brne .+2
 509 003c 00C0      		rjmp .L42
 217:keyboards/crkbd/keymaps/th3v3gas/keymap.c ****         layer_on(_CH);
 510               		.loc 1 217 9 is_stmt 1 view .LVU94
 511 003e 80E0      		ldi r24,0
 512 0040 0E94 0000 		call layer_move
 513               	.LVL50:
 218:keyboards/crkbd/keymaps/th3v3gas/keymap.c ****         send_string(SS_TAP(X_Y));
 514               		.loc 1 218 9 view .LVU95
 515 0044 86E0      		ldi r24,lo8(6)
 516 0046 0E94 0000 		call layer_on
 517               	.LVL51:
 219:keyboards/crkbd/keymaps/th3v3gas/keymap.c **** 			};
 518               		.loc 1 219 9 view .LVU96
 519 004a 80E0      		ldi r24,lo8(.LC1)
 520 004c 90E0      		ldi r25,hi8(.LC1)
 521 004e 00C0      		rjmp .L82
 522               	.LVL52:
 523               	.L52:
 223:keyboards/crkbd/keymaps/th3v3gas/keymap.c ****         layer_move(_QW);
 524               		.loc 1 223 4 view .LVU97
 223:keyboards/crkbd/keymaps/th3v3gas/keymap.c ****         layer_move(_QW);
 525               		.loc 1 223 7 is_stmt 0 view .LVU98
 526 0050 CC23      		tst r28
 527 0052 01F0      		breq .L42
 224:keyboards/crkbd/keymaps/th3v3gas/keymap.c ****         layer_on(_CH);
 528               		.loc 1 224 9 is_stmt 1 view .LVU99
 529 0054 80E0      		ldi r24,0
 530 0056 0E94 0000 		call layer_move
 531               	.LVL53:
 225:keyboards/crkbd/keymaps/th3v3gas/keymap.c ****         send_string(SS_TAP(X_K));
 532               		.loc 1 225 9 view .LVU100
 533 005a 86E0      		ldi r24,lo8(6)
 534 005c 0E94 0000 		call layer_on
 535               	.LVL54:
 226:keyboards/crkbd/keymaps/th3v3gas/keymap.c **** 			};
 536               		.loc 1 226 9 view .LVU101
 537 0060 80E0      		ldi r24,lo8(.LC2)
 538 0062 90E0      		ldi r25,hi8(.LC2)
 539 0064 00C0      		rjmp .L82
 540               	.LVL55:
 541               	.L51:
 230:keyboards/crkbd/keymaps/th3v3gas/keymap.c ****         layer_move(_QW);
 542               		.loc 1 230 4 view .LVU102
 230:keyboards/crkbd/keymaps/th3v3gas/keymap.c ****         layer_move(_QW);
 543               		.loc 1 230 7 is_stmt 0 view .LVU103
 544 0066 CC23      		tst r28
 545 0068 01F0      		breq .L42
 231:keyboards/crkbd/keymaps/th3v3gas/keymap.c ****         layer_on(_CH);
 546               		.loc 1 231 9 is_stmt 1 view .LVU104
 547 006a 80E0      		ldi r24,0
 548 006c 0E94 0000 		call layer_move
 549               	.LVL56:
 232:keyboards/crkbd/keymaps/th3v3gas/keymap.c **** 			};
 550               		.loc 1 232 9 view .LVU105
 551 0070 86E0      		ldi r24,lo8(6)
 552 0072 0E94 0000 		call layer_on
 553               	.LVL57:
 554 0076 00C0      		rjmp .L80
 555               	.LVL58:
 556               	.L50:
 236:keyboards/crkbd/keymaps/th3v3gas/keymap.c ****         layer_move(_QW);
 557               		.loc 1 236 4 view .LVU106
 236:keyboards/crkbd/keymaps/th3v3gas/keymap.c ****         layer_move(_QW);
 558               		.loc 1 236 7 is_stmt 0 view .LVU107
 559 0078 CC23      		tst r28
 560 007a 01F0      		breq .L42
 237:keyboards/crkbd/keymaps/th3v3gas/keymap.c ****         layer_on(_CH);
 561               		.loc 1 237 9 is_stmt 1 view .LVU108
 562 007c 80E0      		ldi r24,0
 563 007e 0E94 0000 		call layer_move
 564               	.LVL59:
 238:keyboards/crkbd/keymaps/th3v3gas/keymap.c ****         send_string(SS_TAP(X_F17));
 565               		.loc 1 238 9 view .LVU109
 566 0082 86E0      		ldi r24,lo8(6)
 567               	.L83:
 245:keyboards/crkbd/keymaps/th3v3gas/keymap.c ****         send_string(SS_TAP(X_F17));
 568               		.loc 1 245 9 is_stmt 0 view .LVU110
 569 0084 0E94 0000 		call layer_on
 570               	.LVL60:
 246:keyboards/crkbd/keymaps/th3v3gas/keymap.c **** 			};
 571               		.loc 1 246 9 is_stmt 1 view .LVU111
 572 0088 80E0      		ldi r24,lo8(.LC3)
 573 008a 90E0      		ldi r25,hi8(.LC3)
 574 008c 00C0      		rjmp .L82
 575               	.LVL61:
 576               	.L49:
 243:keyboards/crkbd/keymaps/th3v3gas/keymap.c ****         layer_move(_QW);
 577               		.loc 1 243 4 view .LVU112
 243:keyboards/crkbd/keymaps/th3v3gas/keymap.c ****         layer_move(_QW);
 578               		.loc 1 243 7 is_stmt 0 view .LVU113
 579 008e CC23      		tst r28
 580 0090 01F0      		breq .L42
 244:keyboards/crkbd/keymaps/th3v3gas/keymap.c ****         layer_on(_GM);
 581               		.loc 1 244 9 is_stmt 1 view .LVU114
 582 0092 80E0      		ldi r24,0
 583 0094 0E94 0000 		call layer_move
 584               	.LVL62:
 245:keyboards/crkbd/keymaps/th3v3gas/keymap.c ****         send_string(SS_TAP(X_F17));
 585               		.loc 1 245 9 view .LVU115
 586 0098 81E0      		ldi r24,lo8(1)
 587 009a 00C0      		rjmp .L83
 588               	.LVL63:
 589               	.L48:
 250:keyboards/crkbd/keymaps/th3v3gas/keymap.c ****         send_string(SS_LCTL("f"));
 590               		.loc 1 250 4 view .LVU116
 250:keyboards/crkbd/keymaps/th3v3gas/keymap.c ****         send_string(SS_LCTL("f"));
 591               		.loc 1 250 7 is_stmt 0 view .LVU117
 592 009c CC23      		tst r28
 593 009e 01F0      		breq .L42
 251:keyboards/crkbd/keymaps/th3v3gas/keymap.c ****         layer_move(_QW);
 594               		.loc 1 251 9 is_stmt 1 view .LVU118
 595 00a0 80E0      		ldi r24,lo8(.LC4)
 596 00a2 90E0      		ldi r25,hi8(.LC4)
 597 00a4 0E94 0000 		call send_string
 598               	.LVL64:
 252:keyboards/crkbd/keymaps/th3v3gas/keymap.c **** 			};
 599               		.loc 1 252 9 view .LVU119
 600 00a8 80E0      		ldi r24,0
 601 00aa 0E94 0000 		call layer_move
 602               	.LVL65:
 603 00ae 00C0      		rjmp .L80
 604               	.LVL66:
 605               	.L47:
 256:keyboards/crkbd/keymaps/th3v3gas/keymap.c ****         register_code(KC_W);
 606               		.loc 1 256 4 view .LVU120
 257:keyboards/crkbd/keymaps/th3v3gas/keymap.c ****         send_string(SS_TAP(X_P5));
 607               		.loc 1 257 9 is_stmt 0 view .LVU121
 608 00b0 8AE1      		ldi r24,lo8(26)
 256:keyboards/crkbd/keymaps/th3v3gas/keymap.c ****         register_code(KC_W);
 609               		.loc 1 256 7 view .LVU122
 610 00b2 CC23      		tst r28
 611 00b4 01F0      		breq .L55
 257:keyboards/crkbd/keymaps/th3v3gas/keymap.c ****         send_string(SS_TAP(X_P5));
 612               		.loc 1 257 9 is_stmt 1 view .LVU123
 613 00b6 0E94 0000 		call register_code
 614               	.LVL67:
 258:keyboards/crkbd/keymaps/th3v3gas/keymap.c ****        } else {
 615               		.loc 1 258 9 view .LVU124
 616 00ba 80E0      		ldi r24,lo8(.LC5)
 617 00bc 90E0      		ldi r25,hi8(.LC5)
 618 00be 00C0      		rjmp .L82
 619               	.LVL68:
 620               	.L55:
 260:keyboards/crkbd/keymaps/th3v3gas/keymap.c **** 			};
 621               		.loc 1 260 9 view .LVU125
 622 00c0 0E94 0000 		call unregister_code
 623               	.LVL69:
 624               	.L42:
 284:keyboards/crkbd/keymaps/th3v3gas/keymap.c **** };
 625               		.loc 1 284 1 is_stmt 0 view .LVU126
 626 00c4 8C2F      		mov r24,r28
 627               	/* epilogue start */
 628 00c6 CF91      		pop r28
 629 00c8 0895      		ret
 630               	.LVL70:
 631               	.L46:
 264:keyboards/crkbd/keymaps/th3v3gas/keymap.c ****         layer_off(_BLNDS);
 632               		.loc 1 264 4 is_stmt 1 view .LVU127
 265:keyboards/crkbd/keymaps/th3v3gas/keymap.c ****         register_code(KC_B);
 633               		.loc 1 265 9 is_stmt 0 view .LVU128
 634 00ca 87E0      		ldi r24,lo8(7)
 264:keyboards/crkbd/keymaps/th3v3gas/keymap.c ****         layer_off(_BLNDS);
 635               		.loc 1 264 7 view .LVU129
 636 00cc CC23      		tst r28
 637 00ce 01F0      		breq .L56
 265:keyboards/crkbd/keymaps/th3v3gas/keymap.c ****         register_code(KC_B);
 638               		.loc 1 265 9 is_stmt 1 view .LVU130
 639 00d0 0E94 0000 		call layer_off
 640               	.LVL71:
 266:keyboards/crkbd/keymaps/th3v3gas/keymap.c ****        } else {
 641               		.loc 1 266 9 view .LVU131
 642 00d4 85E0      		ldi r24,lo8(5)
 643               	.L81:
 276:keyboards/crkbd/keymaps/th3v3gas/keymap.c ****        } else {
 644               		.loc 1 276 9 view .LVU132
 645 00d6 0E94 0000 		call register_code
 646               	.LVL72:
 647 00da 00C0      		rjmp .L80
 648               	.LVL73:
 649               	.L56:
 268:keyboards/crkbd/keymaps/th3v3gas/keymap.c ****         unregister_code(KC_B);
 650               		.loc 1 268 9 view .LVU133
 651 00dc 0E94 0000 		call layer_on
 652               	.LVL74:
 269:keyboards/crkbd/keymaps/th3v3gas/keymap.c ****         send_string(SS_TAP(X_P5));
 653               		.loc 1 269 9 view .LVU134
 654 00e0 85E0      		ldi r24,lo8(5)
 655               	.L57:
 278:keyboards/crkbd/keymaps/th3v3gas/keymap.c ****         send_string(SS_TAP(X_P5));
 656               		.loc 1 278 9 view .LVU135
 657 00e2 0E94 0000 		call unregister_code
 658               	.LVL75:
 279:keyboards/crkbd/keymaps/th3v3gas/keymap.c **** 			};
 659               		.loc 1 279 9 view .LVU136
 660 00e6 80E0      		ldi r24,lo8(.LC5)
 661 00e8 90E0      		ldi r25,hi8(.LC5)
 662 00ea 0E94 0000 		call send_string
 663               	.LVL76:
 664 00ee 00C0      		rjmp .L42
 665               	.LVL77:
 666               	.L44:
 274:keyboards/crkbd/keymaps/th3v3gas/keymap.c **** 
 667               		.loc 1 274 4 view .LVU137
 276:keyboards/crkbd/keymaps/th3v3gas/keymap.c ****        } else {
 668               		.loc 1 276 9 is_stmt 0 view .LVU138
 669 00f0 8CE2      		ldi r24,lo8(44)
 274:keyboards/crkbd/keymaps/th3v3gas/keymap.c **** 
 670               		.loc 1 274 7 view .LVU139
 671 00f2 CC23      		tst r28
 672 00f4 01F0      		breq .L57
 673 00f6 00C0      		rjmp .L81
 674               		.cfi_endproc
 675               	.LFE128:
 677               		.section	.text.update_log,"ax",@progbits
 678               	.global	update_log
 680               	update_log:
 681               	.LFB129:
 285:keyboards/crkbd/keymaps/th3v3gas/keymap.c **** 
 286:keyboards/crkbd/keymaps/th3v3gas/keymap.c **** //combos
 287:keyboards/crkbd/keymaps/th3v3gas/keymap.c **** //rules.mk (COMBO_ENABLE = yes)
 288:keyboards/crkbd/keymaps/th3v3gas/keymap.c **** //config.h (#define COMBO_COUNT 2) Change combo count as needed (#define COMBO_TERM 50) combo windo
 289:keyboards/crkbd/keymaps/th3v3gas/keymap.c **** enum combos {
 290:keyboards/crkbd/keymaps/th3v3gas/keymap.c ****   co_qm, //qmark
 291:keyboards/crkbd/keymaps/th3v3gas/keymap.c ****   co_ep //exlm
 292:keyboards/crkbd/keymaps/th3v3gas/keymap.c **** };
 293:keyboards/crkbd/keymaps/th3v3gas/keymap.c **** const uint16_t PROGMEM qm_combo[] = {KC_COMM, KC_DOT, COMBO_END}; //qmark
 294:keyboards/crkbd/keymaps/th3v3gas/keymap.c **** const uint16_t PROGMEM ex_combo[] = {KC_M, KC_COMM, COMBO_END}; //exlm
 295:keyboards/crkbd/keymaps/th3v3gas/keymap.c **** combo_t key_combos[COMBO_COUNT] = {
 296:keyboards/crkbd/keymaps/th3v3gas/keymap.c ****   [co_qm] = COMBO(qm_combo, KC_QUES), //qmark
 297:keyboards/crkbd/keymaps/th3v3gas/keymap.c ****   [co_ep] = COMBO(ex_combo, KC_EXLM), //exlm
 298:keyboards/crkbd/keymaps/th3v3gas/keymap.c **** };
 299:keyboards/crkbd/keymaps/th3v3gas/keymap.c **** 
 300:keyboards/crkbd/keymaps/th3v3gas/keymap.c **** const uint16_t PROGMEM keymaps[][MATRIX_ROWS][MATRIX_COLS] = {
 301:keyboards/crkbd/keymaps/th3v3gas/keymap.c **** /* _QW _QWERTY      DEFAULT LAYER
 302:keyboards/crkbd/keymaps/th3v3gas/keymap.c **** *	+-----------------------------------+  +-----------------------------------.
 303:keyboards/crkbd/keymaps/th3v3gas/keymap.c **** *	|esCTL|  Q  |  W  |  E  |  R  |  T  |  |  Y  |  U  |  I  |  O  |  P  |Bspce|
 304:keyboards/crkbd/keymaps/th3v3gas/keymap.c **** *	|-----------------------------------|  |-----------------------------------+
 305:keyboards/crkbd/keymaps/th3v3gas/keymap.c **** *	|tab_F|  A  |  S  |  D  |  F  |  G  |  |  H  |  J  |  K  |  L  |  ;  |FNWIN|  tap dance FNWIN
 306:keyboards/crkbd/keymaps/th3v3gas/keymap.c **** *	|-----------------------------------|  |-----------------------------------+
 307:keyboards/crkbd/keymaps/th3v3gas/keymap.c **** *	|shift|  Z  |  X  |  C  |  V  |  B  |  |  N  |M(!) |,(!?)|.(?) |QGWOX|SFTEN|  combos (M+,)=! (,+.
 308:keyboards/crkbd/keymaps/th3v3gas/keymap.c **** *	+-----------------------------------|  |-----------------------------------+
 309:keyboards/crkbd/keymaps/th3v3gas/keymap.c **** *	                  |alt *|_TH /| del |  |space|_TH [|RPRN |                    tap dance RPRN
 310:keyboards/crkbd/keymaps/th3v3gas/keymap.c **** *	                  +-----------------+  +-----------------+
 311:keyboards/crkbd/keymaps/th3v3gas/keymap.c **** */
 312:keyboards/crkbd/keymaps/th3v3gas/keymap.c **** 	[_QWERTY] = LAYOUT(
 313:keyboards/crkbd/keymaps/th3v3gas/keymap.c ****      CTL_T(KC_ESC),KC_Q,KC_W,KC_E,KC_R,KC_T,  KC_Y,KC_U,KC_I,KC_O,KC_P,KC_BSPC,
 314:keyboards/crkbd/keymaps/th3v3gas/keymap.c **** 		LT(_FN,KC_TAB),KC_A,KC_S,KC_D,KC_F,KC_G,  KC_H,KC_J,KC_K,KC_L,KC_SCLN,TD(TD_FNWIN),
 315:keyboards/crkbd/keymaps/th3v3gas/keymap.c **** 		       KC_LSFT,KC_Z,KC_X,KC_C,KC_V,KC_B,  KC_N,KC_M,KC_COMM,KC_DOT,TD(TD_QGWOX),KC_SFTENT,
 316:keyboards/crkbd/keymaps/th3v3gas/keymap.c **** 		 LALT_T(KC_PAST),LT(_TH,KC_SLSH),KC_DEL,  KC_SPC,LT(_TH,KC_LBRC),TD(TD_RPRN)),
 317:keyboards/crkbd/keymaps/th3v3gas/keymap.c **** 
 318:keyboards/crkbd/keymaps/th3v3gas/keymap.c **** /* _GM _GAME        DEFAULT LAYER
 319:keyboards/crkbd/keymaps/th3v3gas/keymap.c **** *	+-----------------------------------+  +-----------------------------------+
 320:keyboards/crkbd/keymaps/th3v3gas/keymap.c **** *	| esc |  T  |  Q  |  W  |  E  |  R  |  |  J  |  U  |  I  |  O  |BDLND|Bspce|
 321:keyboards/crkbd/keymaps/th3v3gas/keymap.c **** *	|-----------------------------------|  |-----------------------------------+
 322:keyboards/crkbd/keymaps/th3v3gas/keymap.c **** *	| _GF |  G  |  A  |  S  |  D  |  F  |  |  H  |GCHAL|GCHTM|GCHAT|  ;  |FNWIN|  macro GCHAL, GCHTM,
 323:keyboards/crkbd/keymaps/th3v3gas/keymap.c **** *	|-----------------------------------|  |-----------------------------------+
 324:keyboards/crkbd/keymaps/th3v3gas/keymap.c **** *	|shift|  B  |  Z  |  X  |  C  |  V  |  |  N  |  M  |  ,  |  .  |QGWOX|SFTEN|
 325:keyboards/crkbd/keymaps/th3v3gas/keymap.c **** *	+-----------------------------------|  |-----------------------------------+
 326:keyboards/crkbd/keymaps/th3v3gas/keymap.c **** *	                  |  [  |  ]  | del |  |space|pause|DSCRD|                    macro DSCRD
 327:keyboards/crkbd/keymaps/th3v3gas/keymap.c **** *	                  +-----------------+  +-----------------+
 328:keyboards/crkbd/keymaps/th3v3gas/keymap.c **** */
 329:keyboards/crkbd/keymaps/th3v3gas/keymap.c **** 	[_GAME] = LAYOUT(
 330:keyboards/crkbd/keymaps/th3v3gas/keymap.c ****       KC_ESC,KC_T,KC_Q,KC_W,KC_E,KC_R,  KC_J,KC_U,KC_I,KC_O,TG(_BLNDS),KC_BSPC,
 331:keyboards/crkbd/keymaps/th3v3gas/keymap.c ****     MO(_GFN),KC_G,KC_A,KC_S,KC_D,KC_F,  KC_H,M_GCHAL,M_GCHTM,M_GCHAT,KC_SCLN,TD(TD_FNWIN),
 332:keyboards/crkbd/keymaps/th3v3gas/keymap.c ****      KC_LSFT,KC_B,KC_Z,KC_X,KC_C,KC_V,  KC_N,KC_M,KC_COMM,KC_DOT,TD(TD_QGWOX),KC_SFTENT,
 333:keyboards/crkbd/keymaps/th3v3gas/keymap.c ****                KC_LBRC,KC_RBRC,KC_DEL,  KC_SPC,LT(_TH,KC_PAUS),M_DSCRD),
 334:keyboards/crkbd/keymaps/th3v3gas/keymap.c **** 
 335:keyboards/crkbd/keymaps/th3v3gas/keymap.c **** /* _EDT _EDIT
 336:keyboards/crkbd/keymaps/th3v3gas/keymap.c **** *	+-----------------------------------+  +-----------------------------------+
 337:keyboards/crkbd/keymaps/th3v3gas/keymap.c **** *	|     |  [  |  ]  |  (  |  )  |  /  |  |undo |     |     |     |     |     |
 338:keyboards/crkbd/keymaps/th3v3gas/keymap.c **** *	|-----------------------------------|  |-----------------------------------+
 339:keyboards/crkbd/keymaps/th3v3gas/keymap.c **** *	|     |slall|save |     |find | del |  |left |down | up  |right|     |     |
 340:keyboards/crkbd/keymaps/th3v3gas/keymap.c **** *	|-----------------------------------|  |-----------------------------------+
 341:keyboards/crkbd/keymaps/th3v3gas/keymap.c **** *	|     |undo | cut |     |bspce|enter|  |     |     |     |     |QGWOX|     |
 342:keyboards/crkbd/keymaps/th3v3gas/keymap.c **** *	+-----------------------------------|  |-----------------------------------+
 343:keyboards/crkbd/keymaps/th3v3gas/keymap.c **** *	                  |copy |paste|space|  |     |     |     |
 344:keyboards/crkbd/keymaps/th3v3gas/keymap.c **** *	                  +-----------------+  +-----------------+
 345:keyboards/crkbd/keymaps/th3v3gas/keymap.c **** */
 346:keyboards/crkbd/keymaps/th3v3gas/keymap.c **** 	[_EDIT] = LAYOUT(
 347:keyboards/crkbd/keymaps/th3v3gas/keymap.c ****     _______,KC_LBRC,KC_RBRC,KC_LPRN,KC_RPRN,KC_SLSH,  C(KC_Y),_______,_______,_______,_______,TO(_Q
 348:keyboards/crkbd/keymaps/th3v3gas/keymap.c ****      KC_TRNS,C(KC_A),C(KC_S),_______,M_EFIND,KC_DEL,  KC_LEFT,KC_DOWN,KC_UP,KC_RGHT,_______,KC_TRNS
 349:keyboards/crkbd/keymaps/th3v3gas/keymap.c ****   	 KC_TRNS,C(KC_Z),C(KC_X),_______,KC_BSPC,KC_ENT,  KC_HOME,KC_PGDN,KC_PGUP,KC_END,KC_TRNS,_______
 350:keyboards/crkbd/keymaps/th3v3gas/keymap.c ****                              C(KC_C),C(KC_V),KC_SPC,  _______,KC_TRNS,TO(_QW)),
 351:keyboards/crkbd/keymaps/th3v3gas/keymap.c **** 
 352:keyboards/crkbd/keymaps/th3v3gas/keymap.c **** /* _TH _THUMB
 353:keyboards/crkbd/keymaps/th3v3gas/keymap.c **** *	+-----------------------------------+  +-----------------------------------+
 354:keyboards/crkbd/keymaps/th3v3gas/keymap.c **** *	| ` ~ |  1  |  2  |  3  |  4  |  5  |  |  6  |  7  |  8  |  9  |  0  |     |
 355:keyboards/crkbd/keymaps/th3v3gas/keymap.c **** *	|-----------------------------------|  |-----------------------------------+
 356:keyboards/crkbd/keymaps/th3v3gas/keymap.c **** *	|     |     |     |     |     |     |  |left |down | up  |right|     |  \| |
 357:keyboards/crkbd/keymaps/th3v3gas/keymap.c **** *	|-----------------------------------|  |-----------------------------------+
 358:keyboards/crkbd/keymaps/th3v3gas/keymap.c **** *	|     |     |     |copy |paste|     |  |     |     |     |     |QGWOX|     |
 359:keyboards/crkbd/keymaps/th3v3gas/keymap.c **** *	+-----------------------------------|  |-----------------------------------+
 360:keyboards/crkbd/keymaps/th3v3gas/keymap.c **** *	                  |  +  |  -  |space|  | del |  (  |  )  |
 361:keyboards/crkbd/keymaps/th3v3gas/keymap.c **** *	                  +-----------------+  +-----------------+
 362:keyboards/crkbd/keymaps/th3v3gas/keymap.c **** */
 363:keyboards/crkbd/keymaps/th3v3gas/keymap.c **** 	[_THUMB] = LAYOUT(
 364:keyboards/crkbd/keymaps/th3v3gas/keymap.c ****                     KC_GRV,KC_1,KC_2,KC_3,KC_4,KC_5,  KC_6,KC_7,KC_8,KC_9,KC_0,_______,
 365:keyboards/crkbd/keymaps/th3v3gas/keymap.c **** 		_______,XXXXXXX,XXXXXXX,XXXXXXX,XXXXXXX,XXXXXXX,  KC_LEFT,KC_DOWN,KC_UP,KC_RGHT,_______,KC_TRNS,
 366:keyboards/crkbd/keymaps/th3v3gas/keymap.c **** 		_______,XXXXXXX,XXXXXXX,C(KC_C),C(KC_V),XXXXXXX,  KC_HOME,KC_PGDN,KC_PGUP,KC_END,KC_TRNS,_______,
 367:keyboards/crkbd/keymaps/th3v3gas/keymap.c **** 		                         KC_PPLS,KC_MINS,KC_SPC,  KC_UNDS,KC_LPRN,KC_RPRN),
 368:keyboards/crkbd/keymaps/th3v3gas/keymap.c **** 
 369:keyboards/crkbd/keymaps/th3v3gas/keymap.c **** /* _FN _FUNCTION
 370:keyboards/crkbd/keymaps/th3v3gas/keymap.c **** *	+-----------------------------------+  +-----------------------------------+
 371:keyboards/crkbd/keymaps/th3v3gas/keymap.c **** *	|(tsk)|F1F11|F2F12| F3  | F4  | F5  |  | F6  | F7  | F8  | F9  | F10 |PrtSc|  (tsk) = task manage
 372:keyboards/crkbd/keymaps/th3v3gas/keymap.c **** *	|-----------------------------------|  |-----------------------------------+
 373:keyboards/crkbd/keymaps/th3v3gas/keymap.c **** *	|CAPS | n1  | n2  | n3  | n4  | n5  |  | n6  | n7  | n8  | n9  | n0  |     |  tap dance TD_CAPS
 374:keyboards/crkbd/keymaps/th3v3gas/keymap.c **** *	|-----------------------------------|  |-----------------------------------+
 375:keyboards/crkbd/keymaps/th3v3gas/keymap.c **** *	|     |     |     |     |     |     |  |     |     |     |     |QGWOX|rsft |
 376:keyboards/crkbd/keymaps/th3v3gas/keymap.c **** *	+-----------------------------------|  |-----------------------------------+
 377:keyboards/crkbd/keymaps/th3v3gas/keymap.c **** *	                  |  @  |  =  |  _  |  |  _  |  ]  |  =  |
 378:keyboards/crkbd/keymaps/th3v3gas/keymap.c **** *	                  +-----------------+  +-----------------+
 379:keyboards/crkbd/keymaps/th3v3gas/keymap.c **** */
 380:keyboards/crkbd/keymaps/th3v3gas/keymap.c **** 	[_FUNCTION] = LAYOUT(
 381:keyboards/crkbd/keymaps/th3v3gas/keymap.c ****     C(S(KC_ESC)),TD(TD_F1F11),TD(TD_F2F12),KC_F3,KC_F4,KC_F5,  KC_F6,KC_F7,KC_F8,KC_F9,KC_F10,KC_PS
 382:keyboards/crkbd/keymaps/th3v3gas/keymap.c **** 		               TD(TD_CAPS),KC_P1,KC_P2,KC_P3,KC_P4,KC_P5,  KC_P6,KC_P7,KC_P8,KC_P9,KC_P0,KC_TRNS,
 383:keyboards/crkbd/keymaps/th3v3gas/keymap.c **** 		         _______,XXXXXXX,XXXXXXX,XXXXXXX,XXXXXXX,XXXXXXX,  XXXXXXX,XXXXXXX,XXXXXXX,XXXXXXX,KC_TRN
 384:keyboards/crkbd/keymaps/th3v3gas/keymap.c **** 		                                    KC_AT,KC_EQL,KC_UNDS,  KC_UNDS,_______,_______),
 385:keyboards/crkbd/keymaps/th3v3gas/keymap.c **** 
 386:keyboards/crkbd/keymaps/th3v3gas/keymap.c **** /* _GFN _GAME_FUNCTION
 387:keyboards/crkbd/keymaps/th3v3gas/keymap.c **** *	+-----------------------------------+  +-----------------------------------+
 388:keyboards/crkbd/keymaps/th3v3gas/keymap.c **** *	| del | f1  |  7  |  8  |  9  | f4  |  |     |     |     |     |     |     |
 389:keyboards/crkbd/keymaps/th3v3gas/keymap.c **** *	|-----------------------------------|  |-----------------------------------+
 390:keyboards/crkbd/keymaps/th3v3gas/keymap.c **** *	|     | f2  |  4  |  5  |  6  | f5  |  | F11 |     |     |     |     |     |
 391:keyboards/crkbd/keymaps/th3v3gas/keymap.c **** *	|-----------------------------------|  |-----------------------------------+
 392:keyboards/crkbd/keymaps/th3v3gas/keymap.c **** *	| tab | f3  |  1  |  2  |  3  | f6  |  | F12 |     |     |     |QGWOX|     |
 393:keyboards/crkbd/keymaps/th3v3gas/keymap.c **** *	+-----------------------------------|  |-----------------------------------+
 394:keyboards/crkbd/keymaps/th3v3gas/keymap.c **** *	                  | n/  |   0 |  _  |  |space|     |     |
 395:keyboards/crkbd/keymaps/th3v3gas/keymap.c **** *	                  +-----------------+  +-----------------+
 396:keyboards/crkbd/keymaps/th3v3gas/keymap.c **** */
 397:keyboards/crkbd/keymaps/th3v3gas/keymap.c **** 	[_GAME_FUNCTION] = LAYOUT(
 398:keyboards/crkbd/keymaps/th3v3gas/keymap.c ****      KC_DEL,KC_F1,KC_7,KC_8,KC_9,KC_F4,  _______,_______,_______,_______,_______,_______,
 399:keyboards/crkbd/keymaps/th3v3gas/keymap.c ****     _______,KC_F2,KC_4,KC_5,KC_6,KC_F5,  KC_F11,_______,_______,_______,_______,KC_TRNS,
 400:keyboards/crkbd/keymaps/th3v3gas/keymap.c ****      KC_TAB,KC_F3,KC_1,KC_2,KC_3,KC_F6,  KC_F12,_______,_______,_______,KC_TRNS,_______,
 401:keyboards/crkbd/keymaps/th3v3gas/keymap.c ****                   KC_PSLS,KC_0,KC_PAST,  KC_SPC,_______,_______),
 402:keyboards/crkbd/keymaps/th3v3gas/keymap.c **** 
 403:keyboards/crkbd/keymaps/th3v3gas/keymap.c **** 	[_CHAT] = LAYOUT( // _CH _CHAT
 404:keyboards/crkbd/keymaps/th3v3gas/keymap.c ****     M_CHESC,_______,_______,_______,_______,_______,_______,_______,_______,_______,_______,_______
 405:keyboards/crkbd/keymaps/th3v3gas/keymap.c **** 		_______,_______,_______,_______,_______,_______,_______,_______,_______,_______,_______,_______,
 406:keyboards/crkbd/keymaps/th3v3gas/keymap.c **** 		_______,_______,_______,_______,_______,_______,_______,_______,_______,_______,KC_TRNS,TD(TD_CHE
 407:keyboards/crkbd/keymaps/th3v3gas/keymap.c **** 		_______,_______,_______,_______,_______,M_DSCEXT),
 408:keyboards/crkbd/keymaps/th3v3gas/keymap.c **** 	[_BLNDS] = LAYOUT( //borderlands
 409:keyboards/crkbd/keymaps/th3v3gas/keymap.c ****     _______,_______,_______,M_BLRUN,_______,_______,_______,_______,_______,_______,TG(_BLNDS),____
 410:keyboards/crkbd/keymaps/th3v3gas/keymap.c **** 		_______,_______,_______,_______,_______,_______,_______,_______,_______,_______,_______,_______,
 411:keyboards/crkbd/keymaps/th3v3gas/keymap.c **** 		_______,M_BLSLD,_______,_______,_______,_______,_______,_______,_______,_______,KC_TRNS,_______,
 412:keyboards/crkbd/keymaps/th3v3gas/keymap.c **** 		_______,_______,M_BLADS,_______,_______,M_DSCEXT),
 413:keyboards/crkbd/keymaps/th3v3gas/keymap.c **** };
 414:keyboards/crkbd/keymaps/th3v3gas/keymap.c **** 
 415:keyboards/crkbd/keymaps/th3v3gas/keymap.c **** 
 416:keyboards/crkbd/keymaps/th3v3gas/keymap.c **** #ifdef OLED_DRIVER_ENABLE
 417:keyboards/crkbd/keymaps/th3v3gas/keymap.c **** char keylog_str[5] = {};
 418:keyboards/crkbd/keymaps/th3v3gas/keymap.c **** uint16_t oled_timer;
 419:keyboards/crkbd/keymaps/th3v3gas/keymap.c **** uint16_t log_timer = 0;
 420:keyboards/crkbd/keymaps/th3v3gas/keymap.c **** void update_log(void) {
 682               		.loc 1 420 23 is_stmt 1 view -0
 683               		.cfi_startproc
 684               	/* prologue: function */
 685               	/* frame size = 0 */
 686               	/* stack size = 0 */
 687               	.L__stack_usage = 0
 421:keyboards/crkbd/keymaps/th3v3gas/keymap.c ****     if (timer_elapsed(log_timer) > 750) {
 688               		.loc 1 421 5 view .LVU141
 689               		.loc 1 421 9 is_stmt 0 view .LVU142
 690 0000 8091 0000 		lds r24,log_timer
 691 0004 9091 0000 		lds r25,log_timer+1
 692 0008 0C94 0000 		jmp timer_elapsed
 693               	.LVL78:
 694               		.cfi_endproc
 695               	.LFE129:
 697               		.section	.text.process_record_keymap,"ax",@progbits
 698               	.global	process_record_keymap
 700               	process_record_keymap:
 701               	.LVL79:
 702               	.LFB130:
 422:keyboards/crkbd/keymaps/th3v3gas/keymap.c ****         //add_keylog(0);
 423:keyboards/crkbd/keymaps/th3v3gas/keymap.c ****     }
 424:keyboards/crkbd/keymaps/th3v3gas/keymap.c **** }
 425:keyboards/crkbd/keymaps/th3v3gas/keymap.c **** bool process_record_keymap(uint16_t keycode, keyrecord_t *record) {
 703               		.loc 1 425 67 is_stmt 1 view -0
 704               		.cfi_startproc
 705               	/* prologue: function */
 706               	/* frame size = 0 */
 707               	/* stack size = 0 */
 708               	.L__stack_usage = 0
 426:keyboards/crkbd/keymaps/th3v3gas/keymap.c ****     if (record->event.pressed) {
 709               		.loc 1 426 5 view .LVU144
 710               		.loc 1 426 8 is_stmt 0 view .LVU145
 711 0000 FB01      		movw r30,r22
 712 0002 8281      		ldd r24,Z+2
 713               	.LVL80:
 714               		.loc 1 426 8 view .LVU146
 715 0004 8823      		tst r24
 716 0006 01F0      		breq .L86
 427:keyboards/crkbd/keymaps/th3v3gas/keymap.c ****         //add_keylog(keycode);
 428:keyboards/crkbd/keymaps/th3v3gas/keymap.c ****         oled_timer = timer_read();
 717               		.loc 1 428 9 is_stmt 1 view .LVU147
 718               		.loc 1 428 22 is_stmt 0 view .LVU148
 719 0008 0E94 0000 		call timer_read
 720               	.LVL81:
 721               		.loc 1 428 20 view .LVU149
 722 000c 9093 0000 		sts oled_timer+1,r25
 723 0010 8093 0000 		sts oled_timer,r24
 724               	.L86:
 429:keyboards/crkbd/keymaps/th3v3gas/keymap.c ****     }
 430:keyboards/crkbd/keymaps/th3v3gas/keymap.c ****     return true;
 725               		.loc 1 430 5 is_stmt 1 view .LVU150
 431:keyboards/crkbd/keymaps/th3v3gas/keymap.c **** }
 726               		.loc 1 431 1 is_stmt 0 view .LVU151
 727 0014 81E0      		ldi r24,lo8(1)
 728               	/* epilogue start */
 729 0016 0895      		ret
 730               		.cfi_endproc
 731               	.LFE130:
 733               		.section	.rodata.render_default_layer_state.str1.1,"aMS",@progbits,1
 734               	.LC6:
 735 0000 4C61 7965 		.string	"Layer:"
 735      723A 00
 736               		.section	.text.render_default_layer_state,"ax",@progbits
 737               	.global	render_default_layer_state
 739               	render_default_layer_state:
 740               	.LFB131:
 432:keyboards/crkbd/keymaps/th3v3gas/keymap.c **** void render_default_layer_state(void) {
 741               		.loc 1 432 39 is_stmt 1 view -0
 742               		.cfi_startproc
 743               	/* prologue: function */
 744               	/* frame size = 0 */
 745               	/* stack size = 0 */
 746               	.L__stack_usage = 0
 433:keyboards/crkbd/keymaps/th3v3gas/keymap.c ****     oled_write("Layer:", false);
 747               		.loc 1 433 5 view .LVU153
 748 0000 60E0      		ldi r22,0
 749 0002 80E0      		ldi r24,lo8(.LC6)
 750 0004 90E0      		ldi r25,hi8(.LC6)
 751 0006 0E94 0000 		call oled_write
 752               	.LVL82:
 434:keyboards/crkbd/keymaps/th3v3gas/keymap.c ****     switch (get_highest_layer(layer_state)) {
 753               		.loc 1 434 5 view .LVU154
 754               		.loc 1 434 13 is_stmt 0 view .LVU155
 755 000a 6091 0000 		lds r22,layer_state
 756 000e 7091 0000 		lds r23,layer_state+1
 757 0012 8091 0000 		lds r24,layer_state+2
 758 0016 9091 0000 		lds r25,layer_state+3
 759 001a 0E94 0000 		call biton32
 760               	.LVL83:
 761               		.loc 1 434 5 view .LVU156
 762 001e 8830      		cpi r24,lo8(8)
 763 0020 00F4      		brsh .L90
 764 0022 E82F      		mov r30,r24
 765 0024 F0E0      		ldi r31,0
 766 0026 E050      		subi r30,lo8(-(gs(.L93)))
 767 0028 F040      		sbci r31,hi8(-(gs(.L93)))
 435:keyboards/crkbd/keymaps/th3v3gas/keymap.c ****         case _QW:
 436:keyboards/crkbd/keymaps/th3v3gas/keymap.c ****             oled_write_P(PSTR("_QWERTY\n"), false);
 437:keyboards/crkbd/keymaps/th3v3gas/keymap.c ****             break;
 438:keyboards/crkbd/keymaps/th3v3gas/keymap.c ****         case _GM:
 439:keyboards/crkbd/keymaps/th3v3gas/keymap.c ****             oled_write_P(PSTR("_GAME\n"), false);
 440:keyboards/crkbd/keymaps/th3v3gas/keymap.c ****             break;
 441:keyboards/crkbd/keymaps/th3v3gas/keymap.c ****         case _BLNDS:
 442:keyboards/crkbd/keymaps/th3v3gas/keymap.c ****             oled_write_P(PSTR("Borderlands\n"), false);
 768               		.loc 1 442 13 view .LVU157
 769 002a 60E0      		ldi r22,0
 434:keyboards/crkbd/keymaps/th3v3gas/keymap.c ****     switch (get_highest_layer(layer_state)) {
 770               		.loc 1 434 5 view .LVU158
 771 002c 0C94 0000 		jmp __tablejump2__
 772               		.section	.jumptables.gcc.render_default_layer_state,"a",@progbits
 773               		.p2align	1
 774               	.L93:
 775 0000 0000      		.word gs(.L100)
 776 0002 0000      		.word gs(.L99)
 777 0004 0000      		.word gs(.L98)
 778 0006 0000      		.word gs(.L97)
 779 0008 0000      		.word gs(.L96)
 780 000a 0000      		.word gs(.L95)
 781 000c 0000      		.word gs(.L94)
 782 000e 0000      		.word gs(.L92)
 783               		.section	.text.render_default_layer_state
 784               	.L100:
 436:keyboards/crkbd/keymaps/th3v3gas/keymap.c ****             break;
 785               		.loc 1 436 13 is_stmt 1 view .LVU159
 786               	.LBB2:
 436:keyboards/crkbd/keymaps/th3v3gas/keymap.c ****             break;
 787               		.loc 1 436 26 view .LVU160
 436:keyboards/crkbd/keymaps/th3v3gas/keymap.c ****             break;
 788               		.loc 1 436 26 view .LVU161
 789               	.LBE2:
 436:keyboards/crkbd/keymaps/th3v3gas/keymap.c ****             break;
 790               		.loc 1 436 13 is_stmt 0 view .LVU162
 791 0030 80E0      		ldi r24,lo8(__c.6253)
 792 0032 90E0      		ldi r25,hi8(__c.6253)
 793               	.L101:
 443:keyboards/crkbd/keymaps/th3v3gas/keymap.c ****             break;
 444:keyboards/crkbd/keymaps/th3v3gas/keymap.c ****         case _EDT:
 445:keyboards/crkbd/keymaps/th3v3gas/keymap.c ****             oled_write_P(PSTR("_EDIT\n"), false);
 446:keyboards/crkbd/keymaps/th3v3gas/keymap.c ****             break;
 447:keyboards/crkbd/keymaps/th3v3gas/keymap.c ****         case _TH:
 448:keyboards/crkbd/keymaps/th3v3gas/keymap.c ****             oled_write_P(PSTR("_THUMB\n"), false);
 449:keyboards/crkbd/keymaps/th3v3gas/keymap.c ****             break;
 450:keyboards/crkbd/keymaps/th3v3gas/keymap.c ****         case _FN:
 451:keyboards/crkbd/keymaps/th3v3gas/keymap.c ****             oled_write_P(PSTR("_FUNCTION\n"), false);
 452:keyboards/crkbd/keymaps/th3v3gas/keymap.c ****             break;
 453:keyboards/crkbd/keymaps/th3v3gas/keymap.c ****         case _GFN:
 454:keyboards/crkbd/keymaps/th3v3gas/keymap.c ****             oled_write_P(PSTR("_GAME_FUNCTION\n"), false);
 455:keyboards/crkbd/keymaps/th3v3gas/keymap.c ****             break;
 456:keyboards/crkbd/keymaps/th3v3gas/keymap.c ****         case _CH:
 457:keyboards/crkbd/keymaps/th3v3gas/keymap.c ****             oled_write_P(PSTR("_CHAT\n"), false);
 794               		.loc 1 457 13 view .LVU163
 795 0034 0C94 0000 		jmp oled_write_P
 796               	.LVL84:
 797               	.L99:
 439:keyboards/crkbd/keymaps/th3v3gas/keymap.c ****             break;
 798               		.loc 1 439 13 is_stmt 1 view .LVU164
 799               	.LBB3:
 439:keyboards/crkbd/keymaps/th3v3gas/keymap.c ****             break;
 800               		.loc 1 439 26 view .LVU165
 439:keyboards/crkbd/keymaps/th3v3gas/keymap.c ****             break;
 801               		.loc 1 439 26 view .LVU166
 802               	.LBE3:
 439:keyboards/crkbd/keymaps/th3v3gas/keymap.c ****             break;
 803               		.loc 1 439 13 is_stmt 0 view .LVU167
 804 0038 80E0      		ldi r24,lo8(__c.6257)
 805 003a 90E0      		ldi r25,hi8(__c.6257)
 806 003c 00C0      		rjmp .L101
 807               	.L92:
 442:keyboards/crkbd/keymaps/th3v3gas/keymap.c ****             break;
 808               		.loc 1 442 13 is_stmt 1 view .LVU168
 809               	.LBB4:
 442:keyboards/crkbd/keymaps/th3v3gas/keymap.c ****             break;
 810               		.loc 1 442 26 view .LVU169
 442:keyboards/crkbd/keymaps/th3v3gas/keymap.c ****             break;
 811               		.loc 1 442 26 view .LVU170
 812               	.LBE4:
 442:keyboards/crkbd/keymaps/th3v3gas/keymap.c ****             break;
 813               		.loc 1 442 13 is_stmt 0 view .LVU171
 814 003e 80E0      		ldi r24,lo8(__c.6260)
 815 0040 90E0      		ldi r25,hi8(__c.6260)
 816 0042 00C0      		rjmp .L101
 817               	.L98:
 445:keyboards/crkbd/keymaps/th3v3gas/keymap.c ****             break;
 818               		.loc 1 445 13 is_stmt 1 view .LVU172
 819               	.LBB5:
 445:keyboards/crkbd/keymaps/th3v3gas/keymap.c ****             break;
 820               		.loc 1 445 26 view .LVU173
 445:keyboards/crkbd/keymaps/th3v3gas/keymap.c ****             break;
 821               		.loc 1 445 26 view .LVU174
 822               	.LBE5:
 445:keyboards/crkbd/keymaps/th3v3gas/keymap.c ****             break;
 823               		.loc 1 445 13 is_stmt 0 view .LVU175
 824 0044 80E0      		ldi r24,lo8(__c.6263)
 825 0046 90E0      		ldi r25,hi8(__c.6263)
 826 0048 00C0      		rjmp .L101
 827               	.L97:
 448:keyboards/crkbd/keymaps/th3v3gas/keymap.c ****             break;
 828               		.loc 1 448 13 is_stmt 1 view .LVU176
 829               	.LBB6:
 448:keyboards/crkbd/keymaps/th3v3gas/keymap.c ****             break;
 830               		.loc 1 448 26 view .LVU177
 448:keyboards/crkbd/keymaps/th3v3gas/keymap.c ****             break;
 831               		.loc 1 448 26 view .LVU178
 832               	.LBE6:
 448:keyboards/crkbd/keymaps/th3v3gas/keymap.c ****             break;
 833               		.loc 1 448 13 is_stmt 0 view .LVU179
 834 004a 80E0      		ldi r24,lo8(__c.6266)
 835 004c 90E0      		ldi r25,hi8(__c.6266)
 836 004e 00C0      		rjmp .L101
 837               	.L96:
 451:keyboards/crkbd/keymaps/th3v3gas/keymap.c ****             break;
 838               		.loc 1 451 13 is_stmt 1 view .LVU180
 839               	.LBB7:
 451:keyboards/crkbd/keymaps/th3v3gas/keymap.c ****             break;
 840               		.loc 1 451 26 view .LVU181
 451:keyboards/crkbd/keymaps/th3v3gas/keymap.c ****             break;
 841               		.loc 1 451 26 view .LVU182
 842               	.LBE7:
 451:keyboards/crkbd/keymaps/th3v3gas/keymap.c ****             break;
 843               		.loc 1 451 13 is_stmt 0 view .LVU183
 844 0050 80E0      		ldi r24,lo8(__c.6269)
 845 0052 90E0      		ldi r25,hi8(__c.6269)
 846 0054 00C0      		rjmp .L101
 847               	.L95:
 454:keyboards/crkbd/keymaps/th3v3gas/keymap.c ****             break;
 848               		.loc 1 454 13 is_stmt 1 view .LVU184
 849               	.LBB8:
 454:keyboards/crkbd/keymaps/th3v3gas/keymap.c ****             break;
 850               		.loc 1 454 26 view .LVU185
 454:keyboards/crkbd/keymaps/th3v3gas/keymap.c ****             break;
 851               		.loc 1 454 26 view .LVU186
 852               	.LBE8:
 454:keyboards/crkbd/keymaps/th3v3gas/keymap.c ****             break;
 853               		.loc 1 454 13 is_stmt 0 view .LVU187
 854 0056 80E0      		ldi r24,lo8(__c.6272)
 855 0058 90E0      		ldi r25,hi8(__c.6272)
 856 005a 00C0      		rjmp .L101
 857               	.L94:
 858               		.loc 1 457 13 is_stmt 1 view .LVU188
 859               	.LBB9:
 860               		.loc 1 457 26 view .LVU189
 861               		.loc 1 457 26 view .LVU190
 862               	.LBE9:
 863               		.loc 1 457 13 is_stmt 0 view .LVU191
 864 005c 80E0      		ldi r24,lo8(__c.6275)
 865 005e 90E0      		ldi r25,hi8(__c.6275)
 866 0060 00C0      		rjmp .L101
 867               	.L90:
 868               	/* epilogue start */
 458:keyboards/crkbd/keymaps/th3v3gas/keymap.c ****             break;
 459:keyboards/crkbd/keymaps/th3v3gas/keymap.c ****     }
 460:keyboards/crkbd/keymaps/th3v3gas/keymap.c **** }
 869               		.loc 1 460 1 view .LVU192
 870 0062 0895      		ret
 871               		.cfi_endproc
 872               	.LFE131:
 874               		.section	.text.render_keylock_status,"ax",@progbits
 875               	.global	render_keylock_status
 877               	render_keylock_status:
 878               	.LVL85:
 879               	.LFB132:
 461:keyboards/crkbd/keymaps/th3v3gas/keymap.c **** void render_keylock_status(uint8_t led_usb_state) {
 880               		.loc 1 461 51 is_stmt 1 view -0
 881               		.cfi_startproc
 882               		.loc 1 461 51 is_stmt 0 view .LVU194
 883 0000 CF93      		push r28
 884               	.LCFI1:
 885               		.cfi_def_cfa_offset 3
 886               		.cfi_offset 28, -2
 887               	/* prologue: function */
 888               	/* frame size = 0 */
 889               	/* stack size = 1 */
 890               	.L__stack_usage = 1
 891 0002 C82F      		mov r28,r24
 462:keyboards/crkbd/keymaps/th3v3gas/keymap.c ****     oled_write_P(PSTR("Lock:"), false);
 892               		.loc 1 462 5 is_stmt 1 view .LVU195
 893               	.LBB10:
 894               		.loc 1 462 18 view .LVU196
 895               		.loc 1 462 18 view .LVU197
 896               	.LBE10:
 897               		.loc 1 462 5 is_stmt 0 view .LVU198
 898 0004 60E0      		ldi r22,0
 899 0006 80E0      		ldi r24,lo8(__c.6280)
 900 0008 90E0      		ldi r25,hi8(__c.6280)
 901               	.LVL86:
 902               		.loc 1 462 5 view .LVU199
 903 000a 0E94 0000 		call oled_write_P
 904               	.LVL87:
 463:keyboards/crkbd/keymaps/th3v3gas/keymap.c ****     oled_write_P(PSTR(" NUM "), led_usb_state & (1 << USB_LED_NUM_LOCK));
 905               		.loc 1 463 5 is_stmt 1 view .LVU200
 906               	.LBB11:
 907               		.loc 1 463 18 view .LVU201
 908               		.loc 1 463 18 view .LVU202
 909               	.LBE11:
 910               		.loc 1 463 5 is_stmt 0 view .LVU203
 911 000e 6C2F      		mov r22,r28
 912 0010 6170      		andi r22,lo8(1)
 913 0012 80E0      		ldi r24,lo8(__c.6282)
 914 0014 90E0      		ldi r25,hi8(__c.6282)
 915 0016 0E94 0000 		call oled_write_P
 916               	.LVL88:
 464:keyboards/crkbd/keymaps/th3v3gas/keymap.c ****     oled_write_P(PSTR(" CAPS "), led_usb_state & (1 << USB_LED_CAPS_LOCK));
 917               		.loc 1 464 5 is_stmt 1 view .LVU204
 918               	.LBB12:
 919               		.loc 1 464 18 view .LVU205
 920               		.loc 1 464 18 view .LVU206
 921               	.LBE12:
 922               		.loc 1 464 5 is_stmt 0 view .LVU207
 923 001a C1FB      		bst r28,1
 924 001c 6627      		clr r22
 925 001e 60F9      		bld r22,0
 926 0020 80E0      		ldi r24,lo8(__c.6284)
 927 0022 90E0      		ldi r25,hi8(__c.6284)
 928 0024 0E94 0000 		call oled_write_P
 929               	.LVL89:
 465:keyboards/crkbd/keymaps/th3v3gas/keymap.c ****     oled_write_P(PSTR("     "), false);
 930               		.loc 1 465 5 is_stmt 1 view .LVU208
 931               	.LBB13:
 932               		.loc 1 465 18 view .LVU209
 933               		.loc 1 465 18 view .LVU210
 934               	.LBE13:
 935               		.loc 1 465 5 is_stmt 0 view .LVU211
 936 0028 60E0      		ldi r22,0
 937 002a 80E0      		ldi r24,lo8(__c.6286)
 938 002c 90E0      		ldi r25,hi8(__c.6286)
 939               	/* epilogue start */
 466:keyboards/crkbd/keymaps/th3v3gas/keymap.c **** }
 940               		.loc 1 466 1 view .LVU212
 941 002e CF91      		pop r28
 942               	.LVL90:
 465:keyboards/crkbd/keymaps/th3v3gas/keymap.c ****     oled_write_P(PSTR("     "), false);
 943               		.loc 1 465 5 view .LVU213
 944 0030 0C94 0000 		jmp oled_write_P
 945               	.LVL91:
 946               		.cfi_endproc
 947               	.LFE132:
 949               		.section	.text.render_mod_status,"ax",@progbits
 950               	.global	render_mod_status
 952               	render_mod_status:
 953               	.LVL92:
 954               	.LFB133:
 467:keyboards/crkbd/keymaps/th3v3gas/keymap.c **** void render_mod_status(uint8_t modifiers) {
 955               		.loc 1 467 43 is_stmt 1 view -0
 956               		.cfi_startproc
 957               		.loc 1 467 43 is_stmt 0 view .LVU215
 958 0000 CF93      		push r28
 959               	.LCFI2:
 960               		.cfi_def_cfa_offset 3
 961               		.cfi_offset 28, -2
 962               	/* prologue: function */
 963               	/* frame size = 0 */
 964               	/* stack size = 1 */
 965               	.L__stack_usage = 1
 966 0002 C82F      		mov r28,r24
 468:keyboards/crkbd/keymaps/th3v3gas/keymap.c ****     oled_write_P(PSTR("Mods:"), false);
 967               		.loc 1 468 5 is_stmt 1 view .LVU216
 968               	.LBB14:
 969               		.loc 1 468 18 view .LVU217
 970               		.loc 1 468 18 view .LVU218
 971               	.LBE14:
 972               		.loc 1 468 5 is_stmt 0 view .LVU219
 973 0004 60E0      		ldi r22,0
 974 0006 80E0      		ldi r24,lo8(__c.6291)
 975 0008 90E0      		ldi r25,hi8(__c.6291)
 976               	.LVL93:
 977               		.loc 1 468 5 view .LVU220
 978 000a 0E94 0000 		call oled_write_P
 979               	.LVL94:
 469:keyboards/crkbd/keymaps/th3v3gas/keymap.c ****     oled_write_P(PSTR(" S "), (modifiers & MOD_MASK_SHIFT));
 980               		.loc 1 469 5 is_stmt 1 view .LVU221
 981               	.LBB15:
 982               		.loc 1 469 18 view .LVU222
 983               		.loc 1 469 18 view .LVU223
 984               	.LBE15:
 985               		.loc 1 469 5 is_stmt 0 view .LVU224
 986 000e 8C2F      		mov r24,r28
 987 0010 8272      		andi r24,lo8(34)
 988 0012 61E0      		ldi r22,lo8(1)
 989 0014 01F4      		brne .L104
 990 0016 60E0      		ldi r22,0
 991               	.L104:
 992 0018 80E0      		ldi r24,lo8(__c.6293)
 993 001a 90E0      		ldi r25,hi8(__c.6293)
 994 001c 0E94 0000 		call oled_write_P
 995               	.LVL95:
 470:keyboards/crkbd/keymaps/th3v3gas/keymap.c ****     oled_write_P(PSTR(" C "), (modifiers & MOD_MASK_CTRL));
 996               		.loc 1 470 5 is_stmt 1 view .LVU225
 997               	.LBB16:
 998               		.loc 1 470 18 view .LVU226
 999               		.loc 1 470 18 view .LVU227
 1000               	.LBE16:
 1001               		.loc 1 470 5 is_stmt 0 view .LVU228
 1002 0020 61E0      		ldi r22,lo8(1)
 1003 0022 8C2F      		mov r24,r28
 1004 0024 8171      		andi r24,lo8(17)
 1005 0026 01F4      		brne .L105
 1006 0028 60E0      		ldi r22,0
 1007               	.L105:
 1008 002a 80E0      		ldi r24,lo8(__c.6295)
 1009 002c 90E0      		ldi r25,hi8(__c.6295)
 1010 002e 0E94 0000 		call oled_write_P
 1011               	.LVL96:
 471:keyboards/crkbd/keymaps/th3v3gas/keymap.c ****     oled_write_P(PSTR(" A "), (modifiers & MOD_MASK_ALT));
 1012               		.loc 1 471 5 is_stmt 1 view .LVU229
 1013               	.LBB17:
 1014               		.loc 1 471 18 view .LVU230
 1015               		.loc 1 471 18 view .LVU231
 1016               	.LBE17:
 1017               		.loc 1 471 5 is_stmt 0 view .LVU232
 1018 0032 61E0      		ldi r22,lo8(1)
 1019 0034 8C2F      		mov r24,r28
 1020 0036 8474      		andi r24,lo8(68)
 1021 0038 01F4      		brne .L106
 1022 003a 60E0      		ldi r22,0
 1023               	.L106:
 1024 003c 80E0      		ldi r24,lo8(__c.6297)
 1025 003e 90E0      		ldi r25,hi8(__c.6297)
 1026 0040 0E94 0000 		call oled_write_P
 1027               	.LVL97:
 472:keyboards/crkbd/keymaps/th3v3gas/keymap.c ****     oled_write_P(PSTR(" W "), (modifiers & MOD_MASK_GUI));
 1028               		.loc 1 472 5 is_stmt 1 view .LVU233
 1029               	.LBB18:
 1030               		.loc 1 472 18 view .LVU234
 1031               		.loc 1 472 18 view .LVU235
 1032               	.LBE18:
 1033               		.loc 1 472 5 is_stmt 0 view .LVU236
 1034 0044 C878      		andi r28,lo8(-120)
 1035               	.LVL98:
 1036               		.loc 1 472 5 view .LVU237
 1037 0046 61E0      		ldi r22,lo8(1)
 1038 0048 01F4      		brne .L107
 1039 004a 60E0      		ldi r22,0
 1040               	.L107:
 1041 004c 80E0      		ldi r24,lo8(__c.6299)
 1042 004e 90E0      		ldi r25,hi8(__c.6299)
 1043 0050 0E94 0000 		call oled_write_P
 1044               	.LVL99:
 473:keyboards/crkbd/keymaps/th3v3gas/keymap.c ****     oled_write_P(PSTR("    "), false);
 1045               		.loc 1 473 5 is_stmt 1 view .LVU238
 1046               	.LBB19:
 1047               		.loc 1 473 18 view .LVU239
 1048               		.loc 1 473 18 view .LVU240
 1049               	.LBE19:
 1050               		.loc 1 473 5 is_stmt 0 view .LVU241
 1051 0054 60E0      		ldi r22,0
 1052 0056 80E0      		ldi r24,lo8(__c.6301)
 1053 0058 90E0      		ldi r25,hi8(__c.6301)
 1054               	/* epilogue start */
 474:keyboards/crkbd/keymaps/th3v3gas/keymap.c **** }
 1055               		.loc 1 474 1 view .LVU242
 1056 005a CF91      		pop r28
 473:keyboards/crkbd/keymaps/th3v3gas/keymap.c ****     oled_write_P(PSTR("    "), false);
 1057               		.loc 1 473 5 view .LVU243
 1058 005c 0C94 0000 		jmp oled_write_P
 1059               	.LVL100:
 1060               		.cfi_endproc
 1061               	.LFE133:
 1063               		.section	.text.render_status_main,"ax",@progbits
 1064               	.global	render_status_main
 1066               	render_status_main:
 1067               	.LFB134:
 475:keyboards/crkbd/keymaps/th3v3gas/keymap.c **** void render_status_main(void) {
 1068               		.loc 1 475 31 is_stmt 1 view -0
 1069               		.cfi_startproc
 1070 0000 CF93      		push r28
 1071               	.LCFI3:
 1072               		.cfi_def_cfa_offset 3
 1073               		.cfi_offset 28, -2
 1074               	/* prologue: function */
 1075               	/* frame size = 0 */
 1076               	/* stack size = 1 */
 1077               	.L__stack_usage = 1
 476:keyboards/crkbd/keymaps/th3v3gas/keymap.c ****     render_default_layer_state();
 1078               		.loc 1 476 5 view .LVU245
 1079 0002 0E94 0000 		call render_default_layer_state
 1080               	.LVL101:
 477:keyboards/crkbd/keymaps/th3v3gas/keymap.c ****     render_keylock_status(host_keyboard_leds());
 1081               		.loc 1 477 5 view .LVU246
 1082 0006 0E94 0000 		call host_keyboard_leds
 1083               	.LVL102:
 1084 000a 0E94 0000 		call render_keylock_status
 1085               	.LVL103:
 478:keyboards/crkbd/keymaps/th3v3gas/keymap.c ****     render_mod_status(get_mods() | get_oneshot_mods());
 1086               		.loc 1 478 5 view .LVU247
 1087               		.loc 1 478 23 is_stmt 0 view .LVU248
 1088 000e 0E94 0000 		call get_mods
 1089               	.LVL104:
 1090 0012 C82F      		mov r28,r24
 1091               		.loc 1 478 36 view .LVU249
 1092 0014 0E94 0000 		call get_oneshot_mods
 1093               	.LVL105:
 1094               		.loc 1 478 5 view .LVU250
 1095 0018 8C2B      		or r24,r28
 1096               	/* epilogue start */
 479:keyboards/crkbd/keymaps/th3v3gas/keymap.c **** }
 1097               		.loc 1 479 1 view .LVU251
 1098 001a CF91      		pop r28
 478:keyboards/crkbd/keymaps/th3v3gas/keymap.c ****     render_mod_status(get_mods() | get_oneshot_mods());
 1099               		.loc 1 478 5 view .LVU252
 1100 001c 0C94 0000 		jmp render_mod_status
 1101               	.LVL106:
 1102               		.cfi_endproc
 1103               	.LFE134:
 1105               		.section	.rodata.render_status_secondary.str1.1,"aMS",@progbits,1
 1106               	.LC7:
 1107 0000 4269 7465 		.string	"Bite me."
 1107      206D 652E 
 1107      00
 1108               		.section	.text.render_status_secondary,"ax",@progbits
 1109               	.global	render_status_secondary
 1111               	render_status_secondary:
 1112               	.LFB135:
 480:keyboards/crkbd/keymaps/th3v3gas/keymap.c **** void render_status_secondary(void) {
 1113               		.loc 1 480 36 is_stmt 1 view -0
 1114               		.cfi_startproc
 1115               	/* prologue: function */
 1116               	/* frame size = 0 */
 1117               	/* stack size = 0 */
 1118               	.L__stack_usage = 0
 481:keyboards/crkbd/keymaps/th3v3gas/keymap.c ****     oled_write("Bite me.", false);
 1119               		.loc 1 481 5 view .LVU254
 1120 0000 60E0      		ldi r22,0
 1121 0002 80E0      		ldi r24,lo8(.LC7)
 1122 0004 90E0      		ldi r25,hi8(.LC7)
 1123 0006 0C94 0000 		jmp oled_write
 1124               	.LVL107:
 1125               		.cfi_endproc
 1126               	.LFE135:
 1128               		.section	.text.oled_task_user,"ax",@progbits
 1129               	.global	oled_task_user
 1131               	oled_task_user:
 1132               	.LFB136:
 482:keyboards/crkbd/keymaps/th3v3gas/keymap.c **** }
 483:keyboards/crkbd/keymaps/th3v3gas/keymap.c **** void oled_task_user(void) {
 1133               		.loc 1 483 27 view -0
 1134               		.cfi_startproc
 1135               	/* prologue: function */
 1136               	/* frame size = 0 */
 1137               	/* stack size = 0 */
 1138               	.L__stack_usage = 0
 484:keyboards/crkbd/keymaps/th3v3gas/keymap.c ****     if (timer_elapsed(oled_timer) > 60000) {
 1139               		.loc 1 484 5 view .LVU256
 1140               		.loc 1 484 9 is_stmt 0 view .LVU257
 1141 0000 8091 0000 		lds r24,oled_timer
 1142 0004 9091 0000 		lds r25,oled_timer+1
 1143 0008 0E94 0000 		call timer_elapsed
 1144               	.LVL108:
 1145               		.loc 1 484 8 view .LVU258
 1146 000c 8136      		cpi r24,97
 1147 000e 9A4E      		sbci r25,-22
 1148 0010 00F0      		brlo .L111
 485:keyboards/crkbd/keymaps/th3v3gas/keymap.c ****         oled_off();
 1149               		.loc 1 485 9 is_stmt 1 view .LVU259
 1150 0012 0C94 0000 		jmp oled_off
 1151               	.LVL109:
 1152               	.L111:
 486:keyboards/crkbd/keymaps/th3v3gas/keymap.c ****         return;
 487:keyboards/crkbd/keymaps/th3v3gas/keymap.c ****     }
 488:keyboards/crkbd/keymaps/th3v3gas/keymap.c ****     if (is_master) {
 1153               		.loc 1 488 5 view .LVU260
 1154               		.loc 1 488 8 is_stmt 0 view .LVU261
 1155 0016 8091 0000 		lds r24,is_master
 1156 001a 8111      		cpse r24,__zero_reg__
 489:keyboards/crkbd/keymaps/th3v3gas/keymap.c ****         render_status_main();
 1157               		.loc 1 489 9 is_stmt 1 view .LVU262
 1158 001c 0C94 0000 		jmp render_status_main
 1159               	.LVL110:
 1160               	.L112:
 490:keyboards/crkbd/keymaps/th3v3gas/keymap.c ****     } else {
 491:keyboards/crkbd/keymaps/th3v3gas/keymap.c ****         render_status_secondary();
 1161               		.loc 1 491 9 view .LVU263
 1162 0020 0C94 0000 		jmp render_status_secondary
 1163               	.LVL111:
 1164               		.cfi_endproc
 1165               	.LFE136:
 1167               		.section	.progmem.data.__c.6301,"a"
 1170               	__c.6301:
 1171 0000 2020 2020 		.string	"    "
 1171      00
 1172               		.section	.progmem.data.__c.6299,"a"
 1175               	__c.6299:
 1176 0000 2057 2000 		.string	" W "
 1177               		.section	.progmem.data.__c.6297,"a"
 1180               	__c.6297:
 1181 0000 2041 2000 		.string	" A "
 1182               		.section	.progmem.data.__c.6295,"a"
 1185               	__c.6295:
 1186 0000 2043 2000 		.string	" C "
 1187               		.section	.progmem.data.__c.6293,"a"
 1190               	__c.6293:
 1191 0000 2053 2000 		.string	" S "
 1192               		.section	.progmem.data.__c.6291,"a"
 1195               	__c.6291:
 1196 0000 4D6F 6473 		.string	"Mods:"
 1196      3A00 
 1197               		.section	.progmem.data.__c.6286,"a"
 1200               	__c.6286:
 1201 0000 2020 2020 		.string	"     "
 1201      2000 
 1202               		.section	.progmem.data.__c.6284,"a"
 1205               	__c.6284:
 1206 0000 2043 4150 		.string	" CAPS "
 1206      5320 00
 1207               		.section	.progmem.data.__c.6282,"a"
 1210               	__c.6282:
 1211 0000 204E 554D 		.string	" NUM "
 1211      2000 
 1212               		.section	.progmem.data.__c.6280,"a"
 1215               	__c.6280:
 1216 0000 4C6F 636B 		.string	"Lock:"
 1216      3A00 
 1217               		.section	.progmem.data.__c.6275,"a"
 1220               	__c.6275:
 1221 0000 5F43 4841 		.string	"_CHAT\n"
 1221      540A 00
 1222               		.section	.progmem.data.__c.6272,"a"
 1225               	__c.6272:
 1226 0000 5F47 414D 		.string	"_GAME_FUNCTION\n"
 1226      455F 4655 
 1226      4E43 5449 
 1226      4F4E 0A00 
 1227               		.section	.progmem.data.__c.6269,"a"
 1230               	__c.6269:
 1231 0000 5F46 554E 		.string	"_FUNCTION\n"
 1231      4354 494F 
 1231      4E0A 00
 1232               		.section	.progmem.data.__c.6266,"a"
 1235               	__c.6266:
 1236 0000 5F54 4855 		.string	"_THUMB\n"
 1236      4D42 0A00 
 1237               		.section	.progmem.data.__c.6263,"a"
 1240               	__c.6263:
 1241 0000 5F45 4449 		.string	"_EDIT\n"
 1241      540A 00
 1242               		.section	.progmem.data.__c.6260,"a"
 1245               	__c.6260:
 1246 0000 426F 7264 		.string	"Borderlands\n"
 1246      6572 6C61 
 1246      6E64 730A 
 1246      00
 1247               		.section	.progmem.data.__c.6257,"a"
 1250               	__c.6257:
 1251 0000 5F47 414D 		.string	"_GAME\n"
 1251      450A 00
 1252               		.section	.progmem.data.__c.6253,"a"
 1255               	__c.6253:
 1256 0000 5F51 5745 		.string	"_QWERTY\n"
 1256      5254 590A 
 1256      00
 1257               	.global	log_timer
 1258               		.section	.bss.log_timer,"aw",@nobits
 1261               	log_timer:
 1262 0000 0000      		.zero	2
 1263               		.comm	oled_timer,2,1
 1264               	.global	keylog_str
 1265               		.section	.bss.keylog_str,"aw",@nobits
 1268               	keylog_str:
 1269 0000 0000 0000 		.zero	5
 1269      00
 1270               	.global	keymaps
 1271               		.section	.progmem.data.keymaps,"a"
 1274               	keymaps:
 1275 0000 2961      		.word	24873
 1276 0002 1400      		.word	20
 1277 0004 1A00      		.word	26
 1278 0006 0800      		.word	8
 1279 0008 1500      		.word	21
 1280 000a 1700      		.word	23
 1281 000c 2B44      		.word	17451
 1282 000e 0400      		.word	4
 1283 0010 1600      		.word	22
 1284 0012 0700      		.word	7
 1285 0014 0900      		.word	9
 1286 0016 0A00      		.word	10
 1287 0018 E100      		.word	225
 1288 001a 1D00      		.word	29
 1289 001c 1B00      		.word	27
 1290 001e 0600      		.word	6
 1291 0020 1900      		.word	25
 1292 0022 0500      		.word	5
 1293 0024 0000      		.word	0
 1294 0026 0000      		.word	0
 1295 0028 0000      		.word	0
 1296 002a 5564      		.word	25685
 1297 002c 3843      		.word	17208
 1298 002e 4C00      		.word	76
 1299 0030 2A00      		.word	42
 1300 0032 1300      		.word	19
 1301 0034 1200      		.word	18
 1302 0036 0C00      		.word	12
 1303 0038 1800      		.word	24
 1304 003a 1C00      		.word	28
 1305 003c 0457      		.word	22276
 1306 003e 3300      		.word	51
 1307 0040 0F00      		.word	15
 1308 0042 0E00      		.word	14
 1309 0044 0D00      		.word	13
 1310 0046 0B00      		.word	11
 1311 0048 D95C      		.word	23769
 1312 004a 0357      		.word	22275
 1313 004c 3700      		.word	55
 1314 004e 3600      		.word	54
 1315 0050 1000      		.word	16
 1316 0052 1100      		.word	17
 1317 0054 0000      		.word	0
 1318 0056 0000      		.word	0
 1319 0058 0000      		.word	0
 1320 005a 0657      		.word	22278
 1321 005c 2F43      		.word	17199
 1322 005e 2C00      		.word	44
 1323 0060 2900      		.word	41
 1324 0062 1700      		.word	23
 1325 0064 1400      		.word	20
 1326 0066 1A00      		.word	26
 1327 0068 0800      		.word	8
 1328 006a 1500      		.word	21
 1329 006c 0551      		.word	20741
 1330 006e 0A00      		.word	10
 1331 0070 0400      		.word	4
 1332 0072 1600      		.word	22
 1333 0074 0700      		.word	7
 1334 0076 0900      		.word	9
 1335 0078 E100      		.word	225
 1336 007a 0500      		.word	5
 1337 007c 1D00      		.word	29
 1338 007e 1B00      		.word	27
 1339 0080 0600      		.word	6
 1340 0082 1900      		.word	25
 1341 0084 0000      		.word	0
 1342 0086 0000      		.word	0
 1343 0088 0000      		.word	0
 1344 008a 2F00      		.word	47
 1345 008c 3000      		.word	48
 1346 008e 4C00      		.word	76
 1347 0090 2A00      		.word	42
 1348 0092 0753      		.word	21255
 1349 0094 1200      		.word	18
 1350 0096 0C00      		.word	12
 1351 0098 1800      		.word	24
 1352 009a 0D00      		.word	13
 1353 009c 0457      		.word	22276
 1354 009e 3300      		.word	51
 1355 00a0 0B5D      		.word	23819
 1356 00a2 0A5D      		.word	23818
 1357 00a4 095D      		.word	23817
 1358 00a6 0B00      		.word	11
 1359 00a8 D95C      		.word	23769
 1360 00aa 0357      		.word	22275
 1361 00ac 3700      		.word	55
 1362 00ae 3600      		.word	54
 1363 00b0 1000      		.word	16
 1364 00b2 1100      		.word	17
 1365 00b4 0000      		.word	0
 1366 00b6 0000      		.word	0
 1367 00b8 0000      		.word	0
 1368 00ba 0C5D      		.word	23820
 1369 00bc 4843      		.word	17224
 1370 00be 2C00      		.word	44
 1371 00c0 0100      		.word	1
 1372 00c2 2F00      		.word	47
 1373 00c4 3000      		.word	48
 1374 00c6 2602      		.word	550
 1375 00c8 2702      		.word	551
 1376 00ca 3800      		.word	56
 1377 00cc 0100      		.word	1
 1378 00ce 0401      		.word	260
 1379 00d0 1601      		.word	278
 1380 00d2 0100      		.word	1
 1381 00d4 0E5D      		.word	23822
 1382 00d6 4C00      		.word	76
 1383 00d8 0100      		.word	1
 1384 00da 1D01      		.word	285
 1385 00dc 1B01      		.word	283
 1386 00de 0100      		.word	1
 1387 00e0 2A00      		.word	42
 1388 00e2 2800      		.word	40
 1389 00e4 0000      		.word	0
 1390 00e6 0000      		.word	0
 1391 00e8 0000      		.word	0
 1392 00ea 0601      		.word	262
 1393 00ec 1901      		.word	281
 1394 00ee 2C00      		.word	44
 1395 00f0 1050      		.word	20496
 1396 00f2 0100      		.word	1
 1397 00f4 0100      		.word	1
 1398 00f6 0100      		.word	1
 1399 00f8 0100      		.word	1
 1400 00fa 1C01      		.word	284
 1401 00fc 0100      		.word	1
 1402 00fe 0100      		.word	1
 1403 0100 4F00      		.word	79
 1404 0102 5200      		.word	82
 1405 0104 5100      		.word	81
 1406 0106 5000      		.word	80
 1407 0108 0100      		.word	1
 1408 010a 0100      		.word	1
 1409 010c 4D00      		.word	77
 1410 010e 4B00      		.word	75
 1411 0110 4E00      		.word	78
 1412 0112 4A00      		.word	74
 1413 0114 0000      		.word	0
 1414 0116 0000      		.word	0
 1415 0118 0000      		.word	0
 1416 011a 1050      		.word	20496
 1417 011c 0100      		.word	1
 1418 011e 0100      		.word	1
 1419 0120 3500      		.word	53
 1420 0122 1E00      		.word	30
 1421 0124 1F00      		.word	31
 1422 0126 2000      		.word	32
 1423 0128 2100      		.word	33
 1424 012a 2200      		.word	34
 1425 012c 0100      		.word	1
 1426 012e 0000      		.word	0
 1427 0130 0000      		.word	0
 1428 0132 0000      		.word	0
 1429 0134 0000      		.word	0
 1430 0136 0000      		.word	0
 1431 0138 0100      		.word	1
 1432 013a 0000      		.word	0
 1433 013c 0000      		.word	0
 1434 013e 0601      		.word	262
 1435 0140 1901      		.word	281
 1436 0142 0000      		.word	0
 1437 0144 0000      		.word	0
 1438 0146 0000      		.word	0
 1439 0148 0000      		.word	0
 1440 014a 5700      		.word	87
 1441 014c 2D00      		.word	45
 1442 014e 2C00      		.word	44
 1443 0150 0100      		.word	1
 1444 0152 2700      		.word	39
 1445 0154 2600      		.word	38
 1446 0156 2500      		.word	37
 1447 0158 2400      		.word	36
 1448 015a 2300      		.word	35
 1449 015c 0100      		.word	1
 1450 015e 0100      		.word	1
 1451 0160 4F00      		.word	79
 1452 0162 5200      		.word	82
 1453 0164 5100      		.word	81
 1454 0166 5000      		.word	80
 1455 0168 0100      		.word	1
 1456 016a 0100      		.word	1
 1457 016c 4D00      		.word	77
 1458 016e 4B00      		.word	75
 1459 0170 4E00      		.word	78
 1460 0172 4A00      		.word	74
 1461 0174 0000      		.word	0
 1462 0176 0000      		.word	0
 1463 0178 0000      		.word	0
 1464 017a 2702      		.word	551
 1465 017c 2602      		.word	550
 1466 017e 2D02      		.word	557
 1467 0180 2903      		.word	809
 1468 0182 0057      		.word	22272
 1469 0184 0157      		.word	22273
 1470 0186 3C00      		.word	60
 1471 0188 3D00      		.word	61
 1472 018a 3E00      		.word	62
 1473 018c 0257      		.word	22274
 1474 018e 5900      		.word	89
 1475 0190 5A00      		.word	90
 1476 0192 5B00      		.word	91
 1477 0194 5C00      		.word	92
 1478 0196 5D00      		.word	93
 1479 0198 0100      		.word	1
 1480 019a 0000      		.word	0
 1481 019c 0000      		.word	0
 1482 019e 0000      		.word	0
 1483 01a0 0000      		.word	0
 1484 01a2 0000      		.word	0
 1485 01a4 0000      		.word	0
 1486 01a6 0000      		.word	0
 1487 01a8 0000      		.word	0
 1488 01aa 1F02      		.word	543
 1489 01ac 2E00      		.word	46
 1490 01ae 2D02      		.word	557
 1491 01b0 4600      		.word	70
 1492 01b2 4300      		.word	67
 1493 01b4 4200      		.word	66
 1494 01b6 4100      		.word	65
 1495 01b8 4000      		.word	64
 1496 01ba 3F00      		.word	63
 1497 01bc 0100      		.word	1
 1498 01be 6200      		.word	98
 1499 01c0 6100      		.word	97
 1500 01c2 6000      		.word	96
 1501 01c4 5F00      		.word	95
 1502 01c6 5E00      		.word	94
 1503 01c8 E500      		.word	229
 1504 01ca 0100      		.word	1
 1505 01cc 0000      		.word	0
 1506 01ce 0000      		.word	0
 1507 01d0 0000      		.word	0
 1508 01d2 0000      		.word	0
 1509 01d4 0000      		.word	0
 1510 01d6 0000      		.word	0
 1511 01d8 0000      		.word	0
 1512 01da 0100      		.word	1
 1513 01dc 0100      		.word	1
 1514 01de 2D02      		.word	557
 1515 01e0 4C00      		.word	76
 1516 01e2 3A00      		.word	58
 1517 01e4 2400      		.word	36
 1518 01e6 2500      		.word	37
 1519 01e8 2600      		.word	38
 1520 01ea 3D00      		.word	61
 1521 01ec 0100      		.word	1
 1522 01ee 3B00      		.word	59
 1523 01f0 2100      		.word	33
 1524 01f2 2200      		.word	34
 1525 01f4 2300      		.word	35
 1526 01f6 3E00      		.word	62
 1527 01f8 2B00      		.word	43
 1528 01fa 3C00      		.word	60
 1529 01fc 1E00      		.word	30
 1530 01fe 1F00      		.word	31
 1531 0200 2000      		.word	32
 1532 0202 3F00      		.word	63
 1533 0204 0000      		.word	0
 1534 0206 0000      		.word	0
 1535 0208 0000      		.word	0
 1536 020a 5400      		.word	84
 1537 020c 2700      		.word	39
 1538 020e 5500      		.word	85
 1539 0210 0100      		.word	1
 1540 0212 0100      		.word	1
 1541 0214 0100      		.word	1
 1542 0216 0100      		.word	1
 1543 0218 0100      		.word	1
 1544 021a 0100      		.word	1
 1545 021c 0100      		.word	1
 1546 021e 0100      		.word	1
 1547 0220 0100      		.word	1
 1548 0222 0100      		.word	1
 1549 0224 0100      		.word	1
 1550 0226 4400      		.word	68
 1551 0228 0100      		.word	1
 1552 022a 0100      		.word	1
 1553 022c 0100      		.word	1
 1554 022e 0100      		.word	1
 1555 0230 0100      		.word	1
 1556 0232 4500      		.word	69
 1557 0234 0000      		.word	0
 1558 0236 0000      		.word	0
 1559 0238 0000      		.word	0
 1560 023a 0100      		.word	1
 1561 023c 0100      		.word	1
 1562 023e 2C00      		.word	44
 1563 0240 085D      		.word	23816
 1564 0242 0100      		.word	1
 1565 0244 0100      		.word	1
 1566 0246 0100      		.word	1
 1567 0248 0100      		.word	1
 1568 024a 0100      		.word	1
 1569 024c 0100      		.word	1
 1570 024e 0100      		.word	1
 1571 0250 0100      		.word	1
 1572 0252 0100      		.word	1
 1573 0254 0100      		.word	1
 1574 0256 0100      		.word	1
 1575 0258 0100      		.word	1
 1576 025a 0100      		.word	1
 1577 025c 0100      		.word	1
 1578 025e 0100      		.word	1
 1579 0260 0100      		.word	1
 1580 0262 0100      		.word	1
 1581 0264 0000      		.word	0
 1582 0266 0000      		.word	0
 1583 0268 0000      		.word	0
 1584 026a 0100      		.word	1
 1585 026c 0100      		.word	1
 1586 026e 0100      		.word	1
 1587 0270 0100      		.word	1
 1588 0272 0100      		.word	1
 1589 0274 0100      		.word	1
 1590 0276 0100      		.word	1
 1591 0278 0100      		.word	1
 1592 027a 0100      		.word	1
 1593 027c 0100      		.word	1
 1594 027e 0100      		.word	1
 1595 0280 0100      		.word	1
 1596 0282 0100      		.word	1
 1597 0284 0100      		.word	1
 1598 0286 0100      		.word	1
 1599 0288 0557      		.word	22277
 1600 028a 0100      		.word	1
 1601 028c 0100      		.word	1
 1602 028e 0100      		.word	1
 1603 0290 0100      		.word	1
 1604 0292 0100      		.word	1
 1605 0294 0000      		.word	0
 1606 0296 0000      		.word	0
 1607 0298 0000      		.word	0
 1608 029a 0D5D      		.word	23821
 1609 029c 0100      		.word	1
 1610 029e 0100      		.word	1
 1611 02a0 0100      		.word	1
 1612 02a2 0100      		.word	1
 1613 02a4 0100      		.word	1
 1614 02a6 0F5D      		.word	23823
 1615 02a8 0100      		.word	1
 1616 02aa 0100      		.word	1
 1617 02ac 0100      		.word	1
 1618 02ae 0100      		.word	1
 1619 02b0 0100      		.word	1
 1620 02b2 0100      		.word	1
 1621 02b4 0100      		.word	1
 1622 02b6 0100      		.word	1
 1623 02b8 0100      		.word	1
 1624 02ba 105D      		.word	23824
 1625 02bc 0100      		.word	1
 1626 02be 0100      		.word	1
 1627 02c0 0100      		.word	1
 1628 02c2 0100      		.word	1
 1629 02c4 0000      		.word	0
 1630 02c6 0000      		.word	0
 1631 02c8 0000      		.word	0
 1632 02ca 0100      		.word	1
 1633 02cc 0100      		.word	1
 1634 02ce 115D      		.word	23825
 1635 02d0 0100      		.word	1
 1636 02d2 0753      		.word	21255
 1637 02d4 0100      		.word	1
 1638 02d6 0100      		.word	1
 1639 02d8 0100      		.word	1
 1640 02da 0100      		.word	1
 1641 02dc 0100      		.word	1
 1642 02de 0100      		.word	1
 1643 02e0 0100      		.word	1
 1644 02e2 0100      		.word	1
 1645 02e4 0100      		.word	1
 1646 02e6 0100      		.word	1
 1647 02e8 0100      		.word	1
 1648 02ea 0100      		.word	1
 1649 02ec 0100      		.word	1
 1650 02ee 0100      		.word	1
 1651 02f0 0100      		.word	1
 1652 02f2 0100      		.word	1
 1653 02f4 0000      		.word	0
 1654 02f6 0000      		.word	0
 1655 02f8 0000      		.word	0
 1656 02fa 0D5D      		.word	23821
 1657 02fc 0100      		.word	1
 1658 02fe 0100      		.word	1
 1659               	.global	key_combos
 1660               		.section	.data.key_combos,"aw"
 1663               	key_combos:
 1664 0000 0000      		.word	qm_combo
 1665 0002 3802      		.word	568
 1666 0004 00        		.zero	1
 1667 0005 0000      		.word	ex_combo
 1668 0007 1E02      		.word	542
 1669 0009 00        		.zero	1
 1670               	.global	ex_combo
 1671               		.section	.progmem.data.ex_combo,"a"
 1674               	ex_combo:
 1675 0000 1000      		.word	16
 1676 0002 3600      		.word	54
 1677 0004 0000      		.word	0
 1678               	.global	qm_combo
 1679               		.section	.progmem.data.qm_combo,"a"
 1682               	qm_combo:
 1683 0000 3600      		.word	54
 1684 0002 3700      		.word	55
 1685 0004 0000      		.word	0
 1686               	.global	tap_dance_actions
 1687               		.section	.data.tap_dance_actions,"aw"
 1690               	tap_dance_actions:
 1691 0000 0000      		.word	gs(qk_tap_dance_pair_on_each_tap)
 1692 0002 0000      		.word	gs(qk_tap_dance_pair_finished)
 1693 0004 0000      		.word	gs(qk_tap_dance_pair_reset)
 1694 0006 0000 0000 		.zero	14
 1694      0000 0000 
 1694      0000 0000 
 1694      0000 
 1695 0014 0000      		.word	__compound_literal.0
 1696 0016 0000      		.word	gs(qk_tap_dance_pair_on_each_tap)
 1697 0018 0000      		.word	gs(qk_tap_dance_pair_finished)
 1698 001a 0000      		.word	gs(qk_tap_dance_pair_reset)
 1699 001c 0000 0000 		.zero	14
 1699      0000 0000 
 1699      0000 0000 
 1699      0000 
 1700 002a 0000      		.word	__compound_literal.1
 1701 002c 0000      		.word	gs(qk_tap_dance_pair_on_each_tap)
 1702 002e 0000      		.word	gs(qk_tap_dance_pair_finished)
 1703 0030 0000      		.word	gs(qk_tap_dance_pair_reset)
 1704 0032 0000 0000 		.zero	14
 1704      0000 0000 
 1704      0000 0000 
 1704      0000 
 1705 0040 0000      		.word	__compound_literal.2
 1706 0042 0000      		.word	0
 1707 0044 0000      		.word	gs(td01_finished)
 1708 0046 0000      		.word	gs(td01_reset)
 1709 0048 0000 0000 		.zero	14
 1709      0000 0000 
 1709      0000 0000 
 1709      0000 
 1710 0056 0000      		.word	0
 1711 0058 0000      		.word	0
 1712 005a 0000      		.word	gs(td03_finished)
 1713 005c 0000      		.word	gs(td03_reset)
 1714 005e 0000 0000 		.zero	12
 1714      0000 0000 
 1714      0000 0000 
 1715 006a A000      		.word	160
 1716 006c 0000      		.word	0
 1717 006e 0000      		.word	0
 1718 0070 0000      		.word	gs(td05_finished)
 1719 0072 0000      		.word	gs(td05_reset)
 1720 0074 0000 0000 		.zero	12
 1720      0000 0000 
 1720      0000 0000 
 1721 0080 AA00      		.word	170
 1722 0082 0000      		.word	0
 1723 0084 0000      		.word	0
 1724 0086 0000      		.word	gs(td02_finished)
 1725 0088 0000      		.word	gs(td02_reset)
 1726 008a 0000 0000 		.zero	12
 1726      0000 0000 
 1726      0000 0000 
 1727 0096 9600      		.word	150
 1728 0098 0000      		.word	0
 1729               		.section	.data.__compound_literal.2,"aw"
 1732               	__compound_literal.2:
 1733 0000 0100      		.word	1
 1734 0002 3900      		.word	57
 1735               		.section	.data.__compound_literal.1,"aw"
 1738               	__compound_literal.1:
 1739 0000 3B00      		.word	59
 1740 0002 4500      		.word	69
 1741               		.section	.data.__compound_literal.0,"aw"
 1744               	__compound_literal.0:
 1745 0000 3A00      		.word	58
 1746 0002 4400      		.word	68
 1747               		.section	.bss.td_state,"aw",@nobits
 1750               	td_state:
 1751 0000 00        		.zero	1
 1752               		.text
 1753               	.Letext0:
 1754               		.file 2 "c:\\users\\nonej\\documents\\keyboard\\msys64\\home\\nonej\\qmk_utils\\avr8-gnu-toolchain
 1755               		.file 3 "c:\\users\\nonej\\documents\\keyboard\\msys64\\home\\nonej\\qmk_utils\\avr8-gnu-toolchain
 1756               		.file 4 "tmk_core/common/keyboard.h"
 1757               		.file 5 "tmk_core/common/keycode.h"
 1758               		.file 6 "tmk_core/common/action_code.h"
 1759               		.file 7 "tmk_core/common/action.h"
 1760               		.file 8 "lib/lufa/LUFA/Drivers/USB/Core/AVR8/../StdRequestType.h"
 1761               		.file 9 "lib/lufa/LUFA/Drivers/USB/Core/AVR8/../DeviceStandardReq.h"
 1762               		.file 10 "lib/lufa/LUFA/Drivers/USB/Core/USBTask.h"
 1763               		.file 11 "lib/lufa/LUFA/Drivers/USB/Core/HostStandardReq.h"
 1764               		.file 12 "c:\\users\\nonej\\documents\\keyboard\\msys64\\home\\nonej\\qmk_utils\\avr8-gnu-toolchai
 1765               		.file 13 "tmk_core/common/report.h"
 1766               		.file 14 "tmk_core/common/host_driver.h"
 1767               		.file 15 "tmk_core/common/host.h"
 1768               		.file 16 "tmk_core/common/debug.h"
 1769               		.file 17 "quantum/keycode_config.h"
 1770               		.file 18 "quantum/quantum_keycodes.h"
 1771               		.file 19 "quantum/keymap.h"
 1772               		.file 20 "tmk_core/common/action_layer.h"
 1773               		.file 21 "tmk_core/common/timer.h"
 1774               		.file 22 "tmk_core/common/action_util.h"
 1775               		.file 23 "c:\\users\\nonej\\documents\\keyboard\\msys64\\home\\nonej\\qmk_utils\\avr8-gnu-toolchai
 1776               		.file 24 "quantum/process_keycode/process_tap_dance.h"
 1777               		.file 25 "quantum/process_keycode/process_combo.h"
 1778               		.file 26 "quantum/quantum.h"
 1779               		.file 27 "tmk_core/protocol/lufa/lufa.h"
 1780               		.file 28 "keyboards/crkbd/rev1/split_util.h"
 1781               		.file 29 "drivers/oled/oled_driver.h"
 1782               		.file 30 "tmk_core/common/util.h"
DEFINED SYMBOLS
                            *ABS*:00000000 keymap.c
C:\Users\nonej\Documents\Keyboard\msys64\tmp\cc0AE2bt.s:2      *ABS*:0000003e __SP_H__
C:\Users\nonej\Documents\Keyboard\msys64\tmp\cc0AE2bt.s:3      *ABS*:0000003d __SP_L__
C:\Users\nonej\Documents\Keyboard\msys64\tmp\cc0AE2bt.s:4      *ABS*:0000003f __SREG__
C:\Users\nonej\Documents\Keyboard\msys64\tmp\cc0AE2bt.s:5      *ABS*:00000000 __tmp_reg__
C:\Users\nonej\Documents\Keyboard\msys64\tmp\cc0AE2bt.s:6      *ABS*:00000001 __zero_reg__
C:\Users\nonej\Documents\Keyboard\msys64\tmp\cc0AE2bt.s:13     .text.td01_reset:00000000 td01_reset
C:\Users\nonej\Documents\Keyboard\msys64\tmp\cc0AE2bt.s:1750   .bss.td_state:00000000 td_state
C:\Users\nonej\Documents\Keyboard\msys64\tmp\cc0AE2bt.s:42     .text.td05_reset:00000000 td05_reset
C:\Users\nonej\Documents\Keyboard\msys64\tmp\cc0AE2bt.s:72     .text.td02_reset:00000000 td02_reset
C:\Users\nonej\Documents\Keyboard\msys64\tmp\cc0AE2bt.s:108    .text.td03_reset:00000000 td03_reset
C:\Users\nonej\Documents\Keyboard\msys64\tmp\cc0AE2bt.s:152    .text.cur_dance:00000000 cur_dance
C:\Users\nonej\Documents\Keyboard\msys64\tmp\cc0AE2bt.s:206    .text.td01_finished:00000000 td01_finished
C:\Users\nonej\Documents\Keyboard\msys64\tmp\cc0AE2bt.s:286    .text.td03_finished:00000000 td03_finished
C:\Users\nonej\Documents\Keyboard\msys64\tmp\cc0AE2bt.s:340    .text.td05_finished:00000000 td05_finished
C:\Users\nonej\Documents\Keyboard\msys64\tmp\cc0AE2bt.s:388    .text.td02_finished:00000000 td02_finished
C:\Users\nonej\Documents\Keyboard\msys64\tmp\cc0AE2bt.s:434    .text.process_record_user:00000000 process_record_user
C:\Users\nonej\Documents\Keyboard\msys64\tmp\cc0AE2bt.s:680    .text.update_log:00000000 update_log
C:\Users\nonej\Documents\Keyboard\msys64\tmp\cc0AE2bt.s:1261   .bss.log_timer:00000000 log_timer
C:\Users\nonej\Documents\Keyboard\msys64\tmp\cc0AE2bt.s:700    .text.process_record_keymap:00000000 process_record_keymap
                            *COM*:00000002 oled_timer
C:\Users\nonej\Documents\Keyboard\msys64\tmp\cc0AE2bt.s:739    .text.render_default_layer_state:00000000 render_default_layer_state
C:\Users\nonej\Documents\Keyboard\msys64\tmp\cc0AE2bt.s:1255   .progmem.data.__c.6253:00000000 __c.6253
C:\Users\nonej\Documents\Keyboard\msys64\tmp\cc0AE2bt.s:1250   .progmem.data.__c.6257:00000000 __c.6257
C:\Users\nonej\Documents\Keyboard\msys64\tmp\cc0AE2bt.s:1245   .progmem.data.__c.6260:00000000 __c.6260
C:\Users\nonej\Documents\Keyboard\msys64\tmp\cc0AE2bt.s:1240   .progmem.data.__c.6263:00000000 __c.6263
C:\Users\nonej\Documents\Keyboard\msys64\tmp\cc0AE2bt.s:1235   .progmem.data.__c.6266:00000000 __c.6266
C:\Users\nonej\Documents\Keyboard\msys64\tmp\cc0AE2bt.s:1230   .progmem.data.__c.6269:00000000 __c.6269
C:\Users\nonej\Documents\Keyboard\msys64\tmp\cc0AE2bt.s:1225   .progmem.data.__c.6272:00000000 __c.6272
C:\Users\nonej\Documents\Keyboard\msys64\tmp\cc0AE2bt.s:1220   .progmem.data.__c.6275:00000000 __c.6275
C:\Users\nonej\Documents\Keyboard\msys64\tmp\cc0AE2bt.s:877    .text.render_keylock_status:00000000 render_keylock_status
C:\Users\nonej\Documents\Keyboard\msys64\tmp\cc0AE2bt.s:1215   .progmem.data.__c.6280:00000000 __c.6280
C:\Users\nonej\Documents\Keyboard\msys64\tmp\cc0AE2bt.s:1210   .progmem.data.__c.6282:00000000 __c.6282
C:\Users\nonej\Documents\Keyboard\msys64\tmp\cc0AE2bt.s:1205   .progmem.data.__c.6284:00000000 __c.6284
C:\Users\nonej\Documents\Keyboard\msys64\tmp\cc0AE2bt.s:1200   .progmem.data.__c.6286:00000000 __c.6286
C:\Users\nonej\Documents\Keyboard\msys64\tmp\cc0AE2bt.s:952    .text.render_mod_status:00000000 render_mod_status
C:\Users\nonej\Documents\Keyboard\msys64\tmp\cc0AE2bt.s:1195   .progmem.data.__c.6291:00000000 __c.6291
C:\Users\nonej\Documents\Keyboard\msys64\tmp\cc0AE2bt.s:1190   .progmem.data.__c.6293:00000000 __c.6293
C:\Users\nonej\Documents\Keyboard\msys64\tmp\cc0AE2bt.s:1185   .progmem.data.__c.6295:00000000 __c.6295
C:\Users\nonej\Documents\Keyboard\msys64\tmp\cc0AE2bt.s:1180   .progmem.data.__c.6297:00000000 __c.6297
C:\Users\nonej\Documents\Keyboard\msys64\tmp\cc0AE2bt.s:1175   .progmem.data.__c.6299:00000000 __c.6299
C:\Users\nonej\Documents\Keyboard\msys64\tmp\cc0AE2bt.s:1170   .progmem.data.__c.6301:00000000 __c.6301
C:\Users\nonej\Documents\Keyboard\msys64\tmp\cc0AE2bt.s:1066   .text.render_status_main:00000000 render_status_main
C:\Users\nonej\Documents\Keyboard\msys64\tmp\cc0AE2bt.s:1111   .text.render_status_secondary:00000000 render_status_secondary
C:\Users\nonej\Documents\Keyboard\msys64\tmp\cc0AE2bt.s:1131   .text.oled_task_user:00000000 oled_task_user
C:\Users\nonej\Documents\Keyboard\msys64\tmp\cc0AE2bt.s:1268   .bss.keylog_str:00000000 keylog_str
C:\Users\nonej\Documents\Keyboard\msys64\tmp\cc0AE2bt.s:1274   .progmem.data.keymaps:00000000 keymaps
C:\Users\nonej\Documents\Keyboard\msys64\tmp\cc0AE2bt.s:1663   .data.key_combos:00000000 key_combos
C:\Users\nonej\Documents\Keyboard\msys64\tmp\cc0AE2bt.s:1682   .progmem.data.qm_combo:00000000 qm_combo
C:\Users\nonej\Documents\Keyboard\msys64\tmp\cc0AE2bt.s:1674   .progmem.data.ex_combo:00000000 ex_combo
C:\Users\nonej\Documents\Keyboard\msys64\tmp\cc0AE2bt.s:1690   .data.tap_dance_actions:00000000 tap_dance_actions
C:\Users\nonej\Documents\Keyboard\msys64\tmp\cc0AE2bt.s:1744   .data.__compound_literal.0:00000000 __compound_literal.0
C:\Users\nonej\Documents\Keyboard\msys64\tmp\cc0AE2bt.s:1738   .data.__compound_literal.1:00000000 __compound_literal.1
C:\Users\nonej\Documents\Keyboard\msys64\tmp\cc0AE2bt.s:1732   .data.__compound_literal.2:00000000 __compound_literal.2

UNDEFINED SYMBOLS
layer_move
unregister_code16
layer_on
layer_off
layer_clear
register_code16
__tablejump2__
send_string
register_code
unregister_code
timer_elapsed
timer_read
oled_write
layer_state
biton32
oled_write_P
host_keyboard_leds
get_mods
get_oneshot_mods
oled_off
is_master
qk_tap_dance_pair_on_each_tap
qk_tap_dance_pair_finished
qk_tap_dance_pair_reset
__do_copy_data
__do_clear_bss
